---
triple:          'arm64-apple-darwin'
binary-path:     '/Users/manton/Downloads/llama.cpp-b5602/build-macos/framework/llama.framework/Versions/A/llama'
relocations:
  - { offset: 0x1AEE9, size: 0x8, addend: 0x0, symName: __ZNSt3__127__tree_balance_after_insertB8ne180100IPNS_16__tree_node_baseIPvEEEEvT_S5_, symObjAddr: 0x346C, symBinAddr: 0x4714, symSize: 0x1B4 }
  - { offset: 0x1CEB4, size: 0x8, addend: 0x0, symName: __ZNSt3__120__throw_length_errorB8ne180100EPKc, symObjAddr: 0x37F0, symBinAddr: 0x4A98, symSize: 0x50 }
  - { offset: 0x1D20E, size: 0x8, addend: 0x0, symName: __ZNSt3__120__throw_out_of_rangeB8ne180100EPKc, symObjAddr: 0x3D28, symBinAddr: 0x4FD0, symSize: 0x50 }
  - { offset: 0x1E2C7, size: 0x8, addend: 0x0, symName: __ZSt28__throw_bad_array_new_lengthB8ne180100v, symObjAddr: 0x3444, symBinAddr: 0x46EC, symSize: 0x28 }
  - { offset: 0x235DF, size: 0x8, addend: 0x0, symName: __ZNK18llama_adapter_cvec10tensor_forEi, symObjAddr: 0x0, symBinAddr: 0x12A8, symSize: 0x40 }
  - { offset: 0x23649, size: 0x8, addend: 0x0, symName: __ZNK18llama_adapter_cvec8apply_toEP12ggml_contextP11ggml_tensori, symObjAddr: 0x40, symBinAddr: 0x12E8, symSize: 0x50 }
  - { offset: 0x236B0, size: 0x8, addend: 0x0, symName: __ZNK18llama_adapter_cvec8apply_toEP12ggml_contextP11ggml_tensori, symObjAddr: 0x40, symBinAddr: 0x12E8, symSize: 0x50 }
  - { offset: 0x23DD9, size: 0x8, addend: 0x0, symName: __ZN18llama_adapter_cvec4initERK11llama_model, symObjAddr: 0x90, symBinAddr: 0x1338, symSize: 0x79C }
  - { offset: 0x26063, size: 0x8, addend: 0x0, symName: __ZNSt3__16vectorINS_10unique_ptrI12ggml_context20ggml_context_deleterEENS_9allocatorIS4_EEE24__emplace_back_slow_pathIJRPS2_EEEPS4_DpOT_, symObjAddr: 0x3620, symBinAddr: 0x48C8, symSize: 0x1BC }
  - { offset: 0x2660F, size: 0x8, addend: 0x0, symName: __ZNSt3__16vectorINS_10unique_ptrI19ggml_backend_buffer27ggml_backend_buffer_deleterEENS_9allocatorIS4_EEE7reserveEm, symObjAddr: 0x82C, symBinAddr: 0x1AD4, symSize: 0x188 }
  - { offset: 0x26A94, size: 0x8, addend: 0x0, symName: __ZNSt3__16vectorINS_10unique_ptrI19ggml_backend_buffer27ggml_backend_buffer_deleterEENS_9allocatorIS4_EEE24__emplace_back_slow_pathIJRPS2_EEEPS4_DpOT_, symObjAddr: 0x4AD8, symBinAddr: 0x5D80, symSize: 0x1BC }
  - { offset: 0x27065, size: 0x8, addend: 0x0, symName: __ZNSt3__16__treeINS_12__value_typeIP24ggml_backend_buffer_typeP12ggml_contextEENS_19__map_value_compareIS3_S6_NS_4lessIS3_EELb1EEENS_9allocatorIS6_EEE7destroyEPNS_11__tree_nodeIS6_PvEE, symObjAddr: 0x4A84, symBinAddr: 0x5D2C, symSize: 0x40 }
  - { offset: 0x271A1, size: 0x8, addend: 0x0, symName: __ZNKSt3__16vectorIP11ggml_tensorNS_9allocatorIS2_EEE20__throw_length_errorB8ne180100Ev, symObjAddr: 0x4AC4, symBinAddr: 0x5D6C, symSize: 0x14 }
  - { offset: 0x271CB, size: 0x8, addend: 0x0, symName: __ZNSt3__16vectorINS_10unique_ptrI19ggml_backend_buffer27ggml_backend_buffer_deleterEENS_9allocatorIS4_EEE24__emplace_back_slow_pathIJRPS2_EEEPS4_DpOT_, symObjAddr: 0x4AD8, symBinAddr: 0x5D80, symSize: 0x1BC }
  - { offset: 0x2766B, size: 0x8, addend: 0x0, symName: __ZNKSt3__16vectorINS_10unique_ptrI19ggml_backend_buffer27ggml_backend_buffer_deleterEENS_9allocatorIS4_EEE20__throw_length_errorB8ne180100Ev, symObjAddr: 0x4904, symBinAddr: 0x5BAC, symSize: 0x14 }
  - { offset: 0x27695, size: 0x8, addend: 0x0, symName: __ZNKSt3__16vectorIhNS_9allocatorIhEEE20__throw_length_errorB8ne180100Ev, symObjAddr: 0x4918, symBinAddr: 0x5BC0, symSize: 0x14 }
  - { offset: 0x276C4, size: 0x8, addend: 0x0, symName: __ZN18llama_adapter_cvec5applyERK11llama_modelPKfmiii, symObjAddr: 0x9B4, symBinAddr: 0x1C5C, symSize: 0x124 }
  - { offset: 0x27C92, size: 0x8, addend: 0x0, symName: __ZN18llama_adapter_lora10get_weightEP11ggml_tensor, symObjAddr: 0xAD8, symBinAddr: 0x1D80, symSize: 0xFC }
  - { offset: 0x28348, size: 0x8, addend: 0x0, symName: __ZNSt3__112__hash_tableINS_17__hash_value_typeINS_12basic_stringIcNS_11char_traitsIcEENS_9allocatorIcEEEE25llama_adapter_lora_weightEENS_22__unordered_map_hasherIS7_S9_NS_4hashIS7_EENS_8equal_toIS7_EELb1EEENS_21__unordered_map_equalIS7_S9_SE_SC_Lb1EEENS5_IS9_EEE4findIS7_EENS_15__hash_iteratorIPNS_11__hash_nodeIS9_PvEEEERKT_, symObjAddr: 0x4C94, symBinAddr: 0x5F3C, symSize: 0x22C }
  - { offset: 0x28614, size: 0x8, addend: 0x0, symName: __ZNKSt3__112basic_stringIcNS_11char_traitsIcEENS_9allocatorIcEEE20__throw_length_errorB8ne180100Ev, symObjAddr: 0x3E28, symBinAddr: 0x50D0, symSize: 0x14 }
  - { offset: 0x2863E, size: 0x8, addend: 0x0, symName: __ZNKSt3__16vectorIP24ggml_backend_buffer_typeNS_9allocatorIS2_EEE20__throw_length_errorB8ne180100Ev, symObjAddr: 0x3E3C, symBinAddr: 0x50E4, symSize: 0x14 }
  - { offset: 0x28649, size: 0x8, addend: 0x0, symName: __ZNSt3__112basic_stringIcNS_11char_traitsIcEENS_9allocatorIcEEEC1B8ne180100ILi0EEEPKc, symObjAddr: 0xBD4, symBinAddr: 0x1E7C, symSize: 0xB0 }
  - { offset: 0x289F8, size: 0x8, addend: 0x0, symName: _llama_adapter_lora_init, symObjAddr: 0xC84, symBinAddr: 0x1F2C, symSize: 0x2794 }
  - { offset: 0x2ADB9, size: 0x8, addend: 0x0, symName: _llama_adapter_lora_init, symObjAddr: 0xC84, symBinAddr: 0x1F2C, symSize: 0x2794 }
  - { offset: 0x35259, size: 0x8, addend: 0x0, symName: __ZNSt3__112basic_stringIcNS_11char_traitsIcEENS_9allocatorIcEEE25__init_copy_ctor_externalEPKcm, symObjAddr: 0x3D9C, symBinAddr: 0x5044, symSize: 0x8C }
  - { offset: 0x355C3, size: 0x8, addend: 0x0, symName: __ZNKSt3__112basic_stringIcNS_11char_traitsIcEENS_9allocatorIcEEE20__throw_length_errorB8ne180100Ev, symObjAddr: 0x3E28, symBinAddr: 0x50D0, symSize: 0x14 }
  - { offset: 0x3568F, size: 0x8, addend: 0x0, symName: __ZNSt3__112__hash_tableINS_17__hash_value_typeINS_12basic_stringIcNS_11char_traitsIcEENS_9allocatorIcEEEE25llama_adapter_lora_weightEENS_22__unordered_map_hasherIS7_S9_NS_4hashIS7_EENS_8equal_toIS7_EELb1EEENS_21__unordered_map_equalIS7_S9_SE_SC_Lb1EEENS5_IS9_EEE25__emplace_unique_key_argsIS7_JRKNS_21piecewise_construct_tENS_5tupleIJRKS7_EEENSO_IJEEEEEENS_4pairINS_15__hash_iteratorIPNS_11__hash_nodeIS9_PvEEEEbEERKT_DpOT0_, symObjAddr: 0x3E50, symBinAddr: 0x50F8, symSize: 0x470 }
  - { offset: 0x3608D, size: 0x8, addend: 0x0, symName: __ZNSt3__16vectorINS_10unique_ptrI12ggml_context20ggml_context_deleterEENS_9allocatorIS4_EEE7reserveEm, symObjAddr: 0x3898, symBinAddr: 0x4B40, symSize: 0x188 }
  - { offset: 0x3650C, size: 0x8, addend: 0x0, symName: '__ZZL28llama_adapter_lora_init_implR11llama_modelPKcR18llama_adapter_loraENK3$_4clEP11ggml_tensorS7_', symObjAddr: 0x3A54, symBinAddr: 0x4CFC, symSize: 0x28C }
  - { offset: 0x36B46, size: 0x8, addend: 0x0, symName: __ZNSt3__110unique_ptrI12gguf_context20gguf_context_deleterED1B8ne180100Ev, symObjAddr: 0x3CE0, symBinAddr: 0x4F88, symSize: 0x34 }
  - { offset: 0x36B58, size: 0x8, addend: 0x0, symName: __ZNSt3__16__treeINS_12__value_typeINS_12basic_stringIcNS_11char_traitsIcEENS_9allocatorIcEEEE25llama_adapter_lora_weightEENS_19__map_value_compareIS7_S9_NS_4lessIS7_EELb1EEENS5_IS9_EEE7destroyEPNS_11__tree_nodeIS9_PvEE, symObjAddr: 0x492C, symBinAddr: 0x5BD4, symSize: 0x60 }
  - { offset: 0x36DE4, size: 0x8, addend: 0x0, symName: __ZNKSt3__112basic_stringIcNS_11char_traitsIcEENS_9allocatorIcEEE20__throw_out_of_rangeB8ne180100Ev, symObjAddr: 0x3D14, symBinAddr: 0x4FBC, symSize: 0x14 }
  - { offset: 0x36E0E, size: 0x8, addend: 0x0, symName: __ZNSt3__120__throw_out_of_rangeB8ne180100EPKc, symObjAddr: 0x3D28, symBinAddr: 0x4FD0, symSize: 0x50 }
  - { offset: 0x36E30, size: 0x8, addend: 0x0, symName: __ZNKSt3__16vectorINS_10unique_ptrI12ggml_context20ggml_context_deleterEENS_9allocatorIS4_EEE20__throw_length_errorB8ne180100Ev, symObjAddr: 0x37DC, symBinAddr: 0x4A84, symSize: 0x14 }
  - { offset: 0x36E5A, size: 0x8, addend: 0x0, symName: __ZNSt3__120__throw_length_errorB8ne180100EPKc, symObjAddr: 0x37F0, symBinAddr: 0x4A98, symSize: 0x50 }
  - { offset: 0x36E65, size: 0x8, addend: 0x0, symName: __ZNKSt3__16vectorIP24ggml_backend_buffer_typeNS_9allocatorIS2_EEE20__throw_length_errorB8ne180100Ev, symObjAddr: 0x3E3C, symBinAddr: 0x50E4, symSize: 0x14 }
  - { offset: 0x36E8F, size: 0x8, addend: 0x0, symName: __ZNSt3__112__hash_tableINS_17__hash_value_typeINS_12basic_stringIcNS_11char_traitsIcEENS_9allocatorIcEEEE25llama_adapter_lora_weightEENS_22__unordered_map_hasherIS7_S9_NS_4hashIS7_EENS_8equal_toIS7_EELb1EEENS_21__unordered_map_equalIS7_S9_SE_SC_Lb1EEENS5_IS9_EEE25__emplace_unique_key_argsIS7_JRKNS_21piecewise_construct_tENS_5tupleIJRKS7_EEENSO_IJEEEEEENS_4pairINS_15__hash_iteratorIPNS_11__hash_nodeIS9_PvEEEEbEERKT_DpOT0_, symObjAddr: 0x3E50, symBinAddr: 0x50F8, symSize: 0x470 }
  - { offset: 0x36E9A, size: 0x8, addend: 0x0, symName: __ZNSt3__110unique_ptrI19ggml_backend_buffer27ggml_backend_buffer_deleterED1B8ne180100Ev, symObjAddr: 0x3A20, symBinAddr: 0x4CC8, symSize: 0x34 }
  - { offset: 0x36F2E, size: 0x8, addend: 0x0, symName: __ZNSt3__110unique_ptrI12ggml_context20ggml_context_deleterED1B8ne180100Ev, symObjAddr: 0x3864, symBinAddr: 0x4B0C, symSize: 0x34 }
  - { offset: 0x36FC2, size: 0x8, addend: 0x0, symName: __ZNSt3__110unique_ptrI12gguf_context20gguf_context_deleterED1B8ne180100Ev, symObjAddr: 0x3CE0, symBinAddr: 0x4F88, symSize: 0x34 }
  - { offset: 0x37056, size: 0x8, addend: 0x0, symName: __ZN18llama_adapter_loraD2Ev, symObjAddr: 0x498C, symBinAddr: 0x5C34, symSize: 0xF8 }
  - { offset: 0x3788E, size: 0x8, addend: 0x0, symName: _llama_adapter_lora_free, symObjAddr: 0x3428, symBinAddr: 0x46D0, symSize: 0x1C }
  - { offset: 0x378E0, size: 0x8, addend: 0x0, symName: __ZNSt12length_errorC1B8ne180100EPKc, symObjAddr: 0x3840, symBinAddr: 0x4AE8, symSize: 0x24 }
  - { offset: 0x37E4D, size: 0x8, addend: 0x0, symName: __ZNKSt3__16vectorIhNS_9allocatorIhEEE20__throw_length_errorB8ne180100Ev, symObjAddr: 0x4918, symBinAddr: 0x5BC0, symSize: 0x14 }
  - { offset: 0x37E77, size: 0x8, addend: 0x0, symName: __ZNSt3__16__treeINS_12__value_typeINS_12basic_stringIcNS_11char_traitsIcEENS_9allocatorIcEEEE25llama_adapter_lora_weightEENS_19__map_value_compareIS7_S9_NS_4lessIS7_EELb1EEENS5_IS9_EEE7destroyEPNS_11__tree_nodeIS9_PvEE, symObjAddr: 0x492C, symBinAddr: 0x5BD4, symSize: 0x60 }
  - { offset: 0x37E82, size: 0x8, addend: 0x0, symName: __ZNSt12out_of_rangeC1B8ne180100EPKc, symObjAddr: 0x3D78, symBinAddr: 0x5020, symSize: 0x24 }
  - { offset: 0x38463, size: 0x8, addend: 0x0, symName: __ZNKSt3__121__murmur2_or_cityhashImLm64EEclB8ne180100EPKvm, symObjAddr: 0x430C, symBinAddr: 0x55B4, symSize: 0x44C }
  - { offset: 0x38E47, size: 0x8, addend: 0x0, symName: __ZNSt3__112__hash_tableINS_17__hash_value_typeINS_12basic_stringIcNS_11char_traitsIcEENS_9allocatorIcEEEE25llama_adapter_lora_weightEENS_22__unordered_map_hasherIS7_S9_NS_4hashIS7_EENS_8equal_toIS7_EELb1EEENS_21__unordered_map_equalIS7_S9_SE_SC_Lb1EEENS5_IS9_EEE11__do_rehashILb1EEEvm, symObjAddr: 0x4758, symBinAddr: 0x5A00, symSize: 0x1AC }
  - { offset: 0x392A5, size: 0x8, addend: 0x0, symName: __ZNKSt3__16vectorINS_10unique_ptrI19ggml_backend_buffer27ggml_backend_buffer_deleterEENS_9allocatorIS4_EEE20__throw_length_errorB8ne180100Ev, symObjAddr: 0x4904, symBinAddr: 0x5BAC, symSize: 0x14 }
  - { offset: 0x392BA, size: 0x8, addend: 0x0, symName: __ZNSt3__110unique_ptrINS_11__hash_nodeINS_17__hash_value_typeINS_12basic_stringIcNS_11char_traitsIcEENS_9allocatorIcEEEE25llama_adapter_lora_weightEEPvEENS_22__hash_node_destructorINS6_ISC_EEEEED1B8ne180100Ev, symObjAddr: 0x42C0, symBinAddr: 0x5568, symSize: 0x4C }
  - { offset: 0x3C088, size: 0x8, addend: 0x0, symName: __MergedGlobals, symObjAddr: 0xB7810, symBinAddr: 0x2938A0, symSize: 0x0 }
  - { offset: 0x4DC35, size: 0x8, addend: 0x0, symName: __MergedGlobals, symObjAddr: 0xB7810, symBinAddr: 0x2938A0, symSize: 0x0 }
  - { offset: 0x4E08E, size: 0x8, addend: 0x0, symName: __ZL16LLM_TENSOR_NAMES, symObjAddr: 0xB77F8, symBinAddr: 0x293888, symSize: 0x0 }
  - { offset: 0x4EC79, size: 0x8, addend: 0x0, symName: __MergedGlobals, symObjAddr: 0xB7810, symBinAddr: 0x2938A0, symSize: 0x0 }
  - { offset: 0x4F261, size: 0x8, addend: 0x0, symName: __ZNSt3__13mapI8llm_archPKcNS_4lessIS1_EENS_9allocatorINS_4pairIKS1_S3_EEEEED1B8ne180100Ev, symObjAddr: 0x0, symBinAddr: 0x6168, symSize: 0x28 }
  - { offset: 0x4F315, size: 0x8, addend: 0x0, symName: __ZNSt3__16__treeINS_12__value_typeI8llm_archPKcEENS_19__map_value_compareIS2_S5_NS_4lessIS2_EELb1EEENS_9allocatorIS5_EEE7destroyEPNS_11__tree_nodeIS5_PvEE, symObjAddr: 0xD38, symBinAddr: 0x6CDC, symSize: 0x40 }
  - { offset: 0x4F4C3, size: 0x8, addend: 0x0, symName: __ZNSt3__13mapI6llm_kvPKcNS_4lessIS1_EENS_9allocatorINS_4pairIKS1_S3_EEEEED1B8ne180100Ev, symObjAddr: 0x28, symBinAddr: 0x6190, symSize: 0x28 }
  - { offset: 0x4F577, size: 0x8, addend: 0x0, symName: __ZNSt3__16__treeINS_12__value_typeI6llm_kvPKcEENS_19__map_value_compareIS2_S5_NS_4lessIS2_EELb1EEENS_9allocatorIS5_EEE7destroyEPNS_11__tree_nodeIS5_PvEE, symObjAddr: 0x1018, symBinAddr: 0x6FBC, symSize: 0x40 }
  - { offset: 0x4FA11, size: 0x8, addend: 0x0, symName: __ZNSt3__13mapI10llm_tensorPKcNS_4lessIS1_EENS_9allocatorINS_4pairIKS1_S3_EEEEEC2B8ne180100ESt16initializer_listIS9_ERKS5_, symObjAddr: 0x1058, symBinAddr: 0x6FFC, symSize: 0xF0 }
  - { offset: 0x4FDEC, size: 0x8, addend: 0x0, symName: __ZNSt3__13mapI10llm_tensorPKcNS_4lessIS1_EENS_9allocatorINS_4pairIKS1_S3_EEEEE6insertB8ne180100INS_20__map_const_iteratorINS_21__tree_const_iteratorINS_12__value_typeIS1_S3_EEPNS_11__tree_nodeISG_PvEElEEEEEEvT_SN_, symObjAddr: 0x5D8, symBinAddr: 0x6740, symSize: 0x10C }
  - { offset: 0x4FE34, size: 0x8, addend: 0x0, symName: __ZNSt3__13mapI10llm_tensorPKcNS_4lessIS1_EENS_9allocatorINS_4pairIKS1_S3_EEEEE6insertB8ne180100INS_20__map_const_iteratorINS_21__tree_const_iteratorINS_12__value_typeIS1_S3_EEPNS_11__tree_nodeISG_PvEElEEEEEEvT_SN_, symObjAddr: 0x5D8, symBinAddr: 0x6740, symSize: 0x10C }
  - { offset: 0x50145, size: 0x8, addend: 0x0, symName: __ZNSt3__16__treeINS_12__value_typeI8llm_archNS_3mapI10llm_tensorPKcNS_4lessIS4_EENS_9allocatorINS_4pairIKS4_S6_EEEEEEEENS_19__map_value_compareIS2_SF_NS7_IS2_EELb1EEENS9_ISF_EEE30__emplace_hint_unique_key_argsIS2_JRKNSA_IKS2_SE_EEEEENSA_INS_15__tree_iteratorISF_PNS_11__tree_nodeISF_PvEElEEbEENS_21__tree_const_iteratorISF_SU_lEERKT_DpOT0_, symObjAddr: 0x1148, symBinAddr: 0x70EC, symSize: 0xF8 }
  - { offset: 0x50721, size: 0x8, addend: 0x0, symName: __ZNSt3__16__treeINS_12__value_typeI10llm_tensorPKcEENS_19__map_value_compareIS2_S5_NS_4lessIS2_EELb1EEENS_9allocatorIS5_EEE7destroyEPNS_11__tree_nodeIS5_PvEE, symObjAddr: 0xA58, symBinAddr: 0x69FC, symSize: 0x40 }
  - { offset: 0x5085D, size: 0x8, addend: 0x0, symName: __ZNSt3__16__treeINS_12__value_typeI8llm_archNS_3mapI10llm_tensorPKcNS_4lessIS4_EENS_9allocatorINS_4pairIKS4_S6_EEEEEEEENS_19__map_value_compareIS2_SF_NS7_IS2_EELb1EEENS9_ISF_EEE7destroyEPNS_11__tree_nodeISF_PvEE, symObjAddr: 0x13F0, symBinAddr: 0x7394, symSize: 0x4C }
  - { offset: 0x50ACF, size: 0x8, addend: 0x0, symName: __ZNSt3__13mapI8llm_archNS0_I10llm_tensorPKcNS_4lessIS2_EENS_9allocatorINS_4pairIKS2_S4_EEEEEENS5_IS1_EENS7_INS8_IKS1_SC_EEEEED1B8ne180100Ev, symObjAddr: 0x50, symBinAddr: 0x61B8, symSize: 0x28 }
  - { offset: 0x50BF5, size: 0x8, addend: 0x0, symName: __ZNSt3__13mapI10llm_tensor15llm_tensor_infoNS_4lessIS1_EENS_9allocatorINS_4pairIKS1_S2_EEEEED1B8ne180100Ev, symObjAddr: 0x78, symBinAddr: 0x61E0, symSize: 0x28 }
  - { offset: 0x50CA9, size: 0x8, addend: 0x0, symName: __ZNSt3__16__treeINS_12__value_typeI10llm_tensor15llm_tensor_infoEENS_19__map_value_compareIS2_S4_NS_4lessIS2_EELb1EEENS_9allocatorIS4_EEE7destroyEPNS_11__tree_nodeIS4_PvEE, symObjAddr: 0x16E8, symBinAddr: 0x768C, symSize: 0x40 }
  - { offset: 0x50DEA, size: 0x8, addend: 0x0, symName: __ZN6LLM_KVC2E8llm_archPKc, symObjAddr: 0xA0, symBinAddr: 0x6208, symSize: 0xC }
  - { offset: 0x50E52, size: 0x8, addend: 0x0, symName: __ZN6LLM_KVC1E8llm_archPKc, symObjAddr: 0xAC, symBinAddr: 0x6214, symSize: 0xC }
  - { offset: 0x50E9E, size: 0x8, addend: 0x0, symName: __ZN6LLM_KVC1E8llm_archPKc, symObjAddr: 0xAC, symBinAddr: 0x6214, symSize: 0xC }
  - { offset: 0x51125, size: 0x8, addend: 0x0, symName: __ZNK6LLM_KVclE6llm_kv, symObjAddr: 0xB8, symBinAddr: 0x6220, symSize: 0x134 }
  - { offset: 0x51A41, size: 0x8, addend: 0x0, symName: __ZNK11LLM_TN_IMPL3strEv, symObjAddr: 0x1EC, symBinAddr: 0x6354, symSize: 0x1DC }
  - { offset: 0x523E3, size: 0x8, addend: 0x0, symName: __Z13llm_arch_name8llm_arch, symObjAddr: 0x3C8, symBinAddr: 0x6530, symSize: 0x5C }
  - { offset: 0x52427, size: 0x8, addend: 0x0, symName: __Z13llm_arch_name8llm_arch, symObjAddr: 0x3C8, symBinAddr: 0x6530, symSize: 0x5C }
  - { offset: 0x5243C, size: 0x8, addend: 0x0, symName: __Z13llm_arch_name8llm_arch, symObjAddr: 0x3C8, symBinAddr: 0x6530, symSize: 0x5C }
  - { offset: 0x5245A, size: 0x8, addend: 0x0, symName: __Z13llm_arch_name8llm_arch, symObjAddr: 0x3C8, symBinAddr: 0x6530, symSize: 0x5C }
  - { offset: 0x52631, size: 0x8, addend: 0x0, symName: __Z20llm_arch_from_stringRKNSt3__112basic_stringIcNS_11char_traitsIcEENS_9allocatorIcEEEE, symObjAddr: 0x424, symBinAddr: 0x658C, symSize: 0x164 }
  - { offset: 0x529D8, size: 0x8, addend: 0x0, symName: __Z19llm_tensor_info_for10llm_tensor, symObjAddr: 0x588, symBinAddr: 0x66F0, symSize: 0x50 }
  - { offset: 0x52D6A, size: 0x8, addend: 0x0, symName: __ZNSt3__16__treeINS_12__value_typeI10llm_tensorPKcEENS_19__map_value_compareIS2_S5_NS_4lessIS2_EELb1EEENS_9allocatorIS5_EEE12__find_equalIS2_EERPNS_16__tree_node_baseIPvEENS_21__tree_const_iteratorIS5_PNS_11__tree_nodeIS5_SF_EElEERPNS_15__tree_end_nodeISH_EESI_RKT_, symObjAddr: 0x6E4, symBinAddr: 0x684C, symSize: 0x1B0 }
  - { offset: 0x52DD3, size: 0x8, addend: 0x0, symName: __ZNSt3__16__treeINS_12__value_typeI10llm_tensorPKcEENS_19__map_value_compareIS2_S5_NS_4lessIS2_EELb1EEENS_9allocatorIS5_EEE12__find_equalIS2_EERPNS_16__tree_node_baseIPvEENS_21__tree_const_iteratorIS5_PNS_11__tree_nodeIS5_SF_EElEERPNS_15__tree_end_nodeISH_EESI_RKT_, symObjAddr: 0x6E4, symBinAddr: 0x684C, symSize: 0x1B0 }
  - { offset: 0x52DEF, size: 0x8, addend: 0x0, symName: __ZNSt3__16__treeINS_12__value_typeI10llm_tensorPKcEENS_19__map_value_compareIS2_S5_NS_4lessIS2_EELb1EEENS_9allocatorIS5_EEE12__find_equalIS2_EERPNS_16__tree_node_baseIPvEENS_21__tree_const_iteratorIS5_PNS_11__tree_nodeIS5_SF_EElEERPNS_15__tree_end_nodeISH_EESI_RKT_, symObjAddr: 0x6E4, symBinAddr: 0x684C, symSize: 0x1B0 }
  - { offset: 0x53577, size: 0x8, addend: 0x0, symName: __ZNSt3__13mapI8llm_archPKcNS_4lessIS1_EENS_9allocatorINS_4pairIKS1_S3_EEEEEC2B8ne180100ESt16initializer_listIS9_ERKS5_, symObjAddr: 0xA98, symBinAddr: 0x6A3C, symSize: 0xF0 }
  - { offset: 0x53952, size: 0x8, addend: 0x0, symName: __ZNSt3__16__treeINS_12__value_typeI8llm_archPKcEENS_19__map_value_compareIS2_S5_NS_4lessIS2_EELb1EEENS_9allocatorIS5_EEE12__find_equalIS2_EERPNS_16__tree_node_baseIPvEENS_21__tree_const_iteratorIS5_PNS_11__tree_nodeIS5_SF_EElEERPNS_15__tree_end_nodeISH_EESI_RKT_, symObjAddr: 0xB88, symBinAddr: 0x6B2C, symSize: 0x1B0 }
  - { offset: 0x539BB, size: 0x8, addend: 0x0, symName: __ZNSt3__16__treeINS_12__value_typeI8llm_archPKcEENS_19__map_value_compareIS2_S5_NS_4lessIS2_EELb1EEENS_9allocatorIS5_EEE12__find_equalIS2_EERPNS_16__tree_node_baseIPvEENS_21__tree_const_iteratorIS5_PNS_11__tree_nodeIS5_SF_EElEERPNS_15__tree_end_nodeISH_EESI_RKT_, symObjAddr: 0xB88, symBinAddr: 0x6B2C, symSize: 0x1B0 }
  - { offset: 0x539D7, size: 0x8, addend: 0x0, symName: __ZNSt3__16__treeINS_12__value_typeI8llm_archPKcEENS_19__map_value_compareIS2_S5_NS_4lessIS2_EELb1EEENS_9allocatorIS5_EEE12__find_equalIS2_EERPNS_16__tree_node_baseIPvEENS_21__tree_const_iteratorIS5_PNS_11__tree_nodeIS5_SF_EElEERPNS_15__tree_end_nodeISH_EESI_RKT_, symObjAddr: 0xB88, symBinAddr: 0x6B2C, symSize: 0x1B0 }
  - { offset: 0x54122, size: 0x8, addend: 0x0, symName: __ZNSt3__13mapI6llm_kvPKcNS_4lessIS1_EENS_9allocatorINS_4pairIKS1_S3_EEEEEC2B8ne180100ESt16initializer_listIS9_ERKS5_, symObjAddr: 0xD78, symBinAddr: 0x6D1C, symSize: 0xF0 }
  - { offset: 0x544FD, size: 0x8, addend: 0x0, symName: __ZNSt3__16__treeINS_12__value_typeI6llm_kvPKcEENS_19__map_value_compareIS2_S5_NS_4lessIS2_EELb1EEENS_9allocatorIS5_EEE12__find_equalIS2_EERPNS_16__tree_node_baseIPvEENS_21__tree_const_iteratorIS5_PNS_11__tree_nodeIS5_SF_EElEERPNS_15__tree_end_nodeISH_EESI_RKT_, symObjAddr: 0xE68, symBinAddr: 0x6E0C, symSize: 0x1B0 }
  - { offset: 0x54566, size: 0x8, addend: 0x0, symName: __ZNSt3__16__treeINS_12__value_typeI6llm_kvPKcEENS_19__map_value_compareIS2_S5_NS_4lessIS2_EELb1EEENS_9allocatorIS5_EEE12__find_equalIS2_EERPNS_16__tree_node_baseIPvEENS_21__tree_const_iteratorIS5_PNS_11__tree_nodeIS5_SF_EElEERPNS_15__tree_end_nodeISH_EESI_RKT_, symObjAddr: 0xE68, symBinAddr: 0x6E0C, symSize: 0x1B0 }
  - { offset: 0x54582, size: 0x8, addend: 0x0, symName: __ZNSt3__16__treeINS_12__value_typeI6llm_kvPKcEENS_19__map_value_compareIS2_S5_NS_4lessIS2_EELb1EEENS_9allocatorIS5_EEE12__find_equalIS2_EERPNS_16__tree_node_baseIPvEENS_21__tree_const_iteratorIS5_PNS_11__tree_nodeIS5_SF_EElEERPNS_15__tree_end_nodeISH_EESI_RKT_, symObjAddr: 0xE68, symBinAddr: 0x6E0C, symSize: 0x1B0 }
  - { offset: 0x54D4A, size: 0x8, addend: 0x0, symName: __ZNSt3__16__treeINS_12__value_typeI8llm_archNS_3mapI10llm_tensorPKcNS_4lessIS4_EENS_9allocatorINS_4pairIKS4_S6_EEEEEEEENS_19__map_value_compareIS2_SF_NS7_IS2_EELb1EEENS9_ISF_EEE12__find_equalIS2_EERPNS_16__tree_node_baseIPvEENS_21__tree_const_iteratorISF_PNS_11__tree_nodeISF_SN_EElEERPNS_15__tree_end_nodeISP_EESQ_RKT_, symObjAddr: 0x1240, symBinAddr: 0x71E4, symSize: 0x1B0 }
  - { offset: 0x54DB3, size: 0x8, addend: 0x0, symName: __ZNSt3__16__treeINS_12__value_typeI8llm_archNS_3mapI10llm_tensorPKcNS_4lessIS4_EENS_9allocatorINS_4pairIKS4_S6_EEEEEEEENS_19__map_value_compareIS2_SF_NS7_IS2_EELb1EEENS9_ISF_EEE12__find_equalIS2_EERPNS_16__tree_node_baseIPvEENS_21__tree_const_iteratorISF_PNS_11__tree_nodeISF_SN_EElEERPNS_15__tree_end_nodeISP_EESQ_RKT_, symObjAddr: 0x1240, symBinAddr: 0x71E4, symSize: 0x1B0 }
  - { offset: 0x54DCF, size: 0x8, addend: 0x0, symName: __ZNSt3__16__treeINS_12__value_typeI8llm_archNS_3mapI10llm_tensorPKcNS_4lessIS4_EENS_9allocatorINS_4pairIKS4_S6_EEEEEEEENS_19__map_value_compareIS2_SF_NS7_IS2_EELb1EEENS9_ISF_EEE12__find_equalIS2_EERPNS_16__tree_node_baseIPvEENS_21__tree_const_iteratorISF_PNS_11__tree_nodeISF_SN_EElEERPNS_15__tree_end_nodeISP_EESQ_RKT_, symObjAddr: 0x1240, symBinAddr: 0x71E4, symSize: 0x1B0 }
  - { offset: 0x55532, size: 0x8, addend: 0x0, symName: __ZNSt3__13mapI10llm_tensor15llm_tensor_infoNS_4lessIS1_EENS_9allocatorINS_4pairIKS1_S2_EEEEEC2B8ne180100ESt16initializer_listIS8_ERKS4_, symObjAddr: 0x143C, symBinAddr: 0x73E0, symSize: 0xFC }
  - { offset: 0x5590D, size: 0x8, addend: 0x0, symName: __ZNSt3__16__treeINS_12__value_typeI10llm_tensor15llm_tensor_infoEENS_19__map_value_compareIS2_S4_NS_4lessIS2_EELb1EEENS_9allocatorIS4_EEE12__find_equalIS2_EERPNS_16__tree_node_baseIPvEENS_21__tree_const_iteratorIS4_PNS_11__tree_nodeIS4_SE_EElEERPNS_15__tree_end_nodeISG_EESH_RKT_, symObjAddr: 0x1538, symBinAddr: 0x74DC, symSize: 0x1B0 }
  - { offset: 0x55976, size: 0x8, addend: 0x0, symName: __ZNSt3__16__treeINS_12__value_typeI10llm_tensor15llm_tensor_infoEENS_19__map_value_compareIS2_S4_NS_4lessIS2_EELb1EEENS_9allocatorIS4_EEE12__find_equalIS2_EERPNS_16__tree_node_baseIPvEENS_21__tree_const_iteratorIS4_PNS_11__tree_nodeIS4_SE_EElEERPNS_15__tree_end_nodeISG_EESH_RKT_, symObjAddr: 0x1538, symBinAddr: 0x74DC, symSize: 0x1B0 }
  - { offset: 0x55992, size: 0x8, addend: 0x0, symName: __ZNSt3__16__treeINS_12__value_typeI10llm_tensor15llm_tensor_infoEENS_19__map_value_compareIS2_S4_NS_4lessIS2_EELb1EEENS_9allocatorIS4_EEE12__find_equalIS2_EERPNS_16__tree_node_baseIPvEENS_21__tree_const_iteratorIS4_PNS_11__tree_nodeIS4_SE_EElEERPNS_15__tree_end_nodeISG_EESH_RKT_, symObjAddr: 0x1538, symBinAddr: 0x74DC, symSize: 0x1B0 }
  - { offset: 0x57D23, size: 0x8, addend: 0x0, symName: __ZN12llama_sbatch14reserve_ubatchEmb, symObjAddr: 0x0, symBinAddr: 0xB91C, symSize: 0x554 }
  - { offset: 0x624DE, size: 0x8, addend: 0x0, symName: '__ZNSt3__111__introsortINS_17_ClassicAlgPolicyERZN12llama_sbatchC1ERK11llama_batchmbbE3$_0PxLb0EEEvT1_S9_T0_NS_15iterator_traitsIS9_E15difference_typeEb', symObjAddr: 0x2938, symBinAddr: 0xE1B8, symSize: 0x13F8 }
  - { offset: 0x63508, size: 0x8, addend: 0x0, symName: '__ZNSt3__127__insertion_sort_incompleteB8ne180100INS_17_ClassicAlgPolicyERZN12llama_sbatchC1ERK11llama_batchmbbE3$_0PxEEbT1_S9_T0_', symObjAddr: 0x4334, symBinAddr: 0xFBB4, symSize: 0x34C }
  - { offset: 0x638AE, size: 0x8, addend: 0x0, symName: '__ZNSt3__111__introsortINS_17_ClassicAlgPolicyERZN12llama_sbatchC1ERK11llama_batchmbbE3$_1P16llama_sbatch_seqLb0EEEvT1_SA_T0_NS_15iterator_traitsISA_E15difference_typeEb', symObjAddr: 0x48BC, symBinAddr: 0x1013C, symSize: 0x10F4 }
  - { offset: 0x65497, size: 0x8, addend: 0x0, symName: '__ZNSt3__127__insertion_sort_incompleteB8ne180100INS_17_ClassicAlgPolicyERZN12llama_sbatchC1ERK11llama_batchmbbE3$_1P16llama_sbatch_seqEEbT1_SA_T0_', symObjAddr: 0x59B0, symBinAddr: 0x11230, symSize: 0x4E0 }
  - { offset: 0x68372, size: 0x8, addend: 0x0, symName: '__ZNSt3__17__sort3B8ne180100INS_17_ClassicAlgPolicyERZN12llama_sbatchC1ERK11llama_batchmbbE3$_0PxEEjT1_S9_S9_T0_', symObjAddr: 0x4010, symBinAddr: 0xF890, symSize: 0x324 }
  - { offset: 0x68800, size: 0x8, addend: 0x0, symName: '__ZNSt3__17__sort4B8ne180100INS_17_ClassicAlgPolicyERZN12llama_sbatchC1ERK11llama_batchmbbE3$_0PxEEvT1_S9_S9_S9_T0_', symObjAddr: 0x4680, symBinAddr: 0xFF00, symSize: 0x23C }
  - { offset: 0x68AE4, size: 0x8, addend: 0x0, symName: '__ZNSt3__124__sort5_maybe_branchlessB8ne180100INS_17_ClassicAlgPolicyERZN12llama_sbatchC1ERK11llama_batchmbbE3$_0PxLi0EEEvT1_S9_S9_S9_S9_T0_', symObjAddr: 0x3D30, symBinAddr: 0xF5B0, symSize: 0x2E0 }
  - { offset: 0x698BD, size: 0x8, addend: 0x0, symName: '__ZNSt3__17__sort4B8ne180100INS_17_ClassicAlgPolicyERZN12llama_sbatchC1ERK11llama_batchmbbE3$_1P16llama_sbatch_seqEEvT1_SA_SA_SA_T0_', symObjAddr: 0x5E90, symBinAddr: 0x11710, symSize: 0x1C0 }
  - { offset: 0x6B809, size: 0x8, addend: 0x0, symName: __ZNSt3__16vectorIN12llama_sbatch11ubatch_dataENS_9allocatorIS2_EEE26__swap_out_circular_bufferERNS_14__split_bufferIS2_RS4_EE, symObjAddr: 0x1E54, symBinAddr: 0xD770, symSize: 0x12C }
  - { offset: 0x6CB76, size: 0x8, addend: 0x0, symName: __ZN12llama_sbatch14reserve_ubatchEmb, symObjAddr: 0x0, symBinAddr: 0xB91C, symSize: 0x554 }
  - { offset: 0x6DF27, size: 0x8, addend: 0x0, symName: __ZNSt3__16vectorIN12llama_sbatch11ubatch_dataENS_9allocatorIS2_EEE21__push_back_slow_pathIS2_EEPS2_OT_, symObjAddr: 0x1C80, symBinAddr: 0xD59C, symSize: 0x1D4 }
  - { offset: 0x6E54C, size: 0x8, addend: 0x0, symName: __ZNSt3__16vectorIiNS_9allocatorIiEEE8__appendEm, symObjAddr: 0x2108, symBinAddr: 0xD988, symSize: 0x1A4 }
  - { offset: 0x6E9AA, size: 0x8, addend: 0x0, symName: __ZNKSt3__16vectorIiNS_9allocatorIiEEE20__throw_length_errorB8ne180100Ev, symObjAddr: 0x22AC, symBinAddr: 0xDB2C, symSize: 0x14 }
  - { offset: 0x6E9B5, size: 0x8, addend: 0x0, symName: __ZNSt3__16vectorIfNS_9allocatorIfEEE8__appendEm, symObjAddr: 0x22C0, symBinAddr: 0xDB40, symSize: 0x1A4 }
  - { offset: 0x6EE13, size: 0x8, addend: 0x0, symName: __ZNKSt3__16vectorIfNS_9allocatorIfEEE20__throw_length_errorB8ne180100Ev, symObjAddr: 0x2464, symBinAddr: 0xDCE4, symSize: 0x14 }
  - { offset: 0x6EE1E, size: 0x8, addend: 0x0, symName: __ZNSt3__16vectorIPiNS_9allocatorIS1_EEE8__appendEm, symObjAddr: 0x2478, symBinAddr: 0xDCF8, symSize: 0x1A8 }
  - { offset: 0x6F28F, size: 0x8, addend: 0x0, symName: __ZNKSt3__16vectorIPiNS_9allocatorIS1_EEE20__throw_length_errorB8ne180100Ev, symObjAddr: 0x2620, symBinAddr: 0xDEA0, symSize: 0x14 }
  - { offset: 0x6F29A, size: 0x8, addend: 0x0, symName: __ZNKSt3__16vectorIaNS_9allocatorIaEEE20__throw_length_errorB8ne180100Ev, symObjAddr: 0x2634, symBinAddr: 0xDEB4, symSize: 0x14 }
  - { offset: 0x6F2C4, size: 0x8, addend: 0x0, symName: __ZNKSt3__16vectorIxNS_9allocatorIxEEE20__throw_length_errorB8ne180100Ev, symObjAddr: 0x2648, symBinAddr: 0xDEC8, symSize: 0x14 }
  - { offset: 0x6F2CF, size: 0x8, addend: 0x0, symName: __ZN12llama_sbatch11ubatch_dataD1Ev, symObjAddr: 0x554, symBinAddr: 0xBE70, symSize: 0x80 }
  - { offset: 0x6FF02, size: 0x8, addend: 0x0, symName: __ZN12llama_sbatch17add_seq_to_ubatchER12llama_ubatchR16llama_sbatch_seqm, symObjAddr: 0x5D4, symBinAddr: 0xBEF0, symSize: 0xA08 }
  - { offset: 0x71185, size: 0x8, addend: 0x0, symName: __ZN12llama_sbatch12split_simpleEm, symObjAddr: 0xFDC, symBinAddr: 0xC8F8, symSize: 0xC8 }
  - { offset: 0x71197, size: 0x8, addend: 0x0, symName: __ZNKSt3__16vectorIxNS_9allocatorIxEEE20__throw_length_errorB8ne180100Ev, symObjAddr: 0x2648, symBinAddr: 0xDEC8, symSize: 0x14 }
  - { offset: 0x711C1, size: 0x8, addend: 0x0, symName: __ZNSt3__16vectorIxNS_9allocatorIxEEE8__appendEm, symObjAddr: 0x265C, symBinAddr: 0xDEDC, symSize: 0x1A4 }
  - { offset: 0x711FD, size: 0x8, addend: 0x0, symName: __ZN12llama_sbatch12split_simpleEm, symObjAddr: 0xFDC, symBinAddr: 0xC8F8, symSize: 0xC8 }
  - { offset: 0x712D0, size: 0x8, addend: 0x0, symName: __ZN12llama_sbatch11split_equalEm, symObjAddr: 0x10A4, symBinAddr: 0xC9C0, symSize: 0x13C }
  - { offset: 0x71307, size: 0x8, addend: 0x0, symName: __ZN12llama_sbatch11split_equalEm, symObjAddr: 0x10A4, symBinAddr: 0xC9C0, symSize: 0x13C }
  - { offset: 0x71451, size: 0x8, addend: 0x0, symName: __ZN12llama_sbatch9split_seqEm, symObjAddr: 0x11E0, symBinAddr: 0xCAFC, symSize: 0xCC }
  - { offset: 0x71464, size: 0x8, addend: 0x0, symName: __ZN12llama_sbatch9split_seqEm, symObjAddr: 0x11E0, symBinAddr: 0xCAFC, symSize: 0xCC }
  - { offset: 0x71553, size: 0x8, addend: 0x0, symName: __ZN12llama_sbatchC2ERK11llama_batchmbb, symObjAddr: 0x12AC, symBinAddr: 0xCBC8, symSize: 0x3FC }
  - { offset: 0x71678, size: 0x8, addend: 0x0, symName: __ZN12llama_sbatchC1ERK11llama_batchmbb, symObjAddr: 0x1710, symBinAddr: 0xD02C, symSize: 0x4 }
  - { offset: 0x7173E, size: 0x8, addend: 0x0, symName: __ZN12llama_sbatchC1ERK11llama_batchmbb, symObjAddr: 0x1710, symBinAddr: 0xD02C, symSize: 0x4 }
  - { offset: 0x71C17, size: 0x8, addend: 0x0, symName: __ZN12llama_sbatchC2ERK11llama_batchmbb, symObjAddr: 0x12AC, symBinAddr: 0xCBC8, symSize: 0x3FC }
  - { offset: 0x728A3, size: 0x8, addend: 0x0, symName: __ZNSt3__16vectorIxNS_9allocatorIxEEE8__appendEm, symObjAddr: 0x265C, symBinAddr: 0xDEDC, symSize: 0x1A4 }
  - { offset: 0x72D01, size: 0x8, addend: 0x0, symName: __ZNSt3__16vectorI16llama_sbatch_seqNS_9allocatorIS1_EEE8__appendEm, symObjAddr: 0x2800, symBinAddr: 0xE080, symSize: 0x124 }
  - { offset: 0x72D0C, size: 0x8, addend: 0x0, symName: __ZNSt3__16vectorI16llama_sbatch_seqNS_9allocatorIS1_EEE8__appendEm, symObjAddr: 0x2800, symBinAddr: 0xE080, symSize: 0x124 }
  - { offset: 0x731B2, size: 0x8, addend: 0x0, symName: __ZNKSt3__16vectorI16llama_sbatch_seqNS_9allocatorIS1_EEE20__throw_length_errorB8ne180100Ev, symObjAddr: 0x2924, symBinAddr: 0xE1A4, symSize: 0x14 }
  - { offset: 0x731BD, size: 0x8, addend: 0x0, symName: __ZNKSt3__16vectorI16llama_sbatch_seqNS_9allocatorIS1_EEE20__throw_length_errorB8ne180100Ev, symObjAddr: 0x2924, symBinAddr: 0xE1A4, symSize: 0x14 }
  - { offset: 0x731E7, size: 0x8, addend: 0x0, symName: '__ZNSt3__111__introsortINS_17_ClassicAlgPolicyERZN12llama_sbatchC1ERK11llama_batchmbbE3$_0PxLb0EEEvT1_S9_T0_NS_15iterator_traitsIS9_E15difference_typeEb', symObjAddr: 0x2938, symBinAddr: 0xE1B8, symSize: 0x13F8 }
  - { offset: 0x731F2, size: 0x8, addend: 0x0, symName: __ZNSt3__16vectorIN12llama_sbatch11ubatch_dataENS_9allocatorIS2_EEED1B8ne180100Ev, symObjAddr: 0x16A8, symBinAddr: 0xCFC4, symSize: 0x68 }
  - { offset: 0x73460, size: 0x8, addend: 0x0, symName: __ZNSt3__19allocatorIN12llama_sbatch11ubatch_dataEE7destroyB8ne180100EPS2_, symObjAddr: 0x2084, symBinAddr: 0xD904, symSize: 0x84 }
  - { offset: 0x73CF3, size: 0x8, addend: 0x0, symName: __ZN18llama_batch_allocrC2E11llama_batchi, symObjAddr: 0x1714, symBinAddr: 0xD030, symSize: 0x3F0 }
  - { offset: 0x745D0, size: 0x8, addend: 0x0, symName: __ZN18llama_batch_allocrC2E11llama_batchi.cold.1, symObjAddr: 0x6050, symBinAddr: 0x1C9124, symSize: 0x68 }
  - { offset: 0x747D8, size: 0x8, addend: 0x0, symName: __ZN18llama_batch_allocrC1E11llama_batchi, symObjAddr: 0x1B04, symBinAddr: 0xD420, symSize: 0x4 }
  - { offset: 0x74826, size: 0x8, addend: 0x0, symName: __ZN18llama_batch_allocrC1E11llama_batchi, symObjAddr: 0x1B04, symBinAddr: 0xD420, symSize: 0x4 }
  - { offset: 0x74847, size: 0x8, addend: 0x0, symName: _llama_batch_get_one, symObjAddr: 0x1B08, symBinAddr: 0xD424, symSize: 0x1C }
  - { offset: 0x74881, size: 0x8, addend: 0x0, symName: _llama_batch_init, symObjAddr: 0x1B24, symBinAddr: 0xD440, symSize: 0xCC }
  - { offset: 0x74993, size: 0x8, addend: 0x0, symName: _llama_batch_free, symObjAddr: 0x1BF0, symBinAddr: 0xD50C, symSize: 0x90 }
  - { offset: 0x74D04, size: 0x8, addend: 0x0, symName: __ZNKSt3__16vectorIN12llama_sbatch11ubatch_dataENS_9allocatorIS2_EEE20__throw_length_errorB8ne180100Ev, symObjAddr: 0x1FD4, symBinAddr: 0xD8F0, symSize: 0x14 }
  - { offset: 0x74D39, size: 0x8, addend: 0x0, symName: __ZNSt3__114__split_bufferIN12llama_sbatch11ubatch_dataERNS_9allocatorIS2_EEED1Ev, symObjAddr: 0x1F80, symBinAddr: 0xD89C, symSize: 0x54 }
  - { offset: 0x75289, size: 0x8, addend: 0x0, symName: __ZNKSt3__16vectorIiNS_9allocatorIiEEE20__throw_length_errorB8ne180100Ev, symObjAddr: 0x22AC, symBinAddr: 0xDB2C, symSize: 0x14 }
  - { offset: 0x752B3, size: 0x8, addend: 0x0, symName: __ZNSt3__16vectorIfNS_9allocatorIfEEE8__appendEm, symObjAddr: 0x22C0, symBinAddr: 0xDB40, symSize: 0x1A4 }
  - { offset: 0x755BB, size: 0x8, addend: 0x0, symName: __ZNKSt3__16vectorIfNS_9allocatorIfEEE20__throw_length_errorB8ne180100Ev, symObjAddr: 0x2464, symBinAddr: 0xDCE4, symSize: 0x14 }
  - { offset: 0x755E5, size: 0x8, addend: 0x0, symName: __ZNSt3__16vectorIPiNS_9allocatorIS1_EEE8__appendEm, symObjAddr: 0x2478, symBinAddr: 0xDCF8, symSize: 0x1A8 }
  - { offset: 0x758ED, size: 0x8, addend: 0x0, symName: __ZNKSt3__16vectorIPiNS_9allocatorIS1_EEE20__throw_length_errorB8ne180100Ev, symObjAddr: 0x2620, symBinAddr: 0xDEA0, symSize: 0x14 }
  - { offset: 0x75917, size: 0x8, addend: 0x0, symName: __ZNKSt3__16vectorIaNS_9allocatorIaEEE20__throw_length_errorB8ne180100Ev, symObjAddr: 0x2634, symBinAddr: 0xDEB4, symSize: 0x14 }
  - { offset: 0x77BF1, size: 0x8, addend: 0x0, symName: __ZL18LLM_CHAT_TEMPLATES, symObjAddr: 0x95910, symBinAddr: 0x2938E8, symSize: 0x0 }
  - { offset: 0x7E771, size: 0x8, addend: 0x0, symName: __ZNSt3__124__put_character_sequenceB8ne180100IcNS_11char_traitsIcEEEERNS_13basic_ostreamIT_T0_EES7_PKS4_m, symObjAddr: 0x5124, symBinAddr: 0x165E4, symSize: 0x164 }
  - { offset: 0x8080A, size: 0x8, addend: 0x0, symName: __ZNSt3__1eqB8ne180100IcNS_11char_traitsIcEENS_9allocatorIcEEEEbRKNS_12basic_stringIT_T0_T1_EEPKS6_, symObjAddr: 0x4508, symBinAddr: 0x15D28, symSize: 0x98 }
  - { offset: 0x81348, size: 0x8, addend: 0x0, symName: __ZNSt3__116__pad_and_outputB8ne180100IcNS_11char_traitsIcEEEENS_19ostreambuf_iteratorIT_T0_EES6_PKS4_S8_S8_RNS_8ios_baseES4_, symObjAddr: 0x5288, symBinAddr: 0x16748, symSize: 0x1A4 }
  - { offset: 0x83101, size: 0x8, addend: 0x0, symName: __ZNSt3__13mapINS_12basic_stringIcNS_11char_traitsIcEENS_9allocatorIcEEEE17llm_chat_templateNS_4lessIS6_EENS4_INS_4pairIKS6_S7_EEEEED1B8ne180100Ev, symObjAddr: 0x0, symBinAddr: 0x118D0, symSize: 0x28 }
  - { offset: 0x831B5, size: 0x8, addend: 0x0, symName: __ZNSt3__16__treeINS_12__value_typeINS_12basic_stringIcNS_11char_traitsIcEENS_9allocatorIcEEEE17llm_chat_templateEENS_19__map_value_compareIS7_S9_NS_4lessIS7_EELb1EEENS5_IS9_EEE7destroyEPNS_11__tree_nodeIS9_PvEE, symObjAddr: 0x5038, symBinAddr: 0x16584, symSize: 0x60 }
  - { offset: 0x8369E, size: 0x8, addend: 0x0, symName: __Z26llm_chat_template_from_strRKNSt3__112basic_stringIcNS_11char_traitsIcEENS_9allocatorIcEEEE, symObjAddr: 0x28, symBinAddr: 0x118F8, symSize: 0xF0 }
  - { offset: 0x83996, size: 0x8, addend: 0x0, symName: __Z24llm_chat_detect_templateRKNSt3__112basic_stringIcNS_11char_traitsIcEENS_9allocatorIcEEEE, symObjAddr: 0x118, symBinAddr: 0x119E8, symSize: 0x6A8 }
  - { offset: 0x83E99, size: 0x8, addend: 0x0, symName: '__ZZ24llm_chat_detect_templateRKNSt3__112basic_stringIcNS_11char_traitsIcEENS_9allocatorIcEEEEENK3$_0clEPKc', symObjAddr: 0x7C0, symBinAddr: 0x12090, symSize: 0xDC }
  - { offset: 0x840F0, size: 0x8, addend: 0x0, symName: __ZNKSt3__112basic_stringIcNS_11char_traitsIcEENS_9allocatorIcEEE4findB8ne180100EPKcm, symObjAddr: 0x89C, symBinAddr: 0x1216C, symSize: 0xF4 }
  - { offset: 0x84ABA, size: 0x8, addend: 0x0, symName: __Z23llm_chat_apply_template17llm_chat_templateRKNSt3__16vectorIPK18llama_chat_messageNS0_9allocatorIS4_EEEERNS0_12basic_stringIcNS0_11char_traitsIcEENS5_IcEEEEb, symObjAddr: 0x990, symBinAddr: 0x12260, symSize: 0x3990 }
  - { offset: 0x93CE7, size: 0x8, addend: 0x0, symName: __ZNSt3__118basic_stringstreamIcNS_11char_traitsIcEENS_9allocatorIcEEEC1B8ne180100Ev, symObjAddr: 0x4320, symBinAddr: 0x15BF0, symSize: 0x138 }
  - { offset: 0x93DF4, size: 0x8, addend: 0x0, symName: __ZL4trimRKNSt3__112basic_stringIcNS_11char_traitsIcEENS_9allocatorIcEEEE, symObjAddr: 0x45A0, symBinAddr: 0x15DC0, symSize: 0x1B8 }
  - { offset: 0x94336, size: 0x8, addend: 0x0, symName: __ZNSt3__118basic_stringstreamIcNS_11char_traitsIcEENS_9allocatorIcEEED1Ev, symObjAddr: 0x4758, symBinAddr: 0x15F78, symSize: 0x88 }
  - { offset: 0x9455D, size: 0x8, addend: 0x0, symName: __ZNSt3__124__put_character_sequenceB8ne180100IcNS_11char_traitsIcEEEERNS_13basic_ostreamIT_T0_EES7_PKS4_m, symObjAddr: 0x5124, symBinAddr: 0x165E4, symSize: 0x164 }
  - { offset: 0x947E9, size: 0x8, addend: 0x0, symName: __ZNSt3__1eqB8ne180100IcNS_11char_traitsIcEENS_9allocatorIcEEEEbRKNS_12basic_stringIT_T0_T1_EEPKS6_, symObjAddr: 0x4508, symBinAddr: 0x15D28, symSize: 0x98 }
  - { offset: 0x9481D, size: 0x8, addend: 0x0, symName: __ZNSt3__118basic_stringstreamIcNS_11char_traitsIcEENS_9allocatorIcEEED1Ev, symObjAddr: 0x4758, symBinAddr: 0x15F78, symSize: 0x88 }
  - { offset: 0x94CF3, size: 0x8, addend: 0x0, symName: _llama_chat_builtin_templates, symObjAddr: 0x47E0, symBinAddr: 0x16000, symSize: 0x90 }
  - { offset: 0x9520A, size: 0x8, addend: 0x0, symName: __ZNSt3__16__treeINS_12__value_typeINS_12basic_stringIcNS_11char_traitsIcEENS_9allocatorIcEEEE17llm_chat_templateEENS_19__map_value_compareIS7_S9_NS_4lessIS7_EELb1EEENS5_IS9_EEE30__emplace_hint_unique_key_argsIS7_JRKNS_4pairIKS7_S8_EEEEENSH_INS_15__tree_iteratorIS9_PNS_11__tree_nodeIS9_PvEElEEbEENS_21__tree_const_iteratorIS9_SQ_lEERKT_DpOT0_, symObjAddr: 0x4990, symBinAddr: 0x16090, symSize: 0xFC }
  - { offset: 0x95668, size: 0x8, addend: 0x0, symName: __ZNSt3__16__treeINS_12__value_typeINS_12basic_stringIcNS_11char_traitsIcEENS_9allocatorIcEEEE17llm_chat_templateEENS_19__map_value_compareIS7_S9_NS_4lessIS7_EELb1EEENS5_IS9_EEE12__find_equalIS7_EERPNS_16__tree_node_baseIPvEENS_21__tree_const_iteratorIS9_PNS_11__tree_nodeIS9_SI_EElEERPNS_15__tree_end_nodeISK_EESL_RKT_, symObjAddr: 0x4A8C, symBinAddr: 0x1618C, symSize: 0x3F8 }
  - { offset: 0x98641, size: 0x8, addend: 0x0, symName: __ZNSt3__119piecewise_constructE, symObjAddr: 0xBE88, symBinAddr: 0x1EE388, symSize: 0x0 }
  - { offset: 0xC2B83, size: 0x8, addend: 0x0, symName: __ZNK13llama_context12graph_get_cbEv, symObjAddr: 0x5958, symBinAddr: 0x1D280, symSize: 0x14 }
  - { offset: 0xC2BDE, size: 0x8, addend: 0x0, symName: __ZNK13llama_context12graph_get_cbEv, symObjAddr: 0x5958, symBinAddr: 0x1D280, symSize: 0x14 }
  - { offset: 0xC2C01, size: 0x8, addend: 0x0, symName: __ZNK13llama_context12graph_get_cbEv, symObjAddr: 0x5958, symBinAddr: 0x1D280, symSize: 0x14 }
  - { offset: 0xC2C24, size: 0x8, addend: 0x0, symName: __ZNK13llama_context12graph_get_cbEv, symObjAddr: 0x5958, symBinAddr: 0x1D280, symSize: 0x14 }
  - { offset: 0xC2C40, size: 0x8, addend: 0x0, symName: __ZNK13llama_context12graph_get_cbEv, symObjAddr: 0x5958, symBinAddr: 0x1D280, symSize: 0x14 }
  - { offset: 0xC2C5C, size: 0x8, addend: 0x0, symName: __ZNK13llama_context12graph_get_cbEv, symObjAddr: 0x5958, symBinAddr: 0x1D280, symSize: 0x14 }
  - { offset: 0xC2C78, size: 0x8, addend: 0x0, symName: __ZNK13llama_context12graph_get_cbEv, symObjAddr: 0x5958, symBinAddr: 0x1D280, symSize: 0x14 }
  - { offset: 0xC2C94, size: 0x8, addend: 0x0, symName: __ZNK13llama_context12graph_get_cbEv, symObjAddr: 0x5958, symBinAddr: 0x1D280, symSize: 0x14 }
  - { offset: 0xC4EC3, size: 0x8, addend: 0x0, symName: __ZN13llama_contextC2ERK11llama_model20llama_context_params, symObjAddr: 0x0, symBinAddr: 0x179A0, symSize: 0x15E0 }
  - { offset: 0xC8674, size: 0x8, addend: 0x0, symName: __ZNSt3__16vectorINS_10unique_ptrI12ggml_backend20ggml_backend_deleterEENS_9allocatorIS4_EEE24__emplace_back_slow_pathIJRPS2_EEEPS4_DpOT_, symObjAddr: 0x9E48, symBinAddr: 0x216EC, symSize: 0x1BC }
  - { offset: 0xC8CBA, size: 0x8, addend: 0x0, symName: __ZN13llama_context14output_reserveEi, symObjAddr: 0x1684, symBinAddr: 0x19024, symSize: 0x218 }
  - { offset: 0xC9151, size: 0x8, addend: 0x0, symName: __ZN13llama_context13graph_reserveEjjjPK20llama_memory_state_i, symObjAddr: 0x18C4, symBinAddr: 0x19264, symSize: 0x304 }
  - { offset: 0xC9871, size: 0x8, addend: 0x0, symName: __ZNKSt3__16vectorINS_4pairIP12ggml_backendPFvS3_iEEENS_9allocatorIS6_EEE20__throw_length_errorB8ne180100Ev, symObjAddr: 0xA0B4, symBinAddr: 0x218BC, symSize: 0x14 }
  - { offset: 0xC98BE, size: 0x8, addend: 0x0, symName: __ZNKSt3__16vectorIP12ggml_backendNS_9allocatorIS2_EEE20__throw_length_errorB8ne180100Ev, symObjAddr: 0xA0DC, symBinAddr: 0x218D0, symSize: 0x14 }
  - { offset: 0xC98C9, size: 0x8, addend: 0x0, symName: __ZNKSt3__16vectorIP12ggml_backendNS_9allocatorIS2_EEE20__throw_length_errorB8ne180100Ev, symObjAddr: 0xA0DC, symBinAddr: 0x218D0, symSize: 0x14 }
  - { offset: 0xC9916, size: 0x8, addend: 0x0, symName: __ZNSt3__112__hash_tableINS_17__hash_value_typeIP18llama_adapter_lorafEENS_22__unordered_map_hasherIS3_S4_NS_4hashIS3_EENS_8equal_toIS3_EELb1EEENS_21__unordered_map_equalIS3_S4_S9_S7_Lb1EEENS_9allocatorIS4_EEE25__emplace_unique_key_argsIS3_JRKNS_21piecewise_construct_tENS_5tupleIJRKS3_EEENSK_IJEEEEEENS_4pairINS_15__hash_iteratorIPNS_11__hash_nodeIS4_PvEEEEbEERKT_DpOT0_, symObjAddr: 0xA104, symBinAddr: 0x218E4, symSize: 0x360 }
  - { offset: 0xC99E5, size: 0x8, addend: 0x0, symName: __ZNSt3__16vectorINS_10unique_ptrI12ggml_backend20ggml_backend_deleterEENS_9allocatorIS4_EEED1B8ne180100Ev, symObjAddr: 0x1C30, symBinAddr: 0x19568, symSize: 0x70 }
  - { offset: 0xC9BCE, size: 0x8, addend: 0x0, symName: __ZNSt3__110unique_ptrI18ggml_backend_sched26ggml_backend_sched_deleterED1B8ne180100Ev, symObjAddr: 0x1CA0, symBinAddr: 0x195D8, symSize: 0x34 }
  - { offset: 0xC9C62, size: 0x8, addend: 0x0, symName: __ZNSt3__16__treeINS_12__value_typeIiNS_6vectorIfNS_9allocatorIfEEEEEENS_19__map_value_compareIiS6_NS_4lessIiEELb1EEENS3_IS6_EEE7destroyEPNS_11__tree_nodeIS6_PvEE, symObjAddr: 0x9DF8, symBinAddr: 0x2169C, symSize: 0x50 }
  - { offset: 0xC9F44, size: 0x8, addend: 0x0, symName: __ZN11llama_crossD1Ev, symObjAddr: 0x1CD4, symBinAddr: 0x1960C, symSize: 0x78 }
  - { offset: 0xCA2C1, size: 0x8, addend: 0x0, symName: __ZNSt3__113unordered_mapIP18llama_adapter_lorafNS_4hashIS2_EENS_8equal_toIS2_EENS_9allocatorINS_4pairIKS2_fEEEEED1B8ne180100Ev, symObjAddr: 0x1D4C, symBinAddr: 0x19684, symSize: 0x48 }
  - { offset: 0xCA596, size: 0x8, addend: 0x0, symName: __ZN18llama_adapter_cvecD2Ev, symObjAddr: 0x9578, symBinAddr: 0x20EA0, symSize: 0xC8 }
  - { offset: 0xCAAA8, size: 0x8, addend: 0x0, symName: _llama_set_abort_callback, symObjAddr: 0x15E0, symBinAddr: 0x18F80, symSize: 0xA4 }
  - { offset: 0xCB00F, size: 0x8, addend: 0x0, symName: __ZNK13llama_context15graph_max_nodesEv, symObjAddr: 0x189C, symBinAddr: 0x1923C, symSize: 0x28 }
  - { offset: 0xCB90F, size: 0x8, addend: 0x0, symName: __ZNSt3__16__treeIiNS_4lessIiEENS_9allocatorIiEEE7destroyEPNS_11__tree_nodeIiPvEE, symObjAddr: 0x9538, symBinAddr: 0x20E60, symSize: 0x40 }
  - { offset: 0xCBC29, size: 0x8, addend: 0x0, symName: __ZN13llama_contextC1ERK11llama_model20llama_context_params, symObjAddr: 0x1D94, symBinAddr: 0x196CC, symSize: 0x4 }
  - { offset: 0xCBC5B, size: 0x8, addend: 0x0, symName: __ZN13llama_contextC1ERK11llama_model20llama_context_params, symObjAddr: 0x1D94, symBinAddr: 0x196CC, symSize: 0x4 }
  - { offset: 0xCBD1A, size: 0x8, addend: 0x0, symName: __ZN13llama_contextD2Ev, symObjAddr: 0x1D98, symBinAddr: 0x196D0, symSize: 0x1AC }
  - { offset: 0xCCEA6, size: 0x8, addend: 0x0, symName: __ZN13llama_contextD1Ev, symObjAddr: 0x1F54, symBinAddr: 0x1987C, symSize: 0x4 }
  - { offset: 0xCCEC9, size: 0x8, addend: 0x0, symName: __ZN13llama_contextD1Ev, symObjAddr: 0x1F54, symBinAddr: 0x1987C, symSize: 0x4 }
  - { offset: 0xCCEDC, size: 0x8, addend: 0x0, symName: __ZN13llama_context11synchronizeEv, symObjAddr: 0x1F58, symBinAddr: 0x19880, symSize: 0xF4 }
  - { offset: 0xCCF71, size: 0x8, addend: 0x0, symName: __ZNK13llama_context9get_modelEv, symObjAddr: 0x204C, symBinAddr: 0x19974, symSize: 0x8 }
  - { offset: 0xCCF93, size: 0x8, addend: 0x0, symName: __ZNK13llama_context11get_cparamsEv, symObjAddr: 0x2054, symBinAddr: 0x1997C, symSize: 0x8 }
  - { offset: 0xCCFBD, size: 0x8, addend: 0x0, symName: __ZNK13llama_context9get_schedEv, symObjAddr: 0x205C, symBinAddr: 0x19984, symSize: 0x8 }
  - { offset: 0xCCFE9, size: 0x8, addend: 0x0, symName: __ZNK13llama_context9get_schedEv, symObjAddr: 0x205C, symBinAddr: 0x19984, symSize: 0x8 }
  - { offset: 0xCD007, size: 0x8, addend: 0x0, symName: __ZNK13llama_context15get_ctx_computeEv, symObjAddr: 0x2064, symBinAddr: 0x1998C, symSize: 0x8 }
  - { offset: 0xCD033, size: 0x8, addend: 0x0, symName: __ZNK13llama_context15get_ctx_computeEv, symObjAddr: 0x2064, symBinAddr: 0x1998C, symSize: 0x8 }
  - { offset: 0xCD051, size: 0x8, addend: 0x0, symName: __ZNK13llama_context5n_ctxEv, symObjAddr: 0x206C, symBinAddr: 0x19994, symSize: 0x8 }
  - { offset: 0xCD073, size: 0x8, addend: 0x0, symName: __ZNK13llama_context13n_ctx_per_seqEv, symObjAddr: 0x2074, symBinAddr: 0x1999C, symSize: 0x10 }
  - { offset: 0xCD09D, size: 0x8, addend: 0x0, symName: __ZNK13llama_context7n_batchEv, symObjAddr: 0x2084, symBinAddr: 0x199AC, symSize: 0x8 }
  - { offset: 0xCD0BF, size: 0x8, addend: 0x0, symName: __ZNK13llama_context8n_ubatchEv, symObjAddr: 0x208C, symBinAddr: 0x199B4, symSize: 0x8 }
  - { offset: 0xCD0E1, size: 0x8, addend: 0x0, symName: __ZNK13llama_context9n_seq_maxEv, symObjAddr: 0x2094, symBinAddr: 0x199BC, symSize: 0x8 }
  - { offset: 0xCD103, size: 0x8, addend: 0x0, symName: __ZNK13llama_context9n_threadsEv, symObjAddr: 0x209C, symBinAddr: 0x199C4, symSize: 0x8 }
  - { offset: 0xCD125, size: 0x8, addend: 0x0, symName: __ZNK13llama_context15n_threads_batchEv, symObjAddr: 0x20A4, symBinAddr: 0x199CC, symSize: 0x8 }
  - { offset: 0xCD15D, size: 0x8, addend: 0x0, symName: __ZNK13llama_context10get_memoryEv, symObjAddr: 0x20AC, symBinAddr: 0x199D4, symSize: 0x8 }
  - { offset: 0xCD181, size: 0x8, addend: 0x0, symName: __ZNK13llama_context10get_memoryEv, symObjAddr: 0x20AC, symBinAddr: 0x199D4, symSize: 0x8 }
  - { offset: 0xCD19F, size: 0x8, addend: 0x0, symName: __ZN13llama_context20kv_self_defrag_schedEv, symObjAddr: 0x20B4, symBinAddr: 0x199DC, symSize: 0x14 }
  - { offset: 0xCD1C1, size: 0x8, addend: 0x0, symName: __ZN13llama_context20kv_self_defrag_schedEv, symObjAddr: 0x20B4, symBinAddr: 0x199DC, symSize: 0x14 }
  - { offset: 0xCD1F5, size: 0x8, addend: 0x0, symName: __ZN13llama_context14kv_self_updateEb, symObjAddr: 0x20C8, symBinAddr: 0x199F0, symSize: 0x1EC }
  - { offset: 0xCD5AE, size: 0x8, addend: 0x0, symName: __ZNK13llama_context12pooling_typeEv, symObjAddr: 0x22B4, symBinAddr: 0x19BDC, symSize: 0x8 }
  - { offset: 0xCD5D0, size: 0x8, addend: 0x0, symName: __ZN13llama_context10get_logitsEv, symObjAddr: 0x22BC, symBinAddr: 0x19BE4, symSize: 0x8 }
  - { offset: 0xCD608, size: 0x8, addend: 0x0, symName: __ZN13llama_context14get_logits_ithEi, symObjAddr: 0x22C4, symBinAddr: 0x19BEC, symSize: 0x31C }
  - { offset: 0xCD929, size: 0x8, addend: 0x0, symName: __ZN13llama_context14get_embeddingsEv, symObjAddr: 0x25E0, symBinAddr: 0x19F08, symSize: 0x8 }
  - { offset: 0xCD94B, size: 0x8, addend: 0x0, symName: __ZN13llama_context18get_embeddings_ithEi, symObjAddr: 0x25E8, symBinAddr: 0x19F10, symSize: 0x31C }
  - { offset: 0xCDDB6, size: 0x8, addend: 0x0, symName: __ZN13llama_context18get_embeddings_seqEi, symObjAddr: 0x2904, symBinAddr: 0x1A22C, symSize: 0x50 }
  - { offset: 0xCDDEA, size: 0x8, addend: 0x0, symName: __ZN13llama_context18get_embeddings_seqEi, symObjAddr: 0x2904, symBinAddr: 0x1A22C, symSize: 0x50 }
  - { offset: 0xCDE09, size: 0x8, addend: 0x0, symName: __ZN13llama_context18get_embeddings_seqEi, symObjAddr: 0x2904, symBinAddr: 0x1A22C, symSize: 0x50 }
  - { offset: 0xCDE31, size: 0x8, addend: 0x0, symName: __ZN13llama_context18get_embeddings_seqEi, symObjAddr: 0x2904, symBinAddr: 0x1A22C, symSize: 0x50 }
  - { offset: 0xCDF1C, size: 0x8, addend: 0x0, symName: __ZN13llama_context17attach_threadpoolEP15ggml_threadpoolS1_, symObjAddr: 0x2954, symBinAddr: 0x1A27C, symSize: 0x5C }
  - { offset: 0xCDF63, size: 0x8, addend: 0x0, symName: __ZN13llama_context17detach_threadpoolEv, symObjAddr: 0x29B0, symBinAddr: 0x1A2D8, symSize: 0x44 }
  - { offset: 0xCDF98, size: 0x8, addend: 0x0, symName: __ZN13llama_context13set_n_threadsEii, symObjAddr: 0x29F4, symBinAddr: 0x1A31C, symSize: 0x58 }
  - { offset: 0xCDFDF, size: 0x8, addend: 0x0, symName: __ZN13llama_context18set_abort_callbackEPFbPvES0_, symObjAddr: 0x2A4C, symBinAddr: 0x1A374, symSize: 0xA4 }
  - { offset: 0xCE135, size: 0x8, addend: 0x0, symName: __ZN13llama_context14set_embeddingsEb, symObjAddr: 0x2AF0, symBinAddr: 0x1A418, symSize: 0x4C }
  - { offset: 0xCE170, size: 0x8, addend: 0x0, symName: __ZN13llama_context15set_causal_attnEb, symObjAddr: 0x2B3C, symBinAddr: 0x1A464, symSize: 0x4C }
  - { offset: 0xCE1AB, size: 0x8, addend: 0x0, symName: __ZN13llama_context10set_warmupEb, symObjAddr: 0x2B88, symBinAddr: 0x1A4B0, symSize: 0x4C }
  - { offset: 0xCE20A, size: 0x8, addend: 0x0, symName: __ZN13llama_context16set_adapter_loraEP18llama_adapter_loraf, symObjAddr: 0x2BD4, symBinAddr: 0x1A4FC, symSize: 0x80 }
  - { offset: 0xCE2AD, size: 0x8, addend: 0x0, symName: __ZNSt3__112__hash_tableINS_17__hash_value_typeIP18llama_adapter_lorafEENS_22__unordered_map_hasherIS3_S4_NS_4hashIS3_EENS_8equal_toIS3_EELb1EEENS_21__unordered_map_equalIS3_S4_S9_S7_Lb1EEENS_9allocatorIS4_EEE25__emplace_unique_key_argsIS3_JRKNS_21piecewise_construct_tENS_5tupleIJRKS3_EEENSK_IJEEEEEENS_4pairINS_15__hash_iteratorIPNS_11__hash_nodeIS4_PvEEEEbEERKT_DpOT0_, symObjAddr: 0xA104, symBinAddr: 0x218E4, symSize: 0x360 }
  - { offset: 0xCEC0F, size: 0x8, addend: 0x0, symName: __ZN13llama_context15rm_adapter_loraEP18llama_adapter_lora, symObjAddr: 0x2C54, symBinAddr: 0x1A57C, symSize: 0x84 }
  - { offset: 0xCEE93, size: 0x8, addend: 0x0, symName: __ZNSt3__112__hash_tableINS_17__hash_value_typeIP18llama_adapter_lorafEENS_22__unordered_map_hasherIS3_S4_NS_4hashIS3_EENS_8equal_toIS3_EELb1EEENS_21__unordered_map_equalIS3_S4_S9_S7_Lb1EEENS_9allocatorIS4_EEE4findIS3_EENS_15__hash_iteratorIPNS_11__hash_nodeIS4_PvEEEERKT_, symObjAddr: 0xA610, symBinAddr: 0x21DF0, symSize: 0x114 }
  - { offset: 0xCEEEF, size: 0x8, addend: 0x0, symName: __ZNSt3__112__hash_tableINS_17__hash_value_typeIP18llama_adapter_lorafEENS_22__unordered_map_hasherIS3_S4_NS_4hashIS3_EENS_8equal_toIS3_EELb1EEENS_21__unordered_map_equalIS3_S4_S9_S7_Lb1EEENS_9allocatorIS4_EEE4findIS3_EENS_15__hash_iteratorIPNS_11__hash_nodeIS4_PvEEEERKT_, symObjAddr: 0xA610, symBinAddr: 0x21DF0, symSize: 0x114 }
  - { offset: 0xCEF0B, size: 0x8, addend: 0x0, symName: __ZNSt3__112__hash_tableINS_17__hash_value_typeIP18llama_adapter_lorafEENS_22__unordered_map_hasherIS3_S4_NS_4hashIS3_EENS_8equal_toIS3_EELb1EEENS_21__unordered_map_equalIS3_S4_S9_S7_Lb1EEENS_9allocatorIS4_EEE4findIS3_EENS_15__hash_iteratorIPNS_11__hash_nodeIS4_PvEEEERKT_, symObjAddr: 0xA610, symBinAddr: 0x21DF0, symSize: 0x114 }
  - { offset: 0xCF007, size: 0x8, addend: 0x0, symName: __ZNSt3__112__hash_tableINS_17__hash_value_typeIP18llama_adapter_lorafEENS_22__unordered_map_hasherIS3_S4_NS_4hashIS3_EENS_8equal_toIS3_EELb1EEENS_21__unordered_map_equalIS3_S4_S9_S7_Lb1EEENS_9allocatorIS4_EEE6removeENS_21__hash_const_iteratorIPNS_11__hash_nodeIS4_PvEEEE, symObjAddr: 0xA724, symBinAddr: 0x21F04, symSize: 0x134 }
  - { offset: 0xCF081, size: 0x8, addend: 0x0, symName: __ZNSt3__112__hash_tableINS_17__hash_value_typeIP18llama_adapter_lorafEENS_22__unordered_map_hasherIS3_S4_NS_4hashIS3_EENS_8equal_toIS3_EELb1EEENS_21__unordered_map_equalIS3_S4_S9_S7_Lb1EEENS_9allocatorIS4_EEE6removeENS_21__hash_const_iteratorIPNS_11__hash_nodeIS4_PvEEEE, symObjAddr: 0xA724, symBinAddr: 0x21F04, symSize: 0x134 }
  - { offset: 0xCF09D, size: 0x8, addend: 0x0, symName: __ZNSt3__112__hash_tableINS_17__hash_value_typeIP18llama_adapter_lorafEENS_22__unordered_map_hasherIS3_S4_NS_4hashIS3_EENS_8equal_toIS3_EELb1EEENS_21__unordered_map_equalIS3_S4_S9_S7_Lb1EEENS_9allocatorIS4_EEE6removeENS_21__hash_const_iteratorIPNS_11__hash_nodeIS4_PvEEEE, symObjAddr: 0xA724, symBinAddr: 0x21F04, symSize: 0x134 }
  - { offset: 0xCF383, size: 0x8, addend: 0x0, symName: __ZN13llama_context18clear_adapter_loraEv, symObjAddr: 0x2CD8, symBinAddr: 0x1A600, symSize: 0x88 }
  - { offset: 0xCF5C1, size: 0x8, addend: 0x0, symName: __ZN13llama_context18apply_adapter_cvecEPKfmiii, symObjAddr: 0x2D60, symBinAddr: 0x1A688, symSize: 0x84 }
  - { offset: 0xCF862, size: 0x8, addend: 0x0, symName: __ZN13llama_context14process_ubatchERK12llama_ubatch14llm_graph_typeP20llama_memory_state_iR11ggml_status, symObjAddr: 0x2DE4, symBinAddr: 0x1A70C, symSize: 0x394 }
  - { offset: 0xCFF99, size: 0x8, addend: 0x0, symName: __ZN13llama_context13graph_computeEP11ggml_cgraphb, symObjAddr: 0x331C, symBinAddr: 0x1AC44, symSize: 0xE0 }
  - { offset: 0xD015A, size: 0x8, addend: 0x0, symName: __ZN13llama_context10graph_initEv, symObjAddr: 0x3178, symBinAddr: 0x1AAA0, symSize: 0x84 }
  - { offset: 0xD025E, size: 0x8, addend: 0x0, symName: __ZN13llama_context11graph_buildEP12ggml_contextP11ggml_cgraphRK12llama_ubatch14llm_graph_typePK20llama_memory_state_i, symObjAddr: 0x31FC, symBinAddr: 0x1AB24, symSize: 0x120 }
  - { offset: 0xD12E9, size: 0x8, addend: 0x0, symName: __ZN13llama_context6encodeER11llama_batch, symObjAddr: 0x33FC, symBinAddr: 0x1AD24, symSize: 0xC54 }
  - { offset: 0xD3ACA, size: 0x8, addend: 0x0, symName: __ZNSt3__16vectorINS_3setIiNS_4lessIiEENS_9allocatorIiEEEENS4_IS6_EEE8__appendEm, symObjAddr: 0xABC4, symBinAddr: 0x22038, symSize: 0x200 }
  - { offset: 0xD423F, size: 0x8, addend: 0x0, symName: __ZNKSt3__16vectorINS_3setIiNS_4lessIiEENS_9allocatorIiEEEENS4_IS6_EEE20__throw_length_errorB8ne180100Ev, symObjAddr: 0xADC4, symBinAddr: 0x22238, symSize: 0x14 }
  - { offset: 0xD46BF, size: 0x8, addend: 0x0, symName: __ZN12llama_sbatchD1Ev, symObjAddr: 0x4050, symBinAddr: 0x1B978, symSize: 0x98 }
  - { offset: 0xD4BE4, size: 0x8, addend: 0x0, symName: __ZN18llama_batch_allocrD1Ev, symObjAddr: 0x40E8, symBinAddr: 0x1BA10, symSize: 0x60 }
  - { offset: 0xD518E, size: 0x8, addend: 0x0, symName: __ZN13llama_context6decodeER11llama_batch, symObjAddr: 0x4148, symBinAddr: 0x1BA70, symSize: 0x1810 }
  - { offset: 0xD7625, size: 0x8, addend: 0x0, symName: __ZN13llama_context14state_get_sizeEv, symObjAddr: 0x596C, symBinAddr: 0x1D294, symSize: 0xA0 }
  - { offset: 0xD76E8, size: 0x8, addend: 0x0, symName: __ZN13llama_context16state_write_dataER16llama_io_write_i, symObjAddr: 0x5A0C, symBinAddr: 0x1D334, symSize: 0x388 }
  - { offset: 0xD8468, size: 0x8, addend: 0x0, symName: __ZN20llama_io_write_dummyD1Ev, symObjAddr: 0x5D94, symBinAddr: 0x1D6BC, symSize: 0x4 }
  - { offset: 0xD85DF, size: 0x8, addend: 0x0, symName: __ZN13llama_context14state_get_dataEPhm, symObjAddr: 0x5D98, symBinAddr: 0x1D6C0, symSize: 0xA4 }
  - { offset: 0xD86E0, size: 0x8, addend: 0x0, symName: __ZN21llama_io_write_bufferD1Ev, symObjAddr: 0x5E3C, symBinAddr: 0x1D764, symSize: 0x4 }
  - { offset: 0xD8851, size: 0x8, addend: 0x0, symName: __ZN13llama_context14state_set_dataEPKhm, symObjAddr: 0x5E40, symBinAddr: 0x1D768, symSize: 0xA4 }
  - { offset: 0xD8952, size: 0x8, addend: 0x0, symName: __ZN13llama_context15state_read_dataER15llama_io_read_i, symObjAddr: 0x5EE4, symBinAddr: 0x1D80C, symSize: 0x580 }
  - { offset: 0xD9E3A, size: 0x8, addend: 0x0, symName: __ZN20llama_io_read_bufferD1Ev, symObjAddr: 0x6464, symBinAddr: 0x1DD8C, symSize: 0x4 }
  - { offset: 0xD9E97, size: 0x8, addend: 0x0, symName: __ZN13llama_context18state_seq_get_sizeEi, symObjAddr: 0x6468, symBinAddr: 0x1DD90, symSize: 0xC4 }
  - { offset: 0xD9FBE, size: 0x8, addend: 0x0, symName: __ZN13llama_context20state_seq_write_dataER16llama_io_write_ii, symObjAddr: 0x652C, symBinAddr: 0x1DE54, symSize: 0x40 }
  - { offset: 0xDA031, size: 0x8, addend: 0x0, symName: __ZN13llama_context18state_seq_get_dataEiPhm, symObjAddr: 0x656C, symBinAddr: 0x1DE94, symSize: 0xCC }
  - { offset: 0xDA1C7, size: 0x8, addend: 0x0, symName: __ZN13llama_context18state_seq_set_dataEiPKhm, symObjAddr: 0x6638, symBinAddr: 0x1DF60, symSize: 0xCC }
  - { offset: 0xDA32C, size: 0x8, addend: 0x0, symName: __ZN13llama_context19state_seq_read_dataER15llama_io_read_ii, symObjAddr: 0x6704, symBinAddr: 0x1E02C, symSize: 0x40 }
  - { offset: 0xDA644, size: 0x8, addend: 0x0, symName: __ZN13llama_context15state_load_fileEPKcPimPm, symObjAddr: 0x6744, symBinAddr: 0x1E06C, symSize: 0x1CC }
  - { offset: 0xDAAD7, size: 0x8, addend: 0x0, symName: __ZN18llama_io_read_fileD1Ev, symObjAddr: 0x6910, symBinAddr: 0x1E238, symSize: 0x40 }
  - { offset: 0xDADA8, size: 0x8, addend: 0x0, symName: __ZN13llama_context15state_save_fileEPKcPKim, symObjAddr: 0x6950, symBinAddr: 0x1E278, symSize: 0x100 }
  - { offset: 0xDB143, size: 0x8, addend: 0x0, symName: __ZN19llama_io_write_fileD1Ev, symObjAddr: 0x6A50, symBinAddr: 0x1E378, symSize: 0x40 }
  - { offset: 0xDB2AC, size: 0x8, addend: 0x0, symName: __ZN13llama_context19state_seq_load_fileEiPKcPimPm, symObjAddr: 0x6A90, symBinAddr: 0x1E3B8, symSize: 0x270 }
  - { offset: 0xDB7BD, size: 0x8, addend: 0x0, symName: __ZN13llama_context19state_seq_save_fileEiPKcPKim, symObjAddr: 0x6D00, symBinAddr: 0x1E628, symSize: 0x190 }
  - { offset: 0xDBC3B, size: 0x8, addend: 0x0, symName: __ZN19llama_io_write_file7n_bytesEv, symObjAddr: 0x6E90, symBinAddr: 0x1E7B8, symSize: 0x8 }
  - { offset: 0xDBC5D, size: 0x8, addend: 0x0, symName: __ZNK13llama_context13perf_get_dataEv, symObjAddr: 0x6E98, symBinAddr: 0x1E7C0, symSize: 0x44 }
  - { offset: 0xDBCE4, size: 0x8, addend: 0x0, symName: __ZN13llama_context10perf_resetEv, symObjAddr: 0x6EDC, symBinAddr: 0x1E804, symSize: 0x34 }
  - { offset: 0xDBDB0, size: 0x8, addend: 0x0, symName: __ZN13llama_context8opt_initEP11llama_model16llama_opt_params, symObjAddr: 0x6F10, symBinAddr: 0x1E838, symSize: 0x610 }
  - { offset: 0xDC6D3, size: 0x8, addend: 0x0, symName: __ZN13llama_context14opt_epoch_iterEP16ggml_opt_datasetP15ggml_opt_resultRKNSt3__16vectorIiNS4_9allocatorIiEEEESA_R11llama_batchPFvbP16ggml_opt_contextS1_S3_xxxEbxxx, symObjAddr: 0x7520, symBinAddr: 0x1EE48, symSize: 0x700 }
  - { offset: 0xDC7CE, size: 0x8, addend: 0x0, symName: __ZN13llama_context14opt_epoch_iterEP16ggml_opt_datasetP15ggml_opt_resultRKNSt3__16vectorIiNS4_9allocatorIiEEEESA_R11llama_batchPFvbP16ggml_opt_contextS1_S3_xxxEbxxx, symObjAddr: 0x7520, symBinAddr: 0x1EE48, symSize: 0x700 }
  - { offset: 0xDD7B1, size: 0x8, addend: 0x0, symName: __ZN13llama_context9opt_epochEP16ggml_opt_datasetP15ggml_opt_resultS3_xPFvbP16ggml_opt_contextS1_S3_xxxES7_, symObjAddr: 0x7C20, symBinAddr: 0x1F548, symSize: 0x2C4 }
  - { offset: 0xDE39B, size: 0x8, addend: 0x0, symName: _llama_context_default_params, symObjAddr: 0x7EE4, symBinAddr: 0x1F80C, symSize: 0x34 }
  - { offset: 0xDE3F9, size: 0x8, addend: 0x0, symName: _llama_init_from_model, symObjAddr: 0x7F18, symBinAddr: 0x1F840, symSize: 0x1D0 }
  - { offset: 0xDE506, size: 0x8, addend: 0x0, symName: _llama_new_context_with_model, symObjAddr: 0x80E8, symBinAddr: 0x1FA10, symSize: 0x48 }
  - { offset: 0xDE57C, size: 0x8, addend: 0x0, symName: _llama_free, symObjAddr: 0x8130, symBinAddr: 0x1FA58, symSize: 0x1C }
  - { offset: 0xDE5CE, size: 0x8, addend: 0x0, symName: _llama_n_ctx, symObjAddr: 0x814C, symBinAddr: 0x1FA74, symSize: 0x8 }
  - { offset: 0xDE5FD, size: 0x8, addend: 0x0, symName: _llama_n_ctx, symObjAddr: 0x814C, symBinAddr: 0x1FA74, symSize: 0x8 }
  - { offset: 0xDE618, size: 0x8, addend: 0x0, symName: _llama_n_batch, symObjAddr: 0x8154, symBinAddr: 0x1FA7C, symSize: 0x8 }
  - { offset: 0xDE647, size: 0x8, addend: 0x0, symName: _llama_n_batch, symObjAddr: 0x8154, symBinAddr: 0x1FA7C, symSize: 0x8 }
  - { offset: 0xDE67B, size: 0x8, addend: 0x0, symName: _llama_n_ubatch, symObjAddr: 0x815C, symBinAddr: 0x1FA84, symSize: 0x8 }
  - { offset: 0xDE6AA, size: 0x8, addend: 0x0, symName: _llama_n_ubatch, symObjAddr: 0x815C, symBinAddr: 0x1FA84, symSize: 0x8 }
  - { offset: 0xDE6C5, size: 0x8, addend: 0x0, symName: _llama_n_seq_max, symObjAddr: 0x8164, symBinAddr: 0x1FA8C, symSize: 0x8 }
  - { offset: 0xDE6F4, size: 0x8, addend: 0x0, symName: _llama_n_seq_max, symObjAddr: 0x8164, symBinAddr: 0x1FA8C, symSize: 0x8 }
  - { offset: 0xDE728, size: 0x8, addend: 0x0, symName: _llama_get_model, symObjAddr: 0x816C, symBinAddr: 0x1FA94, symSize: 0x8 }
  - { offset: 0xDE757, size: 0x8, addend: 0x0, symName: _llama_get_model, symObjAddr: 0x816C, symBinAddr: 0x1FA94, symSize: 0x8 }
  - { offset: 0xDE78B, size: 0x8, addend: 0x0, symName: _llama_get_kv_self, symObjAddr: 0x8174, symBinAddr: 0x1FA9C, symSize: 0x24 }
  - { offset: 0xDE7BA, size: 0x8, addend: 0x0, symName: _llama_get_kv_self, symObjAddr: 0x8174, symBinAddr: 0x1FA9C, symSize: 0x24 }
  - { offset: 0xDE7D6, size: 0x8, addend: 0x0, symName: _llama_get_kv_self, symObjAddr: 0x8174, symBinAddr: 0x1FA9C, symSize: 0x24 }
  - { offset: 0xDE7F5, size: 0x8, addend: 0x0, symName: _llama_kv_self_update, symObjAddr: 0x8198, symBinAddr: 0x1FAC0, symSize: 0x8 }
  - { offset: 0xDE850, size: 0x8, addend: 0x0, symName: _llama_pooling_type, symObjAddr: 0x81A0, symBinAddr: 0x1FAC8, symSize: 0x8 }
  - { offset: 0xDE87F, size: 0x8, addend: 0x0, symName: _llama_pooling_type, symObjAddr: 0x81A0, symBinAddr: 0x1FAC8, symSize: 0x8 }
  - { offset: 0xDE8CB, size: 0x8, addend: 0x0, symName: _llama_attach_threadpool, symObjAddr: 0x81A8, symBinAddr: 0x1FAD0, symSize: 0x5C }
  - { offset: 0xDE96D, size: 0x8, addend: 0x0, symName: _llama_detach_threadpool, symObjAddr: 0x8204, symBinAddr: 0x1FB2C, symSize: 0x44 }
  - { offset: 0xDE9F7, size: 0x8, addend: 0x0, symName: _llama_set_n_threads, symObjAddr: 0x8248, symBinAddr: 0x1FB70, symSize: 0x58 }
  - { offset: 0xDEA99, size: 0x8, addend: 0x0, symName: _llama_n_threads, symObjAddr: 0x82A0, symBinAddr: 0x1FBC8, symSize: 0x8 }
  - { offset: 0xDEAC8, size: 0x8, addend: 0x0, symName: _llama_n_threads, symObjAddr: 0x82A0, symBinAddr: 0x1FBC8, symSize: 0x8 }
  - { offset: 0xDEAFC, size: 0x8, addend: 0x0, symName: _llama_n_threads_batch, symObjAddr: 0x82A8, symBinAddr: 0x1FBD0, symSize: 0x8 }
  - { offset: 0xDEB2B, size: 0x8, addend: 0x0, symName: _llama_n_threads_batch, symObjAddr: 0x82A8, symBinAddr: 0x1FBD0, symSize: 0x8 }
  - { offset: 0xDEB6B, size: 0x8, addend: 0x0, symName: _llama_set_embeddings, symObjAddr: 0x82B0, symBinAddr: 0x1FBD8, symSize: 0x4C }
  - { offset: 0xDEBFA, size: 0x8, addend: 0x0, symName: _llama_set_causal_attn, symObjAddr: 0x82FC, symBinAddr: 0x1FC24, symSize: 0x4C }
  - { offset: 0xDEC89, size: 0x8, addend: 0x0, symName: _llama_set_warmup, symObjAddr: 0x8348, symBinAddr: 0x1FC70, symSize: 0x4C }
  - { offset: 0xDECF3, size: 0x8, addend: 0x0, symName: _llama_synchronize, symObjAddr: 0x8394, symBinAddr: 0x1FCBC, symSize: 0x4 }
  - { offset: 0xDED1D, size: 0x8, addend: 0x0, symName: _llama_synchronize, symObjAddr: 0x8394, symBinAddr: 0x1FCBC, symSize: 0x4 }
  - { offset: 0xDED49, size: 0x8, addend: 0x0, symName: _llama_get_logits, symObjAddr: 0x8398, symBinAddr: 0x1FCC0, symSize: 0x24 }
  - { offset: 0xDEDA8, size: 0x8, addend: 0x0, symName: _llama_get_logits_ith, symObjAddr: 0x83BC, symBinAddr: 0x1FCE4, symSize: 0x2C }
  - { offset: 0xDEE22, size: 0x8, addend: 0x0, symName: _llama_get_embeddings, symObjAddr: 0x83E8, symBinAddr: 0x1FD10, symSize: 0x24 }
  - { offset: 0xDEE81, size: 0x8, addend: 0x0, symName: _llama_get_embeddings_ith, symObjAddr: 0x840C, symBinAddr: 0x1FD34, symSize: 0x2C }
  - { offset: 0xDEF13, size: 0x8, addend: 0x0, symName: _llama_get_embeddings_seq, symObjAddr: 0x8438, symBinAddr: 0x1FD60, symSize: 0x78 }
  - { offset: 0xDF0EB, size: 0x8, addend: 0x0, symName: _llama_set_adapter_lora, symObjAddr: 0x84B0, symBinAddr: 0x1FDD8, symSize: 0x84 }
  - { offset: 0xDF1F9, size: 0x8, addend: 0x0, symName: _llama_rm_adapter_lora, symObjAddr: 0x8534, symBinAddr: 0x1FE5C, symSize: 0x84 }
  - { offset: 0xDF49C, size: 0x8, addend: 0x0, symName: _llama_clear_adapter_lora, symObjAddr: 0x85B8, symBinAddr: 0x1FEE0, symSize: 0x88 }
  - { offset: 0xDF753, size: 0x8, addend: 0x0, symName: _llama_apply_adapter_cvec, symObjAddr: 0x8640, symBinAddr: 0x1FF68, symSize: 0x8C }
  - { offset: 0xDF83B, size: 0x8, addend: 0x0, symName: _llama_get_memory, symObjAddr: 0x86CC, symBinAddr: 0x1FFF4, symSize: 0x8 }
  - { offset: 0xDF85B, size: 0x8, addend: 0x0, symName: _llama_get_memory, symObjAddr: 0x86CC, symBinAddr: 0x1FFF4, symSize: 0x8 }
  - { offset: 0xDF877, size: 0x8, addend: 0x0, symName: _llama_get_memory, symObjAddr: 0x86CC, symBinAddr: 0x1FFF4, symSize: 0x8 }
  - { offset: 0xDF895, size: 0x8, addend: 0x0, symName: _llama_memory_clear, symObjAddr: 0x86D4, symBinAddr: 0x1FFFC, symSize: 0x14 }
  - { offset: 0xDF8C8, size: 0x8, addend: 0x0, symName: _llama_memory_seq_rm, symObjAddr: 0x86E8, symBinAddr: 0x20010, symSize: 0x18 }
  - { offset: 0xDF906, size: 0x8, addend: 0x0, symName: _llama_memory_seq_cp, symObjAddr: 0x8700, symBinAddr: 0x20028, symSize: 0x14 }
  - { offset: 0xDF949, size: 0x8, addend: 0x0, symName: _llama_memory_seq_keep, symObjAddr: 0x8714, symBinAddr: 0x2003C, symSize: 0x14 }
  - { offset: 0xDF977, size: 0x8, addend: 0x0, symName: _llama_memory_seq_add, symObjAddr: 0x8728, symBinAddr: 0x20050, symSize: 0x14 }
  - { offset: 0xDF9BA, size: 0x8, addend: 0x0, symName: _llama_memory_seq_div, symObjAddr: 0x873C, symBinAddr: 0x20064, symSize: 0x14 }
  - { offset: 0xDF9FD, size: 0x8, addend: 0x0, symName: _llama_memory_seq_pos_min, symObjAddr: 0x8750, symBinAddr: 0x20078, symSize: 0x18 }
  - { offset: 0xDFA2D, size: 0x8, addend: 0x0, symName: _llama_memory_seq_pos_max, symObjAddr: 0x8768, symBinAddr: 0x20090, symSize: 0x18 }
  - { offset: 0xDFA5D, size: 0x8, addend: 0x0, symName: _llama_memory_can_shift, symObjAddr: 0x8780, symBinAddr: 0x200A8, symSize: 0x14 }
  - { offset: 0xDFAA0, size: 0x8, addend: 0x0, symName: _llama_kv_self_n_tokens, symObjAddr: 0x8794, symBinAddr: 0x200BC, symSize: 0xB0 }
  - { offset: 0xDFBCC, size: 0x8, addend: 0x0, symName: _llama_kv_self_used_cells, symObjAddr: 0x8844, symBinAddr: 0x2016C, symSize: 0xB0 }
  - { offset: 0xDFD1B, size: 0x8, addend: 0x0, symName: _llama_kv_self_clear, symObjAddr: 0x88F4, symBinAddr: 0x2021C, symSize: 0x1C }
  - { offset: 0xDFD57, size: 0x8, addend: 0x0, symName: _llama_kv_self_clear, symObjAddr: 0x88F4, symBinAddr: 0x2021C, symSize: 0x1C }
  - { offset: 0xDFD73, size: 0x8, addend: 0x0, symName: _llama_kv_self_clear, symObjAddr: 0x88F4, symBinAddr: 0x2021C, symSize: 0x1C }
  - { offset: 0xDFD8F, size: 0x8, addend: 0x0, symName: _llama_kv_self_clear, symObjAddr: 0x88F4, symBinAddr: 0x2021C, symSize: 0x1C }
  - { offset: 0xDFE25, size: 0x8, addend: 0x0, symName: _llama_kv_self_seq_rm, symObjAddr: 0x8910, symBinAddr: 0x20238, symSize: 0x1C }
  - { offset: 0xDFE92, size: 0x8, addend: 0x0, symName: _llama_kv_self_seq_rm, symObjAddr: 0x8910, symBinAddr: 0x20238, symSize: 0x1C }
  - { offset: 0xDFEAE, size: 0x8, addend: 0x0, symName: _llama_kv_self_seq_rm, symObjAddr: 0x8910, symBinAddr: 0x20238, symSize: 0x1C }
  - { offset: 0xDFECA, size: 0x8, addend: 0x0, symName: _llama_kv_self_seq_rm, symObjAddr: 0x8910, symBinAddr: 0x20238, symSize: 0x1C }
  - { offset: 0xDFF6F, size: 0x8, addend: 0x0, symName: _llama_kv_self_seq_cp, symObjAddr: 0x892C, symBinAddr: 0x20254, symSize: 0x18 }
  - { offset: 0xDFFE7, size: 0x8, addend: 0x0, symName: _llama_kv_self_seq_cp, symObjAddr: 0x892C, symBinAddr: 0x20254, symSize: 0x18 }
  - { offset: 0xE0003, size: 0x8, addend: 0x0, symName: _llama_kv_self_seq_cp, symObjAddr: 0x892C, symBinAddr: 0x20254, symSize: 0x18 }
  - { offset: 0xE001F, size: 0x8, addend: 0x0, symName: _llama_kv_self_seq_cp, symObjAddr: 0x892C, symBinAddr: 0x20254, symSize: 0x18 }
  - { offset: 0xE00A7, size: 0x8, addend: 0x0, symName: _llama_kv_self_seq_keep, symObjAddr: 0x8944, symBinAddr: 0x2026C, symSize: 0x18 }
  - { offset: 0xE00F2, size: 0x8, addend: 0x0, symName: _llama_kv_self_seq_keep, symObjAddr: 0x8944, symBinAddr: 0x2026C, symSize: 0x18 }
  - { offset: 0xE010E, size: 0x8, addend: 0x0, symName: _llama_kv_self_seq_keep, symObjAddr: 0x8944, symBinAddr: 0x2026C, symSize: 0x18 }
  - { offset: 0xE012A, size: 0x8, addend: 0x0, symName: _llama_kv_self_seq_keep, symObjAddr: 0x8944, symBinAddr: 0x2026C, symSize: 0x18 }
  - { offset: 0xE01C1, size: 0x8, addend: 0x0, symName: _llama_kv_self_seq_add, symObjAddr: 0x895C, symBinAddr: 0x20284, symSize: 0x18 }
  - { offset: 0xE0239, size: 0x8, addend: 0x0, symName: _llama_kv_self_seq_add, symObjAddr: 0x895C, symBinAddr: 0x20284, symSize: 0x18 }
  - { offset: 0xE0255, size: 0x8, addend: 0x0, symName: _llama_kv_self_seq_add, symObjAddr: 0x895C, symBinAddr: 0x20284, symSize: 0x18 }
  - { offset: 0xE0271, size: 0x8, addend: 0x0, symName: _llama_kv_self_seq_add, symObjAddr: 0x895C, symBinAddr: 0x20284, symSize: 0x18 }
  - { offset: 0xE031D, size: 0x8, addend: 0x0, symName: _llama_kv_self_seq_div, symObjAddr: 0x8974, symBinAddr: 0x2029C, symSize: 0x18 }
  - { offset: 0xE0395, size: 0x8, addend: 0x0, symName: _llama_kv_self_seq_div, symObjAddr: 0x8974, symBinAddr: 0x2029C, symSize: 0x18 }
  - { offset: 0xE03B1, size: 0x8, addend: 0x0, symName: _llama_kv_self_seq_div, symObjAddr: 0x8974, symBinAddr: 0x2029C, symSize: 0x18 }
  - { offset: 0xE03CD, size: 0x8, addend: 0x0, symName: _llama_kv_self_seq_div, symObjAddr: 0x8974, symBinAddr: 0x2029C, symSize: 0x18 }
  - { offset: 0xE0459, size: 0x8, addend: 0x0, symName: _llama_kv_self_seq_pos_min, symObjAddr: 0x898C, symBinAddr: 0x202B4, symSize: 0x1C }
  - { offset: 0xE04A8, size: 0x8, addend: 0x0, symName: _llama_kv_self_seq_pos_min, symObjAddr: 0x898C, symBinAddr: 0x202B4, symSize: 0x1C }
  - { offset: 0xE04C4, size: 0x8, addend: 0x0, symName: _llama_kv_self_seq_pos_min, symObjAddr: 0x898C, symBinAddr: 0x202B4, symSize: 0x1C }
  - { offset: 0xE04E0, size: 0x8, addend: 0x0, symName: _llama_kv_self_seq_pos_min, symObjAddr: 0x898C, symBinAddr: 0x202B4, symSize: 0x1C }
  - { offset: 0xE0557, size: 0x8, addend: 0x0, symName: _llama_kv_self_seq_pos_max, symObjAddr: 0x89A8, symBinAddr: 0x202D0, symSize: 0x1C }
  - { offset: 0xE05A6, size: 0x8, addend: 0x0, symName: _llama_kv_self_seq_pos_max, symObjAddr: 0x89A8, symBinAddr: 0x202D0, symSize: 0x1C }
  - { offset: 0xE05C2, size: 0x8, addend: 0x0, symName: _llama_kv_self_seq_pos_max, symObjAddr: 0x89A8, symBinAddr: 0x202D0, symSize: 0x1C }
  - { offset: 0xE05DE, size: 0x8, addend: 0x0, symName: _llama_kv_self_seq_pos_max, symObjAddr: 0x89A8, symBinAddr: 0x202D0, symSize: 0x1C }
  - { offset: 0xE0647, size: 0x8, addend: 0x0, symName: _llama_kv_self_defrag, symObjAddr: 0x89C4, symBinAddr: 0x202EC, symSize: 0x14 }
  - { offset: 0xE0670, size: 0x8, addend: 0x0, symName: _llama_kv_self_defrag, symObjAddr: 0x89C4, symBinAddr: 0x202EC, symSize: 0x14 }
  - { offset: 0xE068C, size: 0x8, addend: 0x0, symName: _llama_kv_self_defrag, symObjAddr: 0x89C4, symBinAddr: 0x202EC, symSize: 0x14 }
  - { offset: 0xE06C6, size: 0x8, addend: 0x0, symName: _llama_kv_self_can_shift, symObjAddr: 0x89D8, symBinAddr: 0x20300, symSize: 0x18 }
  - { offset: 0xE0706, size: 0x8, addend: 0x0, symName: _llama_kv_self_can_shift, symObjAddr: 0x89D8, symBinAddr: 0x20300, symSize: 0x18 }
  - { offset: 0xE0722, size: 0x8, addend: 0x0, symName: _llama_kv_self_can_shift, symObjAddr: 0x89D8, symBinAddr: 0x20300, symSize: 0x18 }
  - { offset: 0xE073E, size: 0x8, addend: 0x0, symName: _llama_kv_self_can_shift, symObjAddr: 0x89D8, symBinAddr: 0x20300, symSize: 0x18 }
  - { offset: 0xE07A2, size: 0x8, addend: 0x0, symName: _llama_get_state_size, symObjAddr: 0x89F0, symBinAddr: 0x20318, symSize: 0x4 }
  - { offset: 0xE07CF, size: 0x8, addend: 0x0, symName: _llama_get_state_size, symObjAddr: 0x89F0, symBinAddr: 0x20318, symSize: 0x4 }
  - { offset: 0xE07ED, size: 0x8, addend: 0x0, symName: _llama_get_state_size, symObjAddr: 0x89F0, symBinAddr: 0x20318, symSize: 0x4 }
  - { offset: 0xE07FF, size: 0x8, addend: 0x0, symName: _llama_state_get_size, symObjAddr: 0x89F4, symBinAddr: 0x2031C, symSize: 0x4 }
  - { offset: 0xE081E, size: 0x8, addend: 0x0, symName: _llama_state_get_size, symObjAddr: 0x89F4, symBinAddr: 0x2031C, symSize: 0x4 }
  - { offset: 0xE0864, size: 0x8, addend: 0x0, symName: _llama_copy_state_data, symObjAddr: 0x89F8, symBinAddr: 0x20320, symSize: 0x30 }
  - { offset: 0xE08FD, size: 0x8, addend: 0x0, symName: _llama_state_get_data, symObjAddr: 0x8A28, symBinAddr: 0x20350, symSize: 0x3C }
  - { offset: 0xE0983, size: 0x8, addend: 0x0, symName: _llama_set_state_data, symObjAddr: 0x8A64, symBinAddr: 0x2038C, symSize: 0x30 }
  - { offset: 0xE0A1C, size: 0x8, addend: 0x0, symName: _llama_state_set_data, symObjAddr: 0x8A94, symBinAddr: 0x203BC, symSize: 0x3C }
  - { offset: 0xE0A6F, size: 0x8, addend: 0x0, symName: _llama_load_session_file, symObjAddr: 0x8AD0, symBinAddr: 0x203F8, symSize: 0x4 }
  - { offset: 0xE0AD9, size: 0x8, addend: 0x0, symName: _llama_load_session_file, symObjAddr: 0x8AD0, symBinAddr: 0x203F8, symSize: 0x4 }
  - { offset: 0xE0B08, size: 0x8, addend: 0x0, symName: _llama_state_load_file, symObjAddr: 0x8AD4, symBinAddr: 0x203FC, symSize: 0x190 }
  - { offset: 0xE0C63, size: 0x8, addend: 0x0, symName: _llama_save_session_file, symObjAddr: 0x8C64, symBinAddr: 0x2058C, symSize: 0x4 }
  - { offset: 0xE0CBE, size: 0x8, addend: 0x0, symName: _llama_save_session_file, symObjAddr: 0x8C64, symBinAddr: 0x2058C, symSize: 0x4 }
  - { offset: 0xE0CE6, size: 0x8, addend: 0x0, symName: _llama_state_save_file, symObjAddr: 0x8C68, symBinAddr: 0x20590, symSize: 0x234 }
  - { offset: 0xE11EC, size: 0x8, addend: 0x0, symName: _llama_state_seq_get_size, symObjAddr: 0x8E9C, symBinAddr: 0x207C4, symSize: 0x4 }
  - { offset: 0xE1229, size: 0x8, addend: 0x0, symName: _llama_state_seq_get_size, symObjAddr: 0x8E9C, symBinAddr: 0x207C4, symSize: 0x4 }
  - { offset: 0xE1243, size: 0x8, addend: 0x0, symName: _llama_state_seq_get_data, symObjAddr: 0x8EA0, symBinAddr: 0x207C8, symSize: 0x44 }
  - { offset: 0xE12C6, size: 0x8, addend: 0x0, symName: _llama_state_seq_set_data, symObjAddr: 0x8EE4, symBinAddr: 0x2080C, symSize: 0x44 }
  - { offset: 0xE1349, size: 0x8, addend: 0x0, symName: _llama_state_seq_save_file, symObjAddr: 0x8F28, symBinAddr: 0x20850, symSize: 0x190 }
  - { offset: 0xE148B, size: 0x8, addend: 0x0, symName: _llama_state_seq_load_file, symObjAddr: 0x90B8, symBinAddr: 0x209E0, symSize: 0x198 }
  - { offset: 0xE15E4, size: 0x8, addend: 0x0, symName: _llama_encode, symObjAddr: 0x9250, symBinAddr: 0x20B78, symSize: 0x4C }
  - { offset: 0xE1662, size: 0x8, addend: 0x0, symName: _llama_decode, symObjAddr: 0x929C, symBinAddr: 0x20BC4, symSize: 0x50 }
  - { offset: 0xE1704, size: 0x8, addend: 0x0, symName: _llama_perf_context, symObjAddr: 0x92EC, symBinAddr: 0x20C14, symSize: 0x54 }
  - { offset: 0xE17C3, size: 0x8, addend: 0x0, symName: _llama_perf_context_print, symObjAddr: 0x9340, symBinAddr: 0x20C68, symSize: 0x188 }
  - { offset: 0xE1922, size: 0x8, addend: 0x0, symName: _llama_perf_context_reset, symObjAddr: 0x94C8, symBinAddr: 0x20DF0, symSize: 0x34 }
  - { offset: 0xE1976, size: 0x8, addend: 0x0, symName: _llama_opt_param_filter_all, symObjAddr: 0x94FC, symBinAddr: 0x20E24, symSize: 0x8 }
  - { offset: 0xE19B2, size: 0x8, addend: 0x0, symName: _llama_opt_init, symObjAddr: 0x9504, symBinAddr: 0x20E2C, symSize: 0x30 }
  - { offset: 0xE1A1F, size: 0x8, addend: 0x0, symName: _llama_opt_epoch, symObjAddr: 0x9534, symBinAddr: 0x20E5C, symSize: 0x4 }
  - { offset: 0xE1AA3, size: 0x8, addend: 0x0, symName: _llama_opt_epoch, symObjAddr: 0x9534, symBinAddr: 0x20E5C, symSize: 0x4 }
  - { offset: 0xE1EEA, size: 0x8, addend: 0x0, symName: __ZN20llama_io_write_dummyD0Ev, symObjAddr: 0x96C4, symBinAddr: 0x20F68, symSize: 0x4 }
  - { offset: 0xE1F16, size: 0x8, addend: 0x0, symName: __ZN20llama_io_write_dummy5writeEPKvm, symObjAddr: 0x96C8, symBinAddr: 0x20F6C, symSize: 0x10 }
  - { offset: 0xE1F55, size: 0x8, addend: 0x0, symName: __ZN20llama_io_write_dummy12write_tensorEPK11ggml_tensormm, symObjAddr: 0x96D8, symBinAddr: 0x20F7C, symSize: 0x10 }
  - { offset: 0xE1F9F, size: 0x8, addend: 0x0, symName: __ZN20llama_io_write_dummy7n_bytesEv, symObjAddr: 0x96E8, symBinAddr: 0x20F8C, symSize: 0x8 }
  - { offset: 0xE1FC6, size: 0x8, addend: 0x0, symName: __ZN21llama_io_write_bufferD0Ev, symObjAddr: 0x96F0, symBinAddr: 0x20F94, symSize: 0x4 }
  - { offset: 0xE1FF2, size: 0x8, addend: 0x0, symName: __ZN21llama_io_write_buffer5writeEPKvm, symObjAddr: 0x96F4, symBinAddr: 0x20F98, symSize: 0x94 }
  - { offset: 0xE203B, size: 0x8, addend: 0x0, symName: __ZN21llama_io_write_buffer12write_tensorEPK11ggml_tensormm, symObjAddr: 0x9788, symBinAddr: 0x2102C, symSize: 0x9C }
  - { offset: 0xE20BF, size: 0x8, addend: 0x0, symName: __ZN21llama_io_write_buffer7n_bytesEv, symObjAddr: 0x9824, symBinAddr: 0x210C8, symSize: 0x8 }
  - { offset: 0xE20E6, size: 0x8, addend: 0x0, symName: __ZN20llama_io_read_bufferD0Ev, symObjAddr: 0x982C, symBinAddr: 0x210D0, symSize: 0x4 }
  - { offset: 0xE2112, size: 0x8, addend: 0x0, symName: __ZN20llama_io_read_buffer4readEm, symObjAddr: 0x9830, symBinAddr: 0x210D4, symSize: 0x84 }
  - { offset: 0xE215B, size: 0x8, addend: 0x0, symName: __ZN20llama_io_read_buffer7read_toEPvm, symObjAddr: 0x98B4, symBinAddr: 0x21158, symSize: 0x3C }
  - { offset: 0xE21BF, size: 0x8, addend: 0x0, symName: __ZN20llama_io_read_buffer7n_bytesEv, symObjAddr: 0x98F0, symBinAddr: 0x21194, symSize: 0x8 }
  - { offset: 0xE21E6, size: 0x8, addend: 0x0, symName: __ZN18llama_io_read_fileD0Ev, symObjAddr: 0x98F8, symBinAddr: 0x2119C, symSize: 0x40 }
  - { offset: 0xE238E, size: 0x8, addend: 0x0, symName: __ZN18llama_io_read_file4readEm, symObjAddr: 0x9938, symBinAddr: 0x211DC, symSize: 0x1E0 }
  - { offset: 0xE28CE, size: 0x8, addend: 0x0, symName: __ZN18llama_io_read_file7read_toEPvm, symObjAddr: 0x9B18, symBinAddr: 0x213BC, symSize: 0x34 }
  - { offset: 0xE28D9, size: 0x8, addend: 0x0, symName: __ZN18llama_io_read_file7read_toEPvm, symObjAddr: 0x9B18, symBinAddr: 0x213BC, symSize: 0x34 }
  - { offset: 0xE2922, size: 0x8, addend: 0x0, symName: __ZN18llama_io_read_file7n_bytesEv, symObjAddr: 0x9B4C, symBinAddr: 0x213F0, symSize: 0x8 }
  - { offset: 0xE2949, size: 0x8, addend: 0x0, symName: __ZN19llama_io_write_fileD0Ev, symObjAddr: 0x9B54, symBinAddr: 0x213F8, symSize: 0x40 }
  - { offset: 0xE2ADB, size: 0x8, addend: 0x0, symName: __ZN19llama_io_write_file5writeEPKvm, symObjAddr: 0x9B94, symBinAddr: 0x21438, symSize: 0x34 }
  - { offset: 0xE2B24, size: 0x8, addend: 0x0, symName: __ZN19llama_io_write_file12write_tensorEPK11ggml_tensormm, symObjAddr: 0x9BC8, symBinAddr: 0x2146C, symSize: 0x230 }
  - { offset: 0xE309A, size: 0x8, addend: 0x0, symName: __ZNSt3__16__treeINS_12__value_typeIiNS_6vectorIfNS_9allocatorIfEEEEEENS_19__map_value_compareIiS6_NS_4lessIiEELb1EEENS3_IS6_EEE7destroyEPNS_11__tree_nodeIS6_PvEE, symObjAddr: 0x9DF8, symBinAddr: 0x2169C, symSize: 0x50 }
  - { offset: 0xE34DF, size: 0x8, addend: 0x0, symName: __ZNKSt3__16vectorINS_10unique_ptrI12ggml_backend20ggml_backend_deleterEENS_9allocatorIS4_EEE20__throw_length_errorB8ne180100Ev, symObjAddr: 0xA004, symBinAddr: 0x218A8, symSize: 0x14 }
  - { offset: 0xE3B40, size: 0x8, addend: 0x0, symName: __ZNSt3__112__hash_tableINS_17__hash_value_typeIP18llama_adapter_lorafEENS_22__unordered_map_hasherIS3_S4_NS_4hashIS3_EENS_8equal_toIS3_EELb1EEENS_21__unordered_map_equalIS3_S4_S9_S7_Lb1EEENS_9allocatorIS4_EEE11__do_rehashILb1EEEvm, symObjAddr: 0xA464, symBinAddr: 0x21C44, symSize: 0x1AC }
  - { offset: 0xE3F9E, size: 0x8, addend: 0x0, symName: __ZNSt3__112__hash_tableINS_17__hash_value_typeIP18llama_adapter_lorafEENS_22__unordered_map_hasherIS3_S4_NS_4hashIS3_EENS_8equal_toIS3_EELb1EEENS_21__unordered_map_equalIS3_S4_S9_S7_Lb1EEENS_9allocatorIS4_EEE4findIS3_EENS_15__hash_iteratorIPNS_11__hash_nodeIS4_PvEEEERKT_, symObjAddr: 0xA610, symBinAddr: 0x21DF0, symSize: 0x114 }
  - { offset: 0xE44BD, size: 0x8, addend: 0x0, symName: __ZNSt3__16vectorINS_3setIiNS_4lessIiEENS_9allocatorIiEEEENS4_IS6_EEE8__appendEm, symObjAddr: 0xABC4, symBinAddr: 0x22038, symSize: 0x200 }
  - { offset: 0xE4A71, size: 0x8, addend: 0x0, symName: __ZNKSt3__16vectorINS_3setIiNS_4lessIiEENS_9allocatorIiEEEENS4_IS6_EEE20__throw_length_errorB8ne180100Ev, symObjAddr: 0xADC4, symBinAddr: 0x22238, symSize: 0x14 }
  - { offset: 0xE4C7D, size: 0x8, addend: 0x0, symName: '__ZNSt3__110__function6__funcIZNK13llama_context12graph_get_cbEvE3$_0NS_9allocatorIS3_EEFvRK12llama_ubatchP11ggml_tensorPKciEED1Ev', symObjAddr: 0xAF90, symBinAddr: 0x2224C, symSize: 0x4 }
  - { offset: 0xE4C88, size: 0x8, addend: 0x0, symName: '__ZNSt3__110__function6__funcIZNK13llama_context12graph_get_cbEvE3$_0NS_9allocatorIS3_EEFvRK12llama_ubatchP11ggml_tensorPKciEED1Ev', symObjAddr: 0xAF90, symBinAddr: 0x2224C, symSize: 0x4 }
  - { offset: 0xE4CB3, size: 0x8, addend: 0x0, symName: '__ZNSt3__110__function6__funcIZNK13llama_context12graph_get_cbEvE3$_0NS_9allocatorIS3_EEFvRK12llama_ubatchP11ggml_tensorPKciEED0Ev', symObjAddr: 0xAF94, symBinAddr: 0x22250, symSize: 0x4 }
  - { offset: 0xE4D68, size: 0x8, addend: 0x0, symName: '__ZNKSt3__110__function6__funcIZNK13llama_context12graph_get_cbEvE3$_0NS_9allocatorIS3_EEFvRK12llama_ubatchP11ggml_tensorPKciEE7__cloneEv', symObjAddr: 0xAF98, symBinAddr: 0x22254, symSize: 0x34 }
  - { offset: 0xE4EB5, size: 0x8, addend: 0x0, symName: '__ZNKSt3__110__function6__funcIZNK13llama_context12graph_get_cbEvE3$_0NS_9allocatorIS3_EEFvRK12llama_ubatchP11ggml_tensorPKciEE7__cloneEPNS0_6__baseISD_EE', symObjAddr: 0xAFCC, symBinAddr: 0x22288, symSize: 0x14 }
  - { offset: 0xE4F25, size: 0x8, addend: 0x0, symName: '__ZNSt3__110__function6__funcIZNK13llama_context12graph_get_cbEvE3$_0NS_9allocatorIS3_EEFvRK12llama_ubatchP11ggml_tensorPKciEE7destroyEv', symObjAddr: 0xAFE0, symBinAddr: 0x2229C, symSize: 0x4 }
  - { offset: 0xE4F76, size: 0x8, addend: 0x0, symName: '__ZNSt3__110__function6__funcIZNK13llama_context12graph_get_cbEvE3$_0NS_9allocatorIS3_EEFvRK12llama_ubatchP11ggml_tensorPKciEE18destroy_deallocateEv', symObjAddr: 0xAFE4, symBinAddr: 0x222A0, symSize: 0x4 }
  - { offset: 0xE4FAB, size: 0x8, addend: 0x0, symName: '__ZNSt3__110__function6__funcIZNK13llama_context12graph_get_cbEvE3$_0NS_9allocatorIS3_EEFvRK12llama_ubatchP11ggml_tensorPKciEE18destroy_deallocateEv', symObjAddr: 0xAFE4, symBinAddr: 0x222A0, symSize: 0x4 }
  - { offset: 0xE4FCE, size: 0x8, addend: 0x0, symName: '__ZNSt3__110__function6__funcIZNK13llama_context12graph_get_cbEvE3$_0NS_9allocatorIS3_EEFvRK12llama_ubatchP11ggml_tensorPKciEE18destroy_deallocateEv', symObjAddr: 0xAFE4, symBinAddr: 0x222A0, symSize: 0x4 }
  - { offset: 0xE4FFA, size: 0x8, addend: 0x0, symName: '__ZNSt3__110__function6__funcIZNK13llama_context12graph_get_cbEvE3$_0NS_9allocatorIS3_EEFvRK12llama_ubatchP11ggml_tensorPKciEE18destroy_deallocateEv', symObjAddr: 0xAFE4, symBinAddr: 0x222A0, symSize: 0x4 }
  - { offset: 0xE5020, size: 0x8, addend: 0x0, symName: '__ZNSt3__110__function6__funcIZNK13llama_context12graph_get_cbEvE3$_0NS_9allocatorIS3_EEFvRK12llama_ubatchP11ggml_tensorPKciEE18destroy_deallocateEv', symObjAddr: 0xAFE4, symBinAddr: 0x222A0, symSize: 0x4 }
  - { offset: 0xE51C3, size: 0x8, addend: 0x0, symName: '__ZNSt3__110__function6__funcIZNK13llama_context12graph_get_cbEvE3$_0NS_9allocatorIS3_EEFvRK12llama_ubatchP11ggml_tensorPKciEEclES8_OSA_OSC_Oi', symObjAddr: 0xAFE8, symBinAddr: 0x222A4, symSize: 0x150 }
  - { offset: 0xE54E2, size: 0x8, addend: 0x0, symName: '__ZNKSt3__110__function6__funcIZNK13llama_context12graph_get_cbEvE3$_0NS_9allocatorIS3_EEFvRK12llama_ubatchP11ggml_tensorPKciEE6targetERKSt9type_info', symObjAddr: 0xB138, symBinAddr: 0x223F4, symSize: 0x6C }
  - { offset: 0xE557D, size: 0x8, addend: 0x0, symName: '__ZNKSt3__110__function6__funcIZNK13llama_context12graph_get_cbEvE3$_0NS_9allocatorIS3_EEFvRK12llama_ubatchP11ggml_tensorPKciEE11target_typeEv', symObjAddr: 0xB1A4, symBinAddr: 0x22460, symSize: 0xC }
  - { offset: 0xE75E5, size: 0x8, addend: 0x0, symName: _llama_max_parallel_sequences, symObjAddr: 0x0, symBinAddr: 0x2246C, symSize: 0x8 }
  - { offset: 0xE75F3, size: 0x8, addend: 0x0, symName: _llama_max_parallel_sequences, symObjAddr: 0x0, symBinAddr: 0x2246C, symSize: 0x8 }
  - { offset: 0xE7749, size: 0x8, addend: 0x0, symName: __ZN20llama_grammar_parser13get_symbol_idEPKcm, symObjAddr: 0x0, symBinAddr: 0x22474, symSize: 0xFC }
  - { offset: 0xE7782, size: 0x8, addend: 0x0, symName: __ZL11decode_utf8RKNSt3__112basic_stringIcNS_11char_traitsIcEENS_9allocatorIcEEEE18llama_partial_utf8, symObjAddr: 0x85AC, symBinAddr: 0x2A970, symSize: 0x94C }
  - { offset: 0xE77AC, size: 0x8, addend: 0x0, symName: __ZZL11decode_utf8RKNSt3__112basic_stringIcNS_11char_traitsIcEENS_9allocatorIcEEEE18llama_partial_utf8E6lookup, symObjAddr: 0x189D4, symBinAddr: 0x1EE7B4, symSize: 0x0 }
  - { offset: 0x1161FE, size: 0x8, addend: 0x0, symName: __ZNSt3__119__throw_regex_errorB8ne180100ILNS_15regex_constants10error_typeE17EEEvv, symObjAddr: 0xB290, symBinAddr: 0x2D368, symSize: 0x4C }
  - { offset: 0x116F32, size: 0x8, addend: 0x0, symName: __ZNSt3__119__throw_regex_errorB8ne180100ILNS_15regex_constants10error_typeE14EEEvv, symObjAddr: 0xBB98, symBinAddr: 0x2DC70, symSize: 0x4C }
  - { offset: 0x1172CF, size: 0x8, addend: 0x0, symName: __ZNSt3__119__throw_regex_errorB8ne180100ILNS_15regex_constants10error_typeE15EEEvv, symObjAddr: 0x1393C, symBinAddr: 0x35A00, symSize: 0x4C }
  - { offset: 0x11763C, size: 0x8, addend: 0x0, symName: __ZNSt3__119__throw_regex_errorB8ne180100ILNS_15regex_constants10error_typeE6EEEvv, symObjAddr: 0xC80C, symBinAddr: 0x2E8E4, symSize: 0x4C }
  - { offset: 0x1177EB, size: 0x8, addend: 0x0, symName: __ZNSt3__119__throw_regex_errorB8ne180100ILNS_15regex_constants10error_typeE11EEEvv, symObjAddr: 0xDF4C, symBinAddr: 0x30024, symSize: 0x4C }
  - { offset: 0x11782F, size: 0x8, addend: 0x0, symName: __ZNSt3__119__throw_regex_errorB8ne180100ILNS_15regex_constants10error_typeE8EEEvv, symObjAddr: 0x132F0, symBinAddr: 0x353B4, symSize: 0x4C }
  - { offset: 0x117855, size: 0x8, addend: 0x0, symName: __ZNSt3__119__throw_regex_errorB8ne180100ILNS_15regex_constants10error_typeE7EEEvv, symObjAddr: 0x1333C, symBinAddr: 0x35400, symSize: 0x4C }
  - { offset: 0x117984, size: 0x8, addend: 0x0, symName: __ZNSt3__119__throw_regex_errorB8ne180100ILNS_15regex_constants10error_typeE12EEEvv, symObjAddr: 0xD534, symBinAddr: 0x2F60C, symSize: 0x4C }
  - { offset: 0x1179AA, size: 0x8, addend: 0x0, symName: __ZNSt3__119__throw_regex_errorB8ne180100ILNS_15regex_constants10error_typeE16EEEvv, symObjAddr: 0xD580, symBinAddr: 0x2F658, symSize: 0x4C }
  - { offset: 0x11830C, size: 0x8, addend: 0x0, symName: __ZNSt3__119__throw_regex_errorB8ne180100ILNS_15regex_constants10error_typeE4EEEvv, symObjAddr: 0xE844, symBinAddr: 0x3091C, symSize: 0x4C }
  - { offset: 0x118332, size: 0x8, addend: 0x0, symName: __ZNSt3__119__throw_regex_errorB8ne180100ILNS_15regex_constants10error_typeE3EEEvv, symObjAddr: 0xE090, symBinAddr: 0x30168, symSize: 0x4C }
  - { offset: 0x118358, size: 0x8, addend: 0x0, symName: __ZNSt3__119__throw_regex_errorB8ne180100ILNS_15regex_constants10error_typeE5EEEvv, symObjAddr: 0x108D4, symBinAddr: 0x32998, symSize: 0x4C }
  - { offset: 0x1190F4, size: 0x8, addend: 0x0, symName: __ZNSt3__119__throw_regex_errorB8ne180100ILNS_15regex_constants10error_typeE1EEEvv, symObjAddr: 0x11EF4, symBinAddr: 0x33FB8, symSize: 0x4C }
  - { offset: 0x11911A, size: 0x8, addend: 0x0, symName: __ZNSt3__119__throw_regex_errorB8ne180100ILNS_15regex_constants10error_typeE2EEEvv, symObjAddr: 0x1261C, symBinAddr: 0x346E0, symSize: 0x4C }
  - { offset: 0x11917C, size: 0x8, addend: 0x0, symName: __ZNSt3__119__throw_regex_errorB8ne180100ILNS_15regex_constants10error_typeE9EEEvv, symObjAddr: 0x12E1C, symBinAddr: 0x34EE0, symSize: 0x4C }
  - { offset: 0x119D84, size: 0x8, addend: 0x0, symName: __ZNSt3__135__uninitialized_allocator_copy_implB8ne180100INS_9allocatorINS_6vectorI21llama_grammar_elementNS1_IS3_EEEEEEPS5_S7_S7_EET2_RT_T0_T1_S8_, symObjAddr: 0x145E4, symBinAddr: 0x3661C, symSize: 0x100 }
  - { offset: 0x11A4B0, size: 0x8, addend: 0x0, symName: __ZNSt3__135__uninitialized_allocator_copy_implB8ne180100INS_9allocatorINS_6vectorIPK21llama_grammar_elementNS1_IS5_EEEEEEPS7_S9_S9_EET2_RT_T0_T1_SA_, symObjAddr: 0x14824, symBinAddr: 0x3685C, symSize: 0x100 }
  - { offset: 0x11AAB9, size: 0x8, addend: 0x0, symName: __ZNSt3__130__uninitialized_allocator_copyB8ne180100INS_9allocatorI29llama_grammar_trigger_patternEEPS2_S4_S4_EET2_RT_T0_T1_S5_, symObjAddr: 0x14A70, symBinAddr: 0x36AA8, symSize: 0xF4 }
  - { offset: 0x12064D, size: 0x8, addend: 0x0, symName: __ZN20llama_grammar_parser13get_symbol_idEPKcm, symObjAddr: 0x0, symBinAddr: 0x22474, symSize: 0xFC }
  - { offset: 0x120CED, size: 0x8, addend: 0x0, symName: __ZNSt3__16__treeINS_12__value_typeINS_12basic_stringIcNS_11char_traitsIcEENS_9allocatorIcEEEEjEENS_19__map_value_compareIS7_S8_NS_4lessIS7_EELb1EEENS5_IS8_EEE25__emplace_unique_key_argsIS7_JS7_RjEEENS_4pairINS_15__tree_iteratorIS8_PNS_11__tree_nodeIS8_PvEElEEbEERKT_DpOT0_, symObjAddr: 0xA338, symBinAddr: 0x2C5D8, symSize: 0x184 }
  - { offset: 0x121288, size: 0x8, addend: 0x0, symName: __ZNSt3__16__treeINS_12__value_typeINS_12basic_stringIcNS_11char_traitsIcEENS_9allocatorIcEEEEjEENS_19__map_value_compareIS7_S8_NS_4lessIS7_EELb1EEENS5_IS8_EEE25__emplace_unique_key_argsIS7_JS7_RjEEENS_4pairINS_15__tree_iteratorIS8_PNS_11__tree_nodeIS8_PvEElEEbEERKT_DpOT0_, symObjAddr: 0xA338, symBinAddr: 0x2C5D8, symSize: 0x184 }
  - { offset: 0x12143E, size: 0x8, addend: 0x0, symName: __ZN20llama_grammar_parser18generate_symbol_idERKNSt3__112basic_stringIcNS0_11char_traitsIcEENS0_9allocatorIcEEEE, symObjAddr: 0xFC, symBinAddr: 0x22570, symSize: 0x20C }
  - { offset: 0x122060, size: 0x8, addend: 0x0, symName: __ZNSt3__16__treeINS_12__value_typeINS_12basic_stringIcNS_11char_traitsIcEENS_9allocatorIcEEEEjEENS_19__map_value_compareIS7_S8_NS_4lessIS7_EELb1EEENS5_IS8_EEE25__emplace_unique_key_argsIS7_JRKNS_21piecewise_construct_tENS_5tupleIJOS7_EEENSJ_IJEEEEEENS_4pairINS_15__tree_iteratorIS8_PNS_11__tree_nodeIS8_PvEElEEbEERKT_DpOT0_, symObjAddr: 0xA670, symBinAddr: 0x2C75C, symSize: 0x178 }
  - { offset: 0x122863, size: 0x8, addend: 0x0, symName: __ZN20llama_grammar_parser8add_ruleEjRKNSt3__16vectorI21llama_grammar_elementNS0_9allocatorIS2_EEEE, symObjAddr: 0x308, symBinAddr: 0x2277C, symSize: 0xE4 }
  - { offset: 0x122B84, size: 0x8, addend: 0x0, symName: __ZNSt3__16vectorINS0_I21llama_grammar_elementNS_9allocatorIS1_EEEENS2_IS4_EEE8__appendEm, symObjAddr: 0xA7E8, symBinAddr: 0x2C8D4, symSize: 0x1F4 }
  - { offset: 0x123223, size: 0x8, addend: 0x0, symName: __ZNKSt3__16vectorINS0_I21llama_grammar_elementNS_9allocatorIS1_EEEENS2_IS4_EEE20__throw_length_errorB8ne180100Ev, symObjAddr: 0xA9DC, symBinAddr: 0x2CAC8, symSize: 0x14 }
  - { offset: 0x12322E, size: 0x8, addend: 0x0, symName: __ZNSt3__16vectorI21llama_grammar_elementNS_9allocatorIS1_EEE18__assign_with_sizeB8ne180100IPS1_S6_EEvT_T0_l, symObjAddr: 0xA9F0, symBinAddr: 0x2CADC, symSize: 0x144 }
  - { offset: 0x123C1A, size: 0x8, addend: 0x0, symName: __ZNSt3__16__treeINS_12__value_typeIjNS_12basic_stringIcNS_11char_traitsIcEENS_9allocatorIcEEEEEENS_19__map_value_compareIjS8_NS_4lessIjEELb1EEENS5_IS8_EEE7destroyEPNS_11__tree_nodeIS8_PvEE, symObjAddr: 0xAB34, symBinAddr: 0x2CC20, symSize: 0x60 }
  - { offset: 0x124019, size: 0x8, addend: 0x0, symName: __ZN20llama_grammar_parser16parse_alternatesEPKcRKNSt3__112basic_stringIcNS2_11char_traitsIcEENS2_9allocatorIcEEEEjb, symObjAddr: 0x3EC, symBinAddr: 0x22860, symSize: 0x4D4 }
  - { offset: 0x124EB2, size: 0x8, addend: 0x0, symName: __ZN20llama_grammar_parser14parse_sequenceEPKcRKNSt3__112basic_stringIcNS2_11char_traitsIcEENS2_9allocatorIcEEEERNS2_6vectorI21llama_grammar_elementNS6_ISC_EEEEb, symObjAddr: 0x8C0, symBinAddr: 0x22D34, symSize: 0x1A00 }
  - { offset: 0x127CA8, size: 0x8, addend: 0x0, symName: __ZNKSt3__16vectorI21llama_grammar_elementNS_9allocatorIS1_EEE20__throw_length_errorB8ne180100Ev, symObjAddr: 0x978C, symBinAddr: 0x2BB50, symSize: 0x14 }
  - { offset: 0x127D17, size: 0x8, addend: 0x0, symName: __ZL10parse_namePKc, symObjAddr: 0x2518, symBinAddr: 0x2498C, symSize: 0x13C }
  - { offset: 0x127FFD, size: 0x8, addend: 0x0, symName: __ZL10parse_charPKc, symObjAddr: 0x22C0, symBinAddr: 0x24734, symSize: 0x258 }
  - { offset: 0x128337, size: 0x8, addend: 0x0, symName: __ZL9parse_intPKc, symObjAddr: 0x30D8, symBinAddr: 0x2549C, symSize: 0x124 }
  - { offset: 0x128636, size: 0x8, addend: 0x0, symName: '__ZZN20llama_grammar_parser14parse_sequenceEPKcRKNSt3__112basic_stringIcNS2_11char_traitsIcEENS2_9allocatorIcEEEERNS2_6vectorI21llama_grammar_elementNS6_ISC_EEEEbENK3$_0clEii', symObjAddr: 0x2704, symBinAddr: 0x24AC8, symSize: 0x9D4 }
  - { offset: 0x12ABE8, size: 0x8, addend: 0x0, symName: '__ZZN20llama_grammar_parser14parse_sequenceEPKcRKNSt3__112basic_stringIcNS2_11char_traitsIcEENS2_9allocatorIcEEEERNS2_6vectorI21llama_grammar_elementNS6_ISC_EEEEbENK3$_0clEii', symObjAddr: 0x2704, symBinAddr: 0x24AC8, symSize: 0x9D4 }
  - { offset: 0x12AC7C, size: 0x8, addend: 0x0, symName: __ZL9parse_hexPKci, symObjAddr: 0x9568, symBinAddr: 0x2B92C, symSize: 0x224 }
  - { offset: 0x12B75D, size: 0x8, addend: 0x0, symName: __ZNSt3__16vectorI21llama_grammar_elementNS_9allocatorIS1_EEE18__insert_with_sizeB8ne180100INS_11__wrap_iterIPS1_EES8_EES8_NS6_IPKS1_EET_T0_l, symObjAddr: 0x99E4, symBinAddr: 0x2BD0C, symSize: 0x3BC }
  - { offset: 0x12C3CC, size: 0x8, addend: 0x0, symName: __ZNSt3__16vectorI21llama_grammar_elementNS_9allocatorIS1_EEE8__appendEm, symObjAddr: 0x983C, symBinAddr: 0x2BB64, symSize: 0x1A8 }
  - { offset: 0x12C83D, size: 0x8, addend: 0x0, symName: __ZNSt3__16vectorI21llama_grammar_elementNS_9allocatorIS1_EEE18__insert_with_sizeB8ne180100INS_11__wrap_iterIPS1_EES8_EES8_NS6_IPKS1_EET_T0_l, symObjAddr: 0x99E4, symBinAddr: 0x2BD0C, symSize: 0x3BC }
  - { offset: 0x12C848, size: 0x8, addend: 0x0, symName: __ZN20llama_grammar_parser10parse_ruleEPKc, symObjAddr: 0x31FC, symBinAddr: 0x255C0, symSize: 0x444 }
  - { offset: 0x12D5D5, size: 0x8, addend: 0x0, symName: __ZN20llama_grammar_parser5parseEPKc, symObjAddr: 0x3640, symBinAddr: 0x25A04, symSize: 0x368 }
  - { offset: 0x12E618, size: 0x8, addend: 0x0, symName: __ZN20llama_grammar_parser5printEP7__sFILE, symObjAddr: 0x39A8, symBinAddr: 0x25D6C, symSize: 0x9A0 }
  - { offset: 0x1300BF, size: 0x8, addend: 0x0, symName: __ZNSt3__16__treeINS_12__value_typeIjNS_12basic_stringIcNS_11char_traitsIcEENS_9allocatorIcEEEEEENS_19__map_value_compareIjS8_NS_4lessIjEELb1EEENS5_IS8_EEE7destroyEPNS_11__tree_nodeIS8_PvEE, symObjAddr: 0xAB34, symBinAddr: 0x2CC20, symSize: 0x60 }
  - { offset: 0x130808, size: 0x8, addend: 0x0, symName: __ZNK20llama_grammar_parser7c_rulesEv, symObjAddr: 0x4348, symBinAddr: 0x2670C, symSize: 0x27C }
  - { offset: 0x130F9A, size: 0x8, addend: 0x0, symName: __ZNKSt3__16vectorIPK21llama_grammar_elementNS_9allocatorIS3_EEE20__throw_length_errorB8ne180100Ev, symObjAddr: 0xA020, symBinAddr: 0x2C2D4, symSize: 0x14 }
  - { offset: 0x130FC4, size: 0x8, addend: 0x0, symName: __ZNSt3__114__split_bufferINS_6vectorIPK21llama_grammar_elementNS_9allocatorIS4_EEEERNS5_IS7_EEED1Ev, symObjAddr: 0xA034, symBinAddr: 0x2C2E8, symSize: 0x6C }
  - { offset: 0x130FCF, size: 0x8, addend: 0x0, symName: __Z23llama_grammar_get_rulesPK13llama_grammar, symObjAddr: 0x45C4, symBinAddr: 0x26988, symSize: 0x8 }
  - { offset: 0x131000, size: 0x8, addend: 0x0, symName: __Z24llama_grammar_get_stacksP13llama_grammar, symObjAddr: 0x45CC, symBinAddr: 0x26990, symSize: 0x8 }
  - { offset: 0x1315D3, size: 0x8, addend: 0x0, symName: __Z20llama_grammar_acceptP13llama_grammarj, symObjAddr: 0x45D4, symBinAddr: 0x26998, symSize: 0x440 }
  - { offset: 0x1322E1, size: 0x8, addend: 0x0, symName: __ZNSt3__16vectorINS0_IPK21llama_grammar_elementNS_9allocatorIS3_EEEENS4_IS6_EEE7reserveEm, symObjAddr: 0x4A14, symBinAddr: 0x26DD8, symSize: 0x12C }
  - { offset: 0x1327F7, size: 0x8, addend: 0x0, symName: __ZL27llama_grammar_advance_stackRKNSt3__16vectorINS0_I21llama_grammar_elementNS_9allocatorIS1_EEEENS2_IS4_EEEERKNS0_IPKS1_NS2_ISA_EEEERNS0_ISC_NS2_ISC_EEEE, symObjAddr: 0x4B40, symBinAddr: 0x26F04, symSize: 0x5B4 }
  - { offset: 0x132809, size: 0x8, addend: 0x0, symName: __ZL27llama_grammar_advance_stackRKNSt3__16vectorINS0_I21llama_grammar_elementNS_9allocatorIS1_EEEENS2_IS4_EEEERKNS0_IPKS1_NS2_ISA_EEEERNS0_ISC_NS2_ISC_EEEE, symObjAddr: 0x4B40, symBinAddr: 0x26F04, symSize: 0x5B4 }
  - { offset: 0x133DE5, size: 0x8, addend: 0x0, symName: __ZNSt3__16vectorINS0_IPK21llama_grammar_elementNS_9allocatorIS3_EEEENS4_IS6_EEED1B8ne180100Ev, symObjAddr: 0x50F4, symBinAddr: 0x274B8, symSize: 0x74 }
  - { offset: 0x1342D4, size: 0x8, addend: 0x0, symName: __ZNKSt3__16vectorINS0_IPK21llama_grammar_elementNS_9allocatorIS3_EEEENS4_IS6_EEE20__throw_length_errorB8ne180100Ev, symObjAddr: 0xA0A0, symBinAddr: 0x2C354, symSize: 0x14 }
  - { offset: 0x1342FE, size: 0x8, addend: 0x0, symName: __ZNSt3__110shared_ptrINS_13__empty_stateIcEEED1B8ne180100Ev, symObjAddr: 0xA0B4, symBinAddr: 0x2C368, symSize: 0x60 }
  - { offset: 0x134706, size: 0x8, addend: 0x0, symName: __ZNSt3__16vectorINS0_IPK21llama_grammar_elementNS_9allocatorIS3_EEEENS4_IS6_EEE24__emplace_back_slow_pathIJRKS6_EEEPS6_DpOT_, symObjAddr: 0x9E14, symBinAddr: 0x2C0C8, symSize: 0x20C }
  - { offset: 0x1358AF, size: 0x8, addend: 0x0, symName: __Z41llama_grammar_reject_candidates_for_stackRKNSt3__16vectorINS0_I21llama_grammar_elementNS_9allocatorIS1_EEEENS2_IS4_EEEERKNS0_IPKS1_NS2_ISA_EEEERKNS0_I23llama_grammar_candidateNS2_ISF_EEEE, symObjAddr: 0x5168, symBinAddr: 0x2752C, symSize: 0xE20 }
  - { offset: 0x138556, size: 0x8, addend: 0x0, symName: __ZL31llama_grammar_reject_candidatesRKNSt3__16vectorINS0_I21llama_grammar_elementNS_9allocatorIS1_EEEENS2_IS4_EEEERKNS0_INS0_IPKS1_NS2_ISA_EEEENS2_ISC_EEEERKNS0_I23llama_grammar_candidateNS2_ISH_EEEE, symObjAddr: 0x5F88, symBinAddr: 0x2834C, symSize: 0x128 }
  - { offset: 0x13896F, size: 0x8, addend: 0x0, symName: __ZNKSt3__16vectorI23llama_grammar_candidateNS_9allocatorIS1_EEE20__throw_length_errorB8ne180100Ev, symObjAddr: 0xAB94, symBinAddr: 0x2CC80, symSize: 0x14 }
  - { offset: 0x138999, size: 0x8, addend: 0x0, symName: __ZNKSt3__16vectorIbNS_9allocatorIbEEE20__throw_length_errorB8ne180100Ev, symObjAddr: 0xABA8, symBinAddr: 0x2CC94, symSize: 0x14 }
  - { offset: 0x138F35, size: 0x8, addend: 0x0, symName: __Z23llama_grammar_init_implPK11llama_vocabPPK21llama_grammar_elementmm, symObjAddr: 0x60B0, symBinAddr: 0x28474, symSize: 0x7EC }
  - { offset: 0x13AE6C, size: 0x8, addend: 0x0, symName: __ZNSt3__16vectorINS0_I21llama_grammar_elementNS_9allocatorIS1_EEEENS2_IS4_EEEC1Em, symObjAddr: 0x689C, symBinAddr: 0x28C60, symSize: 0xC8 }
  - { offset: 0x13B0CF, size: 0x8, addend: 0x0, symName: __ZL35llama_grammar_detect_left_recursionRKNSt3__16vectorINS0_I21llama_grammar_elementNS_9allocatorIS1_EEEENS2_IS4_EEEEmPNS0_IbNS2_IbEEEESB_SB_, symObjAddr: 0x6964, symBinAddr: 0x28D28, symSize: 0x1A0 }
  - { offset: 0x13B448, size: 0x8, addend: 0x0, symName: __ZNKSt3__16vectorIbNS_9allocatorIbEEE20__throw_length_errorB8ne180100Ev, symObjAddr: 0xABA8, symBinAddr: 0x2CC94, symSize: 0x14 }
  - { offset: 0x13B47D, size: 0x8, addend: 0x0, symName: __ZNSt3__16vectorINS0_I21llama_grammar_elementNS_9allocatorIS1_EEEENS2_IS4_EEED1B8ne180100Ev, symObjAddr: 0x6B04, symBinAddr: 0x28EC8, symSize: 0x74 }
  - { offset: 0x13B8D1, size: 0x8, addend: 0x0, symName: __ZNKSt3__16vectorINS0_I21llama_grammar_elementNS_9allocatorIS1_EEEENS2_IS4_EEE20__throw_length_errorB8ne180100Ev, symObjAddr: 0xA9DC, symBinAddr: 0x2CAC8, symSize: 0x14 }
  - { offset: 0x13B8FB, size: 0x8, addend: 0x0, symName: __ZNSt3__16vectorI21llama_grammar_elementNS_9allocatorIS1_EEE18__assign_with_sizeB8ne180100IPS1_S6_EEvT_T0_l, symObjAddr: 0xA9F0, symBinAddr: 0x2CADC, symSize: 0x144 }
  - { offset: 0x13B906, size: 0x8, addend: 0x0, symName: __ZNSt3__16vectorINS0_I21llama_grammar_elementNS_9allocatorIS1_EEEENS2_IS4_EEEC1Em.cold.1, symObjAddr: 0x1773C, symBinAddr: 0x1C918C, symSize: 0x48 }
  - { offset: 0x13C93A, size: 0x8, addend: 0x0, symName: __Z23llama_grammar_init_implPK11llama_vocabPKcS3_bPS3_mPKim, symObjAddr: 0x6B78, symBinAddr: 0x28F3C, symSize: 0xFB8 }
  - { offset: 0x140D8E, size: 0x8, addend: 0x0, symName: __ZNSt3__16__treeINS_12__value_typeINS_12basic_stringIcNS_11char_traitsIcEENS_9allocatorIcEEEEjEENS_19__map_value_compareIS7_S8_NS_4lessIS7_EELb1EEENS5_IS8_EEE7destroyEPNS_11__tree_nodeIS8_PvEE, symObjAddr: 0xA114, symBinAddr: 0x2C3C8, symSize: 0x60 }
  - { offset: 0x14100D, size: 0x8, addend: 0x0, symName: __ZNSt3__16vectorI29llama_grammar_trigger_patternNS_9allocatorIS1_EEE24__emplace_back_slow_pathIJEEEPS1_DpOT_, symObjAddr: 0xABD0, symBinAddr: 0x2CCA8, symSize: 0x2B0 }
  - { offset: 0x141CA9, size: 0x8, addend: 0x0, symName: __ZNSt3__111basic_regexIcNS_12regex_traitsIcEEEC2B8ne180100INS_11char_traitsIcEENS_9allocatorIcEEEERKNS_12basic_stringIcT_T0_EENS_15regex_constants18syntax_option_typeE, symObjAddr: 0xAFB8, symBinAddr: 0x2D090, symSize: 0xD8 }
  - { offset: 0x141E8B, size: 0x8, addend: 0x0, symName: __ZNSt3__16vectorI29llama_grammar_trigger_patternNS_9allocatorIS1_EEE24__emplace_back_slow_pathIJEEEPS1_DpOT_, symObjAddr: 0xABD0, symBinAddr: 0x2CCA8, symSize: 0x2B0 }
  - { offset: 0x141E96, size: 0x8, addend: 0x0, symName: __ZN20llama_grammar_parserD1Ev, symObjAddr: 0x7C4C, symBinAddr: 0x2A010, symSize: 0x80 }
  - { offset: 0x142212, size: 0x8, addend: 0x0, symName: __ZNSt3__16vectorI29llama_grammar_trigger_patternNS_9allocatorIS1_EEED1B8ne180100Ev, symObjAddr: 0x7B90, symBinAddr: 0x29F54, symSize: 0xBC }
  - { offset: 0x1425AB, size: 0x8, addend: 0x0, symName: __ZNSt3__111basic_regexIcNS_12regex_traitsIcEEED1Ev, symObjAddr: 0x7B30, symBinAddr: 0x29EF4, symSize: 0x60 }
  - { offset: 0x142EE8, size: 0x8, addend: 0x0, symName: __Z23llama_grammar_free_implP13llama_grammar, symObjAddr: 0x7CCC, symBinAddr: 0x2A090, symSize: 0x1C }
  - { offset: 0x142F3E, size: 0x8, addend: 0x0, symName: __ZN13llama_grammarD2Ev, symObjAddr: 0xA174, symBinAddr: 0x2C428, symSize: 0x19C }
  - { offset: 0x143D2B, size: 0x8, addend: 0x0, symName: __Z24llama_grammar_clone_implRK13llama_grammar, symObjAddr: 0x7CE8, symBinAddr: 0x2A0AC, symSize: 0x2D0 }
  - { offset: 0x1444E4, size: 0x8, addend: 0x0, symName: __ZNSt3__16vectorINS0_I21llama_grammar_elementNS_9allocatorIS1_EEEENS2_IS4_EEEC2ERKS6_, symObjAddr: 0x14510, symBinAddr: 0x36548, symSize: 0xD4 }
  - { offset: 0x144794, size: 0x8, addend: 0x0, symName: __ZNSt3__16vectorINS0_IPK21llama_grammar_elementNS_9allocatorIS3_EEEENS4_IS6_EEEC2ERKS8_, symObjAddr: 0x14750, symBinAddr: 0x36788, symSize: 0xD4 }
  - { offset: 0x144C59, size: 0x8, addend: 0x0, symName: __ZNSt3__16vectorINS0_I21llama_grammar_elementNS_9allocatorIS1_EEEENS2_IS4_EEEC2ERKS6_, symObjAddr: 0x14510, symBinAddr: 0x36548, symSize: 0xD4 }
  - { offset: 0x144C6A, size: 0x8, addend: 0x0, symName: __ZNSt3__16vectorI29llama_grammar_trigger_patternNS_9allocatorIS1_EEEC2ERKS4_, symObjAddr: 0x14990, symBinAddr: 0x369C8, symSize: 0xE0 }
  - { offset: 0x1453D7, size: 0x8, addend: 0x0, symName: __Z24llama_grammar_apply_implRK13llama_grammarP22llama_token_data_array, symObjAddr: 0x7FB8, symBinAddr: 0x2A37C, symSize: 0x4E8 }
  - { offset: 0x14684E, size: 0x8, addend: 0x0, symName: __ZNSt3__16vectorINS_4pairINS0_IjNS_9allocatorIjEEEE18llama_partial_utf8EENS2_IS6_EEE7reserveEm, symObjAddr: 0x84A0, symBinAddr: 0x2A864, symSize: 0x10C }
  - { offset: 0x146DE6, size: 0x8, addend: 0x0, symName: __ZL11decode_utf8RKNSt3__112basic_stringIcNS_11char_traitsIcEENS_9allocatorIcEEEE18llama_partial_utf8, symObjAddr: 0x85AC, symBinAddr: 0x2A970, symSize: 0x94C }
  - { offset: 0x146DF8, size: 0x8, addend: 0x0, symName: __ZNSt3__16vectorINS_4pairINS0_IjNS_9allocatorIjEEEE18llama_partial_utf8EENS2_IS6_EEE21__push_back_slow_pathIS6_EEPS6_OT_, symObjAddr: 0x14B78, symBinAddr: 0x36BB0, symSize: 0x154 }
  - { offset: 0x1474D8, size: 0x8, addend: 0x0, symName: __ZNKSt3__111basic_regexIcNS_12regex_traitsIcEEE8__searchINS_9allocatorINS_9sub_matchIPKcEEEEEEbS8_S8_RNS_13match_resultsIS8_T_EENS_15regex_constants15match_flag_typeE, symObjAddr: 0x14CCC, symBinAddr: 0x36D04, symSize: 0x30C }
  - { offset: 0x1474EC, size: 0x8, addend: 0x0, symName: __ZNSt3__16vectorINS_4pairINS0_IjNS_9allocatorIjEEEE18llama_partial_utf8EENS2_IS6_EEED1B8ne180100Ev, symObjAddr: 0x8EF8, symBinAddr: 0x2B2BC, symSize: 0x74 }
  - { offset: 0x14797E, size: 0x8, addend: 0x0, symName: __ZNKSt3__16vectorINS_4pairINS0_IjNS_9allocatorIjEEEE18llama_partial_utf8EENS2_IS6_EEE20__throw_length_errorB8ne180100Ev, symObjAddr: 0x14B64, symBinAddr: 0x36B9C, symSize: 0x14 }
  - { offset: 0x1479A8, size: 0x8, addend: 0x0, symName: __ZNSt3__16vectorINS_4pairINS0_IjNS_9allocatorIjEEEE18llama_partial_utf8EENS2_IS6_EEE21__push_back_slow_pathIS6_EEPS6_OT_, symObjAddr: 0x14B78, symBinAddr: 0x36BB0, symSize: 0x154 }
  - { offset: 0x147F3F, size: 0x8, addend: 0x0, symName: __ZNKSt3__16vectorIjNS_9allocatorIjEEE20__throw_length_errorB8ne180100Ev, symObjAddr: 0xA310, symBinAddr: 0x2C5C4, symSize: 0x14 }
  - { offset: 0x148669, size: 0x8, addend: 0x0, symName: __Z25llama_grammar_accept_implR13llama_grammari, symObjAddr: 0x8F6C, symBinAddr: 0x2B330, symSize: 0x4BC }
  - { offset: 0x149F2F, size: 0x8, addend: 0x0, symName: __ZNKSt3__111basic_regexIcNS_12regex_traitsIcEEE8__searchINS_9allocatorINS_9sub_matchIPKcEEEEEEbS8_S8_RNS_13match_resultsIS8_T_EENS_15regex_constants15match_flag_typeE, symObjAddr: 0x14CCC, symBinAddr: 0x36D04, symSize: 0x30C }
  - { offset: 0x14A4F9, size: 0x8, addend: 0x0, symName: __ZNSt3__113match_resultsINS_11__wrap_iterIPKcEENS_9allocatorINS_9sub_matchIS4_EEEEE8__assignB8ne180100IS3_NS5_INS6_IS3_EEEEEEvS4_S4_RKNS0_IT_T0_EEb, symObjAddr: 0x14FD8, symBinAddr: 0x37010, symSize: 0x1BC }
  - { offset: 0x14AC73, size: 0x8, addend: 0x0, symName: __Z24llama_grammar_accept_strR13llama_grammarRKNSt3__112basic_stringIcNS1_11char_traitsIcEENS1_9allocatorIcEEEE, symObjAddr: 0x9428, symBinAddr: 0x2B7EC, symSize: 0x140 }
  - { offset: 0x14B1B4, size: 0x8, addend: 0x0, symName: __ZNSt3__14pairINS_12basic_stringIcNS_11char_traitsIcEENS_9allocatorIcEEEES6_ED1Ev, symObjAddr: 0x1022C, symBinAddr: 0x322F0, symSize: 0x58 }
  - { offset: 0x14B7C0, size: 0x8, addend: 0x0, symName: __ZNSt3__114__split_bufferINS_6vectorIPK21llama_grammar_elementNS_9allocatorIS4_EEEERNS5_IS7_EEED1Ev, symObjAddr: 0xA034, symBinAddr: 0x2C2E8, symSize: 0x6C }
  - { offset: 0x14BA2D, size: 0x8, addend: 0x0, symName: __ZNSt3__110shared_ptrINS_13__empty_stateIcEEED1B8ne180100Ev, symObjAddr: 0xA0B4, symBinAddr: 0x2C368, symSize: 0x60 }
  - { offset: 0x14C7DA, size: 0x8, addend: 0x0, symName: __ZNKSt3__16vectorI29llama_grammar_trigger_patternNS_9allocatorIS1_EEE20__throw_length_errorB8ne180100Ev, symObjAddr: 0xAFA4, symBinAddr: 0x2D07C, symSize: 0x14 }
  - { offset: 0x14C804, size: 0x8, addend: 0x0, symName: __ZNSt3__111basic_regexIcNS_12regex_traitsIcEEEC2B8ne180100INS_11char_traitsIcEENS_9allocatorIcEEEERKNS_12basic_stringIcT_T0_EENS_15regex_constants18syntax_option_typeE, symObjAddr: 0xAFB8, symBinAddr: 0x2D090, symSize: 0xD8 }
  - { offset: 0x14C80F, size: 0x8, addend: 0x0, symName: __ZNSt3__114__split_bufferI29llama_grammar_trigger_patternRNS_9allocatorIS1_EEED1Ev, symObjAddr: 0xAEEC, symBinAddr: 0x2CFC4, symSize: 0xB8 }
  - { offset: 0x14CB9F, size: 0x8, addend: 0x0, symName: __ZNSt3__111basic_regexIcNS_12regex_traitsIcEEEC1B8ne180100Ev, symObjAddr: 0xAE80, symBinAddr: 0x2CF58, symSize: 0x6C }
  - { offset: 0x14CCA2, size: 0x8, addend: 0x0, symName: __ZNSt3__111basic_regexIcNS_12regex_traitsIcEEE7__parseINS_11__wrap_iterIPKcEEEET_S9_S9_, symObjAddr: 0xB090, symBinAddr: 0x2D168, symSize: 0x200 }
  - { offset: 0x14D74A, size: 0x8, addend: 0x0, symName: __ZNSt3__111basic_regexIcNS_12regex_traitsIcEEE13__parse_egrepINS_11__wrap_iterIPKcEEEET_S9_S9_, symObjAddr: 0xB9E0, symBinAddr: 0x2DAB8, symSize: 0x1B8 }
  - { offset: 0x14DCCF, size: 0x8, addend: 0x0, symName: __ZNSt3__111basic_regexIcNS_12regex_traitsIcEEE24__parse_extended_reg_expINS_11__wrap_iterIPKcEEEET_S9_S9_, symObjAddr: 0xB6C0, symBinAddr: 0x2D798, symSize: 0x168 }
  - { offset: 0x14E00B, size: 0x8, addend: 0x0, symName: __ZNSt3__111basic_regexIcNS_12regex_traitsIcEEE12__parse_grepINS_11__wrap_iterIPKcEEEET_S9_S9_, symObjAddr: 0xB828, symBinAddr: 0x2D900, symSize: 0x1B8 }
  - { offset: 0x14E01F, size: 0x8, addend: 0x0, symName: __ZNSt3__111basic_regexIcNS_12regex_traitsIcEEE16__parse_ecma_expINS_11__wrap_iterIPKcEEEET_S9_S9_, symObjAddr: 0xB2DC, symBinAddr: 0x2D3B4, symSize: 0x26C }
  - { offset: 0x14E5B4, size: 0x8, addend: 0x0, symName: __ZNSt3__111basic_regexIcNS_12regex_traitsIcEEE21__parse_basic_reg_expINS_11__wrap_iterIPKcEEEET_S9_S9_, symObjAddr: 0xB548, symBinAddr: 0x2D620, symSize: 0x178 }
  - { offset: 0x14E948, size: 0x8, addend: 0x0, symName: __ZNSt3__111basic_regexIcNS_12regex_traitsIcEEE24__parse_extended_reg_expINS_11__wrap_iterIPKcEEEET_S9_S9_, symObjAddr: 0xB6C0, symBinAddr: 0x2D798, symSize: 0x168 }
  - { offset: 0x14E95C, size: 0x8, addend: 0x0, symName: __ZNSt3__111basic_regexIcNS_12regex_traitsIcEEE12__parse_grepINS_11__wrap_iterIPKcEEEET_S9_S9_, symObjAddr: 0xB828, symBinAddr: 0x2D900, symSize: 0x1B8 }
  - { offset: 0x14F117, size: 0x8, addend: 0x0, symName: __ZNSt3__111basic_regexIcNS_12regex_traitsIcEEE17__parse_assertionINS_11__wrap_iterIPKcEEEET_S9_S9_, symObjAddr: 0xBDD4, symBinAddr: 0x2DEAC, symSize: 0x324 }
  - { offset: 0x14F80D, size: 0x8, addend: 0x0, symName: __ZNSt3__111basic_regexIcNS_12regex_traitsIcEEE12__parse_atomINS_11__wrap_iterIPKcEEEET_S9_S9_, symObjAddr: 0xC0F8, symBinAddr: 0x2E1D0, symSize: 0x268 }
  - { offset: 0x14FC4B, size: 0x8, addend: 0x0, symName: __ZNSt3__111basic_regexIcNS_12regex_traitsIcEEE23__parse_ERE_dupl_symbolINS_11__wrap_iterIPKcEEEET_S9_S9_PNS_16__owns_one_stateIcEEjj, symObjAddr: 0xC360, symBinAddr: 0x2E438, symSize: 0x3FC }
  - { offset: 0x14FC5F, size: 0x8, addend: 0x0, symName: __ZNSt3__111basic_regexIcNS_12regex_traitsIcEEE23__parse_ERE_dupl_symbolINS_11__wrap_iterIPKcEEEET_S9_S9_PNS_16__owns_one_stateIcEEjj, symObjAddr: 0xC360, symBinAddr: 0x2E438, symSize: 0x3FC }
  - { offset: 0x150328, size: 0x8, addend: 0x0, symName: __ZNSt3__111basic_regexIcNS_12regex_traitsIcEEE16__push_lookaheadERKS3_bj, symObjAddr: 0xC75C, symBinAddr: 0x2E834, symSize: 0xB0 }
  - { offset: 0x150548, size: 0x8, addend: 0x0, symName: __ZNSt3__111basic_regexIcNS_12regex_traitsIcEEE18__parse_nondupl_REINS_11__wrap_iterIPKcEEEET_S9_S9_, symObjAddr: 0x13988, symBinAddr: 0x35A4C, symSize: 0x204 }
  - { offset: 0x150AD3, size: 0x8, addend: 0x0, symName: __ZNSt3__111basic_regexIcNS_12regex_traitsIcEEE22__parse_RE_dupl_symbolINS_11__wrap_iterIPKcEEEET_S9_S9_PNS_16__owns_one_stateIcEEjj, symObjAddr: 0x13B8C, symBinAddr: 0x35C50, symSize: 0x2B0 }
  - { offset: 0x150AE7, size: 0x8, addend: 0x0, symName: __ZNSt3__111basic_regexIcNS_12regex_traitsIcEEE22__parse_RE_dupl_symbolINS_11__wrap_iterIPKcEEEET_S9_S9_PNS_16__owns_one_stateIcEEjj, symObjAddr: 0x13B8C, symBinAddr: 0x35C50, symSize: 0x2B0 }
  - { offset: 0x1510A4, size: 0x8, addend: 0x0, symName: __ZNSt3__111basic_regexIcNS_12regex_traitsIcEEE32__parse_one_char_or_coll_elem_REINS_11__wrap_iterIPKcEEEET_S9_S9_, symObjAddr: 0x13E3C, symBinAddr: 0x35F00, symSize: 0x15C }
  - { offset: 0x1510FD, size: 0x8, addend: 0x0, symName: __ZNSt3__111basic_regexIcNS_12regex_traitsIcEEE22__parse_ERE_expressionINS_11__wrap_iterIPKcEEEET_S9_S9_, symObjAddr: 0x140C0, symBinAddr: 0x36184, symSize: 0x288 }
  - { offset: 0x1515E5, size: 0x8, addend: 0x0, symName: __ZNSt3__111basic_regexIcNS_12regex_traitsIcEEE20__parse_ORD_CHAR_EREINS_11__wrap_iterIPKcEEEET_S9_S9_, symObjAddr: 0x14348, symBinAddr: 0x3640C, symSize: 0x78 }
  - { offset: 0x151615, size: 0x8, addend: 0x0, symName: __ZNSt3__111__end_stateIcED1Ev, symObjAddr: 0xBBE4, symBinAddr: 0x2DCBC, symSize: 0x4 }
  - { offset: 0x151641, size: 0x8, addend: 0x0, symName: __ZNSt3__111__end_stateIcED0Ev, symObjAddr: 0xBBE8, symBinAddr: 0x2DCC0, symSize: 0x4 }
  - { offset: 0x151661, size: 0x8, addend: 0x0, symName: __ZNKSt3__111__end_stateIcE6__execERNS_7__stateIcEE, symObjAddr: 0xBBEC, symBinAddr: 0x2DCC4, symSize: 0xC }
  - { offset: 0x151697, size: 0x8, addend: 0x0, symName: __ZNKSt3__16__nodeIcE12__exec_splitEbRNS_7__stateIcEE, symObjAddr: 0xBBF8, symBinAddr: 0x2DCD0, symSize: 0x4 }
  - { offset: 0x1516D7, size: 0x8, addend: 0x0, symName: __ZNKSt3__16__nodeIcE6__execERNS_7__stateIcEE, symObjAddr: 0xBBFC, symBinAddr: 0x2DCD4, symSize: 0x4 }
  - { offset: 0x151723, size: 0x8, addend: 0x0, symName: __ZNSt3__120__shared_ptr_pointerIPNS_13__empty_stateIcEENS_10shared_ptrIS2_E27__shared_ptr_default_deleteIS2_S2_EENS_9allocatorIS2_EEED1Ev, symObjAddr: 0xBC00, symBinAddr: 0x2DCD8, symSize: 0x4 }
  - { offset: 0x151745, size: 0x8, addend: 0x0, symName: __ZNSt3__120__shared_ptr_pointerIPNS_13__empty_stateIcEENS_10shared_ptrIS2_E27__shared_ptr_default_deleteIS2_S2_EENS_9allocatorIS2_EEED1Ev, symObjAddr: 0xBC00, symBinAddr: 0x2DCD8, symSize: 0x4 }
  - { offset: 0x15177B, size: 0x8, addend: 0x0, symName: __ZNSt3__120__shared_ptr_pointerIPNS_13__empty_stateIcEENS_10shared_ptrIS2_E27__shared_ptr_default_deleteIS2_S2_EENS_9allocatorIS2_EEED0Ev, symObjAddr: 0xBC04, symBinAddr: 0x2DCDC, symSize: 0x14 }
  - { offset: 0x1517DE, size: 0x8, addend: 0x0, symName: __ZNSt3__120__shared_ptr_pointerIPNS_13__empty_stateIcEENS_10shared_ptrIS2_E27__shared_ptr_default_deleteIS2_S2_EENS_9allocatorIS2_EEE16__on_zero_sharedEv, symObjAddr: 0xBC18, symBinAddr: 0x2DCF0, symSize: 0x18 }
  - { offset: 0x151886, size: 0x8, addend: 0x0, symName: __ZNKSt3__120__shared_ptr_pointerIPNS_13__empty_stateIcEENS_10shared_ptrIS2_E27__shared_ptr_default_deleteIS2_S2_EENS_9allocatorIS2_EEE13__get_deleterERKSt9type_info, symObjAddr: 0xBC30, symBinAddr: 0x2DD08, symSize: 0x7C }
  - { offset: 0x151989, size: 0x8, addend: 0x0, symName: __ZNSt3__120__shared_ptr_pointerIPNS_13__empty_stateIcEENS_10shared_ptrIS2_E27__shared_ptr_default_deleteIS2_S2_EENS_9allocatorIS2_EEE21__on_zero_shared_weakEv, symObjAddr: 0xBCAC, symBinAddr: 0x2DD84, symSize: 0x4 }
  - { offset: 0x1519BC, size: 0x8, addend: 0x0, symName: __ZNSt3__120__shared_ptr_pointerIPNS_13__empty_stateIcEENS_10shared_ptrIS2_E27__shared_ptr_default_deleteIS2_S2_EENS_9allocatorIS2_EEE21__on_zero_shared_weakEv, symObjAddr: 0xBCAC, symBinAddr: 0x2DD84, symSize: 0x4 }
  - { offset: 0x1519DE, size: 0x8, addend: 0x0, symName: __ZNSt3__120__shared_ptr_pointerIPNS_13__empty_stateIcEENS_10shared_ptrIS2_E27__shared_ptr_default_deleteIS2_S2_EENS_9allocatorIS2_EEE21__on_zero_shared_weakEv, symObjAddr: 0xBCAC, symBinAddr: 0x2DD84, symSize: 0x4 }
  - { offset: 0x151A0A, size: 0x8, addend: 0x0, symName: __ZNSt3__120__shared_ptr_pointerIPNS_13__empty_stateIcEENS_10shared_ptrIS2_E27__shared_ptr_default_deleteIS2_S2_EENS_9allocatorIS2_EEE21__on_zero_shared_weakEv, symObjAddr: 0xBCAC, symBinAddr: 0x2DD84, symSize: 0x4 }
  - { offset: 0x151A30, size: 0x8, addend: 0x0, symName: __ZNSt3__120__shared_ptr_pointerIPNS_13__empty_stateIcEENS_10shared_ptrIS2_E27__shared_ptr_default_deleteIS2_S2_EENS_9allocatorIS2_EEE21__on_zero_shared_weakEv, symObjAddr: 0xBCAC, symBinAddr: 0x2DD84, symSize: 0x4 }
  - { offset: 0x151A59, size: 0x8, addend: 0x0, symName: __ZNSt3__113__empty_stateIcED1Ev, symObjAddr: 0xBCB0, symBinAddr: 0x2DD88, symSize: 0x44 }
  - { offset: 0x151AC1, size: 0x8, addend: 0x0, symName: __ZNSt3__113__empty_stateIcED0Ev, symObjAddr: 0xBCF4, symBinAddr: 0x2DDCC, symSize: 0x44 }
  - { offset: 0x151B61, size: 0x8, addend: 0x0, symName: __ZNKSt3__113__empty_stateIcE6__execERNS_7__stateIcEE, symObjAddr: 0xBD38, symBinAddr: 0x2DE10, symSize: 0x14 }
  - { offset: 0x151BB4, size: 0x8, addend: 0x0, symName: __ZNSt3__116__owns_one_stateIcED1Ev, symObjAddr: 0xBD4C, symBinAddr: 0x2DE24, symSize: 0x44 }
  - { offset: 0x151C1B, size: 0x8, addend: 0x0, symName: __ZNSt3__116__owns_one_stateIcED0Ev, symObjAddr: 0xBD90, symBinAddr: 0x2DE68, symSize: 0x44 }
  - { offset: 0x151D8B, size: 0x8, addend: 0x0, symName: __ZNSt3__111basic_regexIcNS_12regex_traitsIcEEE16__push_lookaheadERKS3_bj, symObjAddr: 0xC75C, symBinAddr: 0x2E834, symSize: 0xB0 }
  - { offset: 0x152175, size: 0x8, addend: 0x0, symName: __ZNSt3__111basic_regexIcNS_12regex_traitsIcEEE26__parse_bracket_expressionINS_11__wrap_iterIPKcEEEET_S9_S9_, symObjAddr: 0xDDFC, symBinAddr: 0x2FED4, symSize: 0x150 }
  - { offset: 0x1523A5, size: 0x8, addend: 0x0, symName: __ZNSt3__111basic_regexIcNS_12regex_traitsIcEEE19__parse_atom_escapeINS_11__wrap_iterIPKcEEEET_S9_S9_, symObjAddr: 0xDC98, symBinAddr: 0x2FD70, symSize: 0x164 }
  - { offset: 0x15258E, size: 0x8, addend: 0x0, symName: __ZNSt3__111basic_regexIcNS_12regex_traitsIcEEE26__parse_bracket_expressionINS_11__wrap_iterIPKcEEEET_S9_S9_, symObjAddr: 0xDDFC, symBinAddr: 0x2FED4, symSize: 0x150 }
  - { offset: 0x1525A2, size: 0x8, addend: 0x0, symName: __ZNSt3__111basic_regexIcNS_12regex_traitsIcEEE25__parse_pattern_characterINS_11__wrap_iterIPKcEEEET_S9_S9_, symObjAddr: 0xDF98, symBinAddr: 0x30070, symSize: 0x70 }
  - { offset: 0x15277B, size: 0x8, addend: 0x0, symName: __ZNSt3__111basic_regexIcNS_12regex_traitsIcEEE11__push_loopEmmPNS_16__owns_one_stateIcEEmmb, symObjAddr: 0x131B8, symBinAddr: 0x3527C, symSize: 0x138 }
  - { offset: 0x152D2E, size: 0x8, addend: 0x0, symName: __ZNSt3__120__l_anchor_multilineIcED1Ev, symObjAddr: 0xC858, symBinAddr: 0x2E930, symSize: 0x44 }
  - { offset: 0x152DB3, size: 0x8, addend: 0x0, symName: __ZNSt3__120__l_anchor_multilineIcED0Ev, symObjAddr: 0xC89C, symBinAddr: 0x2E974, symSize: 0x44 }
  - { offset: 0x152E44, size: 0x8, addend: 0x0, symName: __ZNKSt3__120__l_anchor_multilineIcE6__execERNS_7__stateIcEE, symObjAddr: 0xC8E0, symBinAddr: 0x2E9B8, symSize: 0x60 }
  - { offset: 0x152EAB, size: 0x8, addend: 0x0, symName: __ZNSt3__120__r_anchor_multilineIcED1Ev, symObjAddr: 0xC940, symBinAddr: 0x2EA18, symSize: 0x44 }
  - { offset: 0x152F30, size: 0x8, addend: 0x0, symName: __ZNSt3__120__r_anchor_multilineIcED0Ev, symObjAddr: 0xC984, symBinAddr: 0x2EA5C, symSize: 0x44 }
  - { offset: 0x152FC1, size: 0x8, addend: 0x0, symName: __ZNKSt3__120__r_anchor_multilineIcE6__execERNS_7__stateIcEE, symObjAddr: 0xC9C8, symBinAddr: 0x2EAA0, symSize: 0x50 }
  - { offset: 0x153028, size: 0x8, addend: 0x0, symName: __ZNSt3__115__word_boundaryIcNS_12regex_traitsIcEEED1Ev, symObjAddr: 0xCA18, symBinAddr: 0x2EAF0, symSize: 0x58 }
  - { offset: 0x1530E7, size: 0x8, addend: 0x0, symName: __ZNSt3__115__word_boundaryIcNS_12regex_traitsIcEEED0Ev, symObjAddr: 0xCA70, symBinAddr: 0x2EB48, symSize: 0x58 }
  - { offset: 0x153210, size: 0x8, addend: 0x0, symName: __ZNKSt3__115__word_boundaryIcNS_12regex_traitsIcEEE6__execERNS_7__stateIcEE, symObjAddr: 0xCAC8, symBinAddr: 0x2EBA0, symSize: 0x154 }
  - { offset: 0x1533B6, size: 0x8, addend: 0x0, symName: __ZNSt3__111__lookaheadIcNS_12regex_traitsIcEEED1Ev, symObjAddr: 0xCC1C, symBinAddr: 0x2ECF4, symSize: 0x98 }
  - { offset: 0x153555, size: 0x8, addend: 0x0, symName: __ZNSt3__111__lookaheadIcNS_12regex_traitsIcEEED0Ev, symObjAddr: 0xCCB4, symBinAddr: 0x2ED8C, symSize: 0x98 }
  - { offset: 0x1537C7, size: 0x8, addend: 0x0, symName: __ZNKSt3__111__lookaheadIcNS_12regex_traitsIcEEE6__execERNS_7__stateIcEE, symObjAddr: 0xCD4C, symBinAddr: 0x2EE24, symSize: 0x188 }
  - { offset: 0x153D4E, size: 0x8, addend: 0x0, symName: __ZNSt3__16vectorINS_9sub_matchIPKcEENS_9allocatorIS4_EEE6assignEmRKS4_, symObjAddr: 0xD348, symBinAddr: 0x2F420, symSize: 0x198 }
  - { offset: 0x1542EA, size: 0x8, addend: 0x0, symName: __ZNKSt3__16vectorINS_9sub_matchIPKcEENS_9allocatorIS4_EEE20__throw_length_errorB8ne180100Ev, symObjAddr: 0xD4E0, symBinAddr: 0x2F5B8, symSize: 0x14 }
  - { offset: 0x1542FC, size: 0x8, addend: 0x0, symName: __ZNKSt3__111basic_regexIcNS_12regex_traitsIcEEE21__match_at_start_ecmaINS_9allocatorINS_9sub_matchIPKcEEEEEEbS8_S8_RNS_13match_resultsIS8_T_EENS_15regex_constants15match_flag_typeEb, symObjAddr: 0xCED4, symBinAddr: 0x2EFAC, symSize: 0x474 }
  - { offset: 0x155C1C, size: 0x8, addend: 0x0, symName: __ZNSt3__16vectorINS_7__stateIcEENS_9allocatorIS2_EEE21__push_back_slow_pathIS2_EEPS2_OT_, symObjAddr: 0xD64C, symBinAddr: 0x2F724, symSize: 0x1E4 }
  - { offset: 0x156505, size: 0x8, addend: 0x0, symName: __ZNKSt3__16vectorINS_7__stateIcEENS_9allocatorIS2_EEE20__throw_length_errorB8ne180100Ev, symObjAddr: 0xD830, symBinAddr: 0x2F908, symSize: 0x14 }
  - { offset: 0x156519, size: 0x8, addend: 0x0, symName: __ZNSt3__16vectorINS_9sub_matchIPKcEENS_9allocatorIS4_EEE8__appendEmRKS4_, symObjAddr: 0xD844, symBinAddr: 0x2F91C, symSize: 0x1A0 }
  - { offset: 0x156A7A, size: 0x8, addend: 0x0, symName: __ZNSt3__16vectorINS_4pairImPKcEENS_9allocatorIS4_EEE8__appendEm, symObjAddr: 0xD9E4, symBinAddr: 0x2FABC, symSize: 0x128 }
  - { offset: 0x156A85, size: 0x8, addend: 0x0, symName: __ZNSt3__16vectorINS_4pairImPKcEENS_9allocatorIS4_EEE8__appendEm, symObjAddr: 0xD9E4, symBinAddr: 0x2FABC, symSize: 0x128 }
  - { offset: 0x156F8B, size: 0x8, addend: 0x0, symName: __ZNKSt3__16vectorINS_4pairImPKcEENS_9allocatorIS4_EEE20__throw_length_errorB8ne180100Ev, symObjAddr: 0xDB0C, symBinAddr: 0x2FBE4, symSize: 0x14 }
  - { offset: 0x156F96, size: 0x8, addend: 0x0, symName: __ZNSt3__17__stateIcEC2ERKS1_, symObjAddr: 0xDB20, symBinAddr: 0x2FBF8, symSize: 0x178 }
  - { offset: 0x1575E0, size: 0x8, addend: 0x0, symName: __ZNSt3__16vectorINS_7__stateIcEENS_9allocatorIS2_EEED1B8ne180100Ev, symObjAddr: 0xD5CC, symBinAddr: 0x2F6A4, symSize: 0x80 }
  - { offset: 0x157A0B, size: 0x8, addend: 0x0, symName: __ZNSt3__17__stateIcED1Ev, symObjAddr: 0xD4F4, symBinAddr: 0x2F5CC, symSize: 0x40 }
  - { offset: 0x157F0B, size: 0x8, addend: 0x0, symName: __ZNKSt3__16vectorINS_9sub_matchIPKcEENS_9allocatorIS4_EEE20__throw_length_errorB8ne180100Ev, symObjAddr: 0xD4E0, symBinAddr: 0x2F5B8, symSize: 0x14 }
  - { offset: 0x157F35, size: 0x8, addend: 0x0, symName: __ZNSt3__17__stateIcED1Ev, symObjAddr: 0xD4F4, symBinAddr: 0x2F5CC, symSize: 0x40 }
  - { offset: 0x158144, size: 0x8, addend: 0x0, symName: __ZNKSt3__16vectorINS_7__stateIcEENS_9allocatorIS2_EEE20__throw_length_errorB8ne180100Ev, symObjAddr: 0xD830, symBinAddr: 0x2F908, symSize: 0x14 }
  - { offset: 0x15816E, size: 0x8, addend: 0x0, symName: __ZNSt3__16vectorINS_9sub_matchIPKcEENS_9allocatorIS4_EEE8__appendEmRKS4_, symObjAddr: 0xD844, symBinAddr: 0x2F91C, symSize: 0x1A0 }
  - { offset: 0x1587A0, size: 0x8, addend: 0x0, symName: __ZNKSt3__16vectorINS_4pairImPKcEENS_9allocatorIS4_EEE20__throw_length_errorB8ne180100Ev, symObjAddr: 0xDB0C, symBinAddr: 0x2FBE4, symSize: 0x14 }
  - { offset: 0x1587CA, size: 0x8, addend: 0x0, symName: __ZNSt3__17__stateIcEC2ERKS1_, symObjAddr: 0xDB20, symBinAddr: 0x2FBF8, symSize: 0x178 }
  - { offset: 0x158BF7, size: 0x8, addend: 0x0, symName: __ZNSt3__111basic_regexIcNS_12regex_traitsIcEEE11__push_charEc, symObjAddr: 0xE700, symBinAddr: 0x307D8, symSize: 0x144 }
  - { offset: 0x158F8E, size: 0x8, addend: 0x0, symName: __ZNSt3__111basic_regexIcNS_12regex_traitsIcEEE15__push_back_refEi, symObjAddr: 0xE890, symBinAddr: 0x30968, symSize: 0xCC }
  - { offset: 0x159143, size: 0x8, addend: 0x0, symName: __ZNSt3__111basic_regexIcNS_12regex_traitsIcEEE30__parse_character_class_escapeINS_11__wrap_iterIPKcEEEET_S9_S9_, symObjAddr: 0xE0DC, symBinAddr: 0x301B4, symSize: 0x248 }
  - { offset: 0x1595B7, size: 0x8, addend: 0x0, symName: __ZNSt3__111basic_regexIcNS_12regex_traitsIcEEE24__parse_character_escapeINS_11__wrap_iterIPKcEEEET_S9_S9_PNS_12basic_stringIcNS_11char_traitsIcEENS_9allocatorIcEEEE, symObjAddr: 0xE324, symBinAddr: 0x303FC, symSize: 0x3DC }
  - { offset: 0x159A58, size: 0x8, addend: 0x0, symName: __ZNSt3__111basic_regexIcNS_12regex_traitsIcEEE11__push_charEc, symObjAddr: 0xE700, symBinAddr: 0x307D8, symSize: 0x144 }
  - { offset: 0x159B45, size: 0x8, addend: 0x0, symName: __ZNSt3__120__bracket_expressionIcNS_12regex_traitsIcEEEC2B8ne180100ERKS2_PNS_6__nodeIcEEbbb, symObjAddr: 0xF524, symBinAddr: 0x315FC, symSize: 0x1B0 }
  - { offset: 0x15A258, size: 0x8, addend: 0x0, symName: __ZNSt3__120__bracket_expressionIcNS_12regex_traitsIcEEE10__add_charB8ne180100Ec, symObjAddr: 0xF094, symBinAddr: 0x3116C, symSize: 0x490 }
  - { offset: 0x15AA0B, size: 0x8, addend: 0x0, symName: __ZNSt3__120__bracket_expressionIcNS_12regex_traitsIcEEEC2B8ne180100ERKS2_PNS_6__nodeIcEEbbb, symObjAddr: 0xF524, symBinAddr: 0x315FC, symSize: 0x1B0 }
  - { offset: 0x15AA1D, size: 0x8, addend: 0x0, symName: __ZNSt3__111basic_regexIcNS_12regex_traitsIcEEE23__parse_expression_termINS_11__wrap_iterIPKcEEEET_S9_S9_PNS_20__bracket_expressionIcS2_EE, symObjAddr: 0x10920, symBinAddr: 0x329E4, symSize: 0x448 }
  - { offset: 0x15B910, size: 0x8, addend: 0x0, symName: __ZNSt3__123__match_any_but_newlineIcED1Ev, symObjAddr: 0xE008, symBinAddr: 0x300E0, symSize: 0x44 }
  - { offset: 0x15B995, size: 0x8, addend: 0x0, symName: __ZNSt3__123__match_any_but_newlineIcED0Ev, symObjAddr: 0xE04C, symBinAddr: 0x30124, symSize: 0x44 }
  - { offset: 0x15BE2D, size: 0x8, addend: 0x0, symName: __ZNSt3__118__match_char_icaseIcNS_12regex_traitsIcEEED1Ev, symObjAddr: 0xE95C, symBinAddr: 0x30A34, symSize: 0x58 }
  - { offset: 0x15BEEC, size: 0x8, addend: 0x0, symName: __ZNSt3__118__match_char_icaseIcNS_12regex_traitsIcEEED0Ev, symObjAddr: 0xE9B4, symBinAddr: 0x30A8C, symSize: 0x58 }
  - { offset: 0x15BFB7, size: 0x8, addend: 0x0, symName: __ZNKSt3__118__match_char_icaseIcNS_12regex_traitsIcEEE6__execERNS_7__stateIcEE, symObjAddr: 0xEA0C, symBinAddr: 0x30AE4, symSize: 0x84 }
  - { offset: 0x15C073, size: 0x8, addend: 0x0, symName: __ZNSt3__120__match_char_collateIcNS_12regex_traitsIcEEED1Ev, symObjAddr: 0xEA90, symBinAddr: 0x30B68, symSize: 0x58 }
  - { offset: 0x15C132, size: 0x8, addend: 0x0, symName: __ZNSt3__120__match_char_collateIcNS_12regex_traitsIcEEED0Ev, symObjAddr: 0xEAE8, symBinAddr: 0x30BC0, symSize: 0x58 }
  - { offset: 0x15C1FD, size: 0x8, addend: 0x0, symName: __ZNKSt3__120__match_char_collateIcNS_12regex_traitsIcEEE6__execERNS_7__stateIcEE, symObjAddr: 0xEB40, symBinAddr: 0x30C18, symSize: 0x48 }
  - { offset: 0x15C26D, size: 0x8, addend: 0x0, symName: __ZNSt3__112__match_charIcED1Ev, symObjAddr: 0xEB88, symBinAddr: 0x30C60, symSize: 0x44 }
  - { offset: 0x15C2F2, size: 0x8, addend: 0x0, symName: __ZNSt3__112__match_charIcED0Ev, symObjAddr: 0xEBCC, symBinAddr: 0x30CA4, symSize: 0x44 }
  - { offset: 0x15C383, size: 0x8, addend: 0x0, symName: __ZNKSt3__112__match_charIcE6__execERNS_7__stateIcEE, symObjAddr: 0xEC10, symBinAddr: 0x30CE8, symSize: 0x48 }
  - { offset: 0x15C3F3, size: 0x8, addend: 0x0, symName: __ZNSt3__116__back_ref_icaseIcNS_12regex_traitsIcEEED1Ev, symObjAddr: 0xEC58, symBinAddr: 0x30D30, symSize: 0x58 }
  - { offset: 0x15C4B2, size: 0x8, addend: 0x0, symName: __ZNSt3__116__back_ref_icaseIcNS_12regex_traitsIcEEED0Ev, symObjAddr: 0xECB0, symBinAddr: 0x30D88, symSize: 0x58 }
  - { offset: 0x15C57D, size: 0x8, addend: 0x0, symName: __ZNKSt3__116__back_ref_icaseIcNS_12regex_traitsIcEEE6__execERNS_7__stateIcEE, symObjAddr: 0xED08, symBinAddr: 0x30DE0, symSize: 0xF8 }
  - { offset: 0x15C6EA, size: 0x8, addend: 0x0, symName: __ZNSt3__118__back_ref_collateIcNS_12regex_traitsIcEEED1Ev, symObjAddr: 0xEE00, symBinAddr: 0x30ED8, symSize: 0x58 }
  - { offset: 0x15C7A9, size: 0x8, addend: 0x0, symName: __ZNSt3__118__back_ref_collateIcNS_12regex_traitsIcEEED0Ev, symObjAddr: 0xEE58, symBinAddr: 0x30F30, symSize: 0x58 }
  - { offset: 0x15C874, size: 0x8, addend: 0x0, symName: __ZNKSt3__118__back_ref_collateIcNS_12regex_traitsIcEEE6__execERNS_7__stateIcEE, symObjAddr: 0xEEB0, symBinAddr: 0x30F88, symSize: 0x90 }
  - { offset: 0x15C94C, size: 0x8, addend: 0x0, symName: __ZNSt3__110__back_refIcED1Ev, symObjAddr: 0xEF40, symBinAddr: 0x31018, symSize: 0x44 }
  - { offset: 0x15C9D1, size: 0x8, addend: 0x0, symName: __ZNSt3__110__back_refIcED0Ev, symObjAddr: 0xEF84, symBinAddr: 0x3105C, symSize: 0x44 }
  - { offset: 0x15CA62, size: 0x8, addend: 0x0, symName: __ZNKSt3__110__back_refIcE6__execERNS_7__stateIcEE, symObjAddr: 0xEFC8, symBinAddr: 0x310A0, symSize: 0xCC }
  - { offset: 0x15CBDF, size: 0x8, addend: 0x0, symName: __ZNSt3__120__bracket_expressionIcNS_12regex_traitsIcEEE10__add_charB8ne180100Ec, symObjAddr: 0xF094, symBinAddr: 0x3116C, symSize: 0x490 }
  - { offset: 0x15CF6E, size: 0x8, addend: 0x0, symName: __ZNKSt3__16vectorIcNS_9allocatorIcEEE20__throw_length_errorB8ne180100Ev, symObjAddr: 0x108C0, symBinAddr: 0x32984, symSize: 0x14 }
  - { offset: 0x15CF98, size: 0x8, addend: 0x0, symName: __ZNSt3__119__throw_regex_errorB8ne180100ILNS_15regex_constants10error_typeE5EEEvv, symObjAddr: 0x108D4, symBinAddr: 0x32998, symSize: 0x4C }
  - { offset: 0x15D1E1, size: 0x8, addend: 0x0, symName: __ZNSt3__16vectorINS_12basic_stringIcNS_11char_traitsIcEENS_9allocatorIcEEEENS4_IS6_EEED1B8ne180100Ev, symObjAddr: 0xF6D4, symBinAddr: 0x317AC, symSize: 0x70 }
  - { offset: 0x15D457, size: 0x8, addend: 0x0, symName: __ZNSt3__16vectorINS_4pairINS_12basic_stringIcNS_11char_traitsIcEENS_9allocatorIcEEEES7_EENS5_IS8_EEED1B8ne180100Ev, symObjAddr: 0xF744, symBinAddr: 0x3181C, symSize: 0x8C }
  - { offset: 0x15DA8B, size: 0x8, addend: 0x0, symName: __ZNSt3__120__bracket_expressionIcNS_12regex_traitsIcEEED1Ev, symObjAddr: 0xF7D0, symBinAddr: 0x318A8, symSize: 0x4 }
  - { offset: 0x15DAAE, size: 0x8, addend: 0x0, symName: __ZNSt3__120__bracket_expressionIcNS_12regex_traitsIcEEED1Ev, symObjAddr: 0xF7D0, symBinAddr: 0x318A8, symSize: 0x4 }
  - { offset: 0x15DAC1, size: 0x8, addend: 0x0, symName: __ZNSt3__120__bracket_expressionIcNS_12regex_traitsIcEEED2Ev, symObjAddr: 0x10284, symBinAddr: 0x32348, symSize: 0x140 }
  - { offset: 0x15E519, size: 0x8, addend: 0x0, symName: __ZNSt3__120__bracket_expressionIcNS_12regex_traitsIcEEED0Ev, symObjAddr: 0xF7D4, symBinAddr: 0x318AC, symSize: 0x14 }
  - { offset: 0x15E941, size: 0x8, addend: 0x0, symName: __ZNKSt3__120__bracket_expressionIcNS_12regex_traitsIcEEE6__execERNS_7__stateIcEE, symObjAddr: 0xF7E8, symBinAddr: 0x318C0, symSize: 0xA30 }
  - { offset: 0x160423, size: 0x8, addend: 0x0, symName: __ZNKSt3__112regex_traitsIcE20__lookup_collatenameIPcEENS_12basic_stringIcNS_11char_traitsIcEENS_9allocatorIcEEEET_SA_c, symObjAddr: 0x104F0, symBinAddr: 0x325B4, symSize: 0x23C }
  - { offset: 0x160FB8, size: 0x8, addend: 0x0, symName: __ZNKSt3__112regex_traitsIcE9transformIPcEENS_12basic_stringIcNS_11char_traitsIcEENS_9allocatorIcEEEET_SA_, symObjAddr: 0x103C4, symBinAddr: 0x32488, symSize: 0x12C }
  - { offset: 0x16156F, size: 0x8, addend: 0x0, symName: __ZNKSt3__112regex_traitsIcE19__transform_primaryIPcEENS_12basic_stringIcNS_11char_traitsIcEENS_9allocatorIcEEEET_SA_c, symObjAddr: 0x1072C, symBinAddr: 0x327F0, symSize: 0x194 }
  - { offset: 0x161C9C, size: 0x8, addend: 0x0, symName: __ZNSt3__14pairINS_12basic_stringIcNS_11char_traitsIcEENS_9allocatorIcEEEES6_ED1Ev, symObjAddr: 0x1022C, symBinAddr: 0x322F0, symSize: 0x58 }
  - { offset: 0x161FD9, size: 0x8, addend: 0x0, symName: __ZNSt3__111basic_regexIcNS_12regex_traitsIcEEE25__parse_equivalence_classINS_11__wrap_iterIPKcEEEET_S9_S9_PNS_20__bracket_expressionIcS2_EE, symObjAddr: 0x10D68, symBinAddr: 0x32E2C, symSize: 0x288 }
  - { offset: 0x162B3B, size: 0x8, addend: 0x0, symName: __ZNSt3__111basic_regexIcNS_12regex_traitsIcEEE18__parse_awk_escapeINS_11__wrap_iterIPKcEEEET_S9_S9_PNS_12basic_stringIcNS_11char_traitsIcEENS_9allocatorIcEEEE, symObjAddr: 0x112FC, symBinAddr: 0x333C0, symSize: 0x2EC }
  - { offset: 0x162D1E, size: 0x8, addend: 0x0, symName: __ZNSt3__120__bracket_expressionIcNS_12regex_traitsIcEEE11__add_rangeB8ne180100ENS_12basic_stringIcNS_11char_traitsIcEENS_9allocatorIcEEEES9_, symObjAddr: 0x115E8, symBinAddr: 0x336AC, symSize: 0x52C }
  - { offset: 0x162D32, size: 0x8, addend: 0x0, symName: __ZNSt3__111basic_regexIcNS_12regex_traitsIcEEE24__parse_collating_symbolINS_11__wrap_iterIPKcEEEET_S9_S9_RNS_12basic_stringIcNS_11char_traitsIcEENS_9allocatorIcEEEE, symObjAddr: 0x110AC, symBinAddr: 0x33170, symSize: 0xF0 }
  - { offset: 0x16315A, size: 0x8, addend: 0x0, symName: __ZNSt3__111basic_regexIcNS_12regex_traitsIcEEE20__parse_class_escapeINS_11__wrap_iterIPKcEEEET_S9_S9_RNS_12basic_stringIcNS_11char_traitsIcEENS_9allocatorIcEEEEPNS_20__bracket_expressionIcS2_EE, symObjAddr: 0x1119C, symBinAddr: 0x33260, symSize: 0x160 }
  - { offset: 0x16316E, size: 0x8, addend: 0x0, symName: __ZNSt3__111basic_regexIcNS_12regex_traitsIcEEE23__parse_character_classINS_11__wrap_iterIPKcEEEET_S9_S9_PNS_20__bracket_expressionIcS2_EE, symObjAddr: 0x10FF0, symBinAddr: 0x330B4, symSize: 0xBC }
  - { offset: 0x163484, size: 0x8, addend: 0x0, symName: __ZNSt3__111basic_regexIcNS_12regex_traitsIcEEE24__parse_collating_symbolINS_11__wrap_iterIPKcEEEET_S9_S9_RNS_12basic_stringIcNS_11char_traitsIcEENS_9allocatorIcEEEE, symObjAddr: 0x110AC, symBinAddr: 0x33170, symSize: 0xF0 }
  - { offset: 0x1634A4, size: 0x8, addend: 0x0, symName: __ZNSt3__120__bracket_expressionIcNS_12regex_traitsIcEEE13__add_digraphB8ne180100Ecc, symObjAddr: 0x11B14, symBinAddr: 0x33BD8, symSize: 0x3E0 }
  - { offset: 0x163EA6, size: 0x8, addend: 0x0, symName: __ZNSt3__119__throw_regex_errorB8ne180100ILNS_15regex_constants10error_typeE1EEEvv, symObjAddr: 0x11EF4, symBinAddr: 0x33FB8, symSize: 0x4C }
  - { offset: 0x163EB1, size: 0x8, addend: 0x0, symName: __ZNSt3__111basic_regexIcNS_12regex_traitsIcEEE20__parse_class_escapeINS_11__wrap_iterIPKcEEEET_S9_S9_RNS_12basic_stringIcNS_11char_traitsIcEENS_9allocatorIcEEEEPNS_20__bracket_expressionIcS2_EE, symObjAddr: 0x1119C, symBinAddr: 0x33260, symSize: 0x160 }
  - { offset: 0x16408B, size: 0x8, addend: 0x0, symName: __ZNSt3__111basic_regexIcNS_12regex_traitsIcEEE18__parse_awk_escapeINS_11__wrap_iterIPKcEEEET_S9_S9_PNS_12basic_stringIcNS_11char_traitsIcEENS_9allocatorIcEEEE, symObjAddr: 0x112FC, symBinAddr: 0x333C0, symSize: 0x2EC }
  - { offset: 0x16409F, size: 0x8, addend: 0x0, symName: __ZNSt3__120__bracket_expressionIcNS_12regex_traitsIcEEE11__add_rangeB8ne180100ENS_12basic_stringIcNS_11char_traitsIcEENS_9allocatorIcEEEES9_, symObjAddr: 0x115E8, symBinAddr: 0x336AC, symSize: 0x52C }
  - { offset: 0x165904, size: 0x8, addend: 0x0, symName: __ZNKSt3__112regex_traitsIcE20__lookup_collatenameINS_11__wrap_iterIPKcEEEENS_12basic_stringIcNS_11char_traitsIcEENS_9allocatorIcEEEET_SD_c, symObjAddr: 0x11F40, symBinAddr: 0x34004, symSize: 0x29C }
  - { offset: 0x16649F, size: 0x8, addend: 0x0, symName: __ZNKSt3__112regex_traitsIcE19__transform_primaryINS_11__wrap_iterIPcEEEENS_12basic_stringIcNS_11char_traitsIcEENS_9allocatorIcEEEET_SC_c, symObjAddr: 0x121DC, symBinAddr: 0x342A0, symSize: 0x1F4 }
  - { offset: 0x166BEC, size: 0x8, addend: 0x0, symName: __ZNSt3__16vectorINS_12basic_stringIcNS_11char_traitsIcEENS_9allocatorIcEEEENS4_IS6_EEE21__push_back_slow_pathIRKS6_EEPS6_OT_, symObjAddr: 0x123D0, symBinAddr: 0x34494, symSize: 0x1D4 }
  - { offset: 0x167318, size: 0x8, addend: 0x0, symName: __ZNKSt3__112regex_traitsIcE18__lookup_classnameINS_11__wrap_iterIPKcEEEEjT_S7_bc, symObjAddr: 0x12668, symBinAddr: 0x3472C, symSize: 0x194 }
  - { offset: 0x1679E6, size: 0x8, addend: 0x0, symName: __ZNSt3__120__bracket_expressionIcNS_12regex_traitsIcEEE14__add_neg_charB8ne180100Ec, symObjAddr: 0x127FC, symBinAddr: 0x348C0, symSize: 0x490 }
  - { offset: 0x168199, size: 0x8, addend: 0x0, symName: __ZNKSt3__112regex_traitsIcE9transformINS_11__wrap_iterIPcEEEENS_12basic_stringIcNS_11char_traitsIcEENS_9allocatorIcEEEET_SC_, symObjAddr: 0x12C8C, symBinAddr: 0x34D50, symSize: 0x190 }
  - { offset: 0x1683AB, size: 0x8, addend: 0x0, symName: __ZNKSt3__112regex_traitsIcE9transformINS_11__wrap_iterIPcEEEENS_12basic_stringIcNS_11char_traitsIcEENS_9allocatorIcEEEET_SC_, symObjAddr: 0x12C8C, symBinAddr: 0x34D50, symSize: 0x190 }
  - { offset: 0x168999, size: 0x8, addend: 0x0, symName: __ZNSt3__16vectorINS_4pairINS_12basic_stringIcNS_11char_traitsIcEENS_9allocatorIcEEEES7_EENS5_IS8_EEE21__push_back_slow_pathIS8_EEPS8_OT_, symObjAddr: 0x12E68, symBinAddr: 0x34F2C, symSize: 0x1B0 }
  - { offset: 0x169176, size: 0x8, addend: 0x0, symName: __ZNKSt3__16vectorINS_4pairINS_12basic_stringIcNS_11char_traitsIcEENS_9allocatorIcEEEES7_EENS5_IS8_EEE20__throw_length_errorB8ne180100Ev, symObjAddr: 0x13018, symBinAddr: 0x350DC, symSize: 0x14 }
  - { offset: 0x16944E, size: 0x8, addend: 0x0, symName: __ZNKSt3__16vectorINS_4pairIccEENS_9allocatorIS2_EEE20__throw_length_errorB8ne180100Ev, symObjAddr: 0x1302C, symBinAddr: 0x350F0, symSize: 0x14 }
  - { offset: 0x169478, size: 0x8, addend: 0x0, symName: __ZNSt3__128__begin_marked_subexpressionIcED1Ev, symObjAddr: 0x13040, symBinAddr: 0x35104, symSize: 0x44 }
  - { offset: 0x169A58, size: 0x8, addend: 0x0, symName: __ZNKSt3__16vectorINS_12basic_stringIcNS_11char_traitsIcEENS_9allocatorIcEEEENS4_IS6_EEE20__throw_length_errorB8ne180100Ev, symObjAddr: 0x12608, symBinAddr: 0x346CC, symSize: 0x14 }
  - { offset: 0x169A82, size: 0x8, addend: 0x0, symName: __ZNSt3__119__throw_regex_errorB8ne180100ILNS_15regex_constants10error_typeE2EEEvv, symObjAddr: 0x1261C, symBinAddr: 0x346E0, symSize: 0x4C }
  - { offset: 0x169A8D, size: 0x8, addend: 0x0, symName: __ZNSt3__114__split_bufferINS_12basic_stringIcNS_11char_traitsIcEENS_9allocatorIcEEEERNS4_IS6_EEED1Ev, symObjAddr: 0x125A4, symBinAddr: 0x34668, symSize: 0x64 }
  - { offset: 0x169F2F, size: 0x8, addend: 0x0, symName: __ZNKSt3__16vectorINS_4pairINS_12basic_stringIcNS_11char_traitsIcEENS_9allocatorIcEEEES7_EENS5_IS8_EEE20__throw_length_errorB8ne180100Ev, symObjAddr: 0x13018, symBinAddr: 0x350DC, symSize: 0x14 }
  - { offset: 0x169F59, size: 0x8, addend: 0x0, symName: __ZNKSt3__16vectorINS_4pairIccEENS_9allocatorIS2_EEE20__throw_length_errorB8ne180100Ev, symObjAddr: 0x1302C, symBinAddr: 0x350F0, symSize: 0x14 }
  - { offset: 0x169F81, size: 0x8, addend: 0x0, symName: __ZNSt3__128__begin_marked_subexpressionIcED1Ev, symObjAddr: 0x13040, symBinAddr: 0x35104, symSize: 0x44 }
  - { offset: 0x16A006, size: 0x8, addend: 0x0, symName: __ZNSt3__128__begin_marked_subexpressionIcED0Ev, symObjAddr: 0x13084, symBinAddr: 0x35148, symSize: 0x44 }
  - { offset: 0x16A097, size: 0x8, addend: 0x0, symName: __ZNKSt3__128__begin_marked_subexpressionIcE6__execERNS_7__stateIcEE, symObjAddr: 0x130C8, symBinAddr: 0x3518C, symSize: 0x30 }
  - { offset: 0x16A126, size: 0x8, addend: 0x0, symName: __ZNSt3__126__end_marked_subexpressionIcED1Ev, symObjAddr: 0x130F8, symBinAddr: 0x351BC, symSize: 0x44 }
  - { offset: 0x16A1AB, size: 0x8, addend: 0x0, symName: __ZNSt3__126__end_marked_subexpressionIcED0Ev, symObjAddr: 0x1313C, symBinAddr: 0x35200, symSize: 0x44 }
  - { offset: 0x16A23C, size: 0x8, addend: 0x0, symName: __ZNKSt3__126__end_marked_subexpressionIcE6__execERNS_7__stateIcEE, symObjAddr: 0x13180, symBinAddr: 0x35244, symSize: 0x38 }
  - { offset: 0x16A543, size: 0x8, addend: 0x0, symName: __ZNSt3__16__loopIcED0Ev, symObjAddr: 0x133F0, symBinAddr: 0x354B4, symSize: 0x68 }
  - { offset: 0x16A636, size: 0x8, addend: 0x0, symName: __ZNSt3__16__loopIcED1Ev, symObjAddr: 0x13388, symBinAddr: 0x3544C, symSize: 0x68 }
  - { offset: 0x16A758, size: 0x8, addend: 0x0, symName: __ZNKSt3__16__loopIcE6__execERNS_7__stateIcEE, symObjAddr: 0x13458, symBinAddr: 0x3551C, symSize: 0x204 }
  - { offset: 0x16A88F, size: 0x8, addend: 0x0, symName: __ZNKSt3__16__loopIcE12__exec_splitEbRNS_7__stateIcEE, symObjAddr: 0x1365C, symBinAddr: 0x35720, symSize: 0xD8 }
  - { offset: 0x16A964, size: 0x8, addend: 0x0, symName: __ZNSt3__117__owns_two_statesIcED1Ev, symObjAddr: 0x13734, symBinAddr: 0x357F8, symSize: 0x68 }
  - { offset: 0x16A9F4, size: 0x8, addend: 0x0, symName: __ZNSt3__117__owns_two_statesIcED0Ev, symObjAddr: 0x1379C, symBinAddr: 0x35860, symSize: 0x68 }
  - { offset: 0x16AA90, size: 0x8, addend: 0x0, symName: __ZNSt3__117__repeat_one_loopIcED1Ev, symObjAddr: 0x13804, symBinAddr: 0x358C8, symSize: 0x4 }
  - { offset: 0x16AABC, size: 0x8, addend: 0x0, symName: __ZNSt3__117__repeat_one_loopIcED0Ev, symObjAddr: 0x13808, symBinAddr: 0x358CC, symSize: 0x4 }
  - { offset: 0x16AAE8, size: 0x8, addend: 0x0, symName: __ZNKSt3__117__repeat_one_loopIcE6__execERNS_7__stateIcEE, symObjAddr: 0x1380C, symBinAddr: 0x358D0, symSize: 0x14 }
  - { offset: 0x16AB58, size: 0x8, addend: 0x0, symName: __ZNSt3__111__alternateIcED1Ev, symObjAddr: 0x13820, symBinAddr: 0x358E4, symSize: 0x68 }
  - { offset: 0x16AC06, size: 0x8, addend: 0x0, symName: __ZNSt3__111__alternateIcED0Ev, symObjAddr: 0x13888, symBinAddr: 0x3594C, symSize: 0x68 }
  - { offset: 0x16ACC0, size: 0x8, addend: 0x0, symName: __ZNKSt3__111__alternateIcE6__execERNS_7__stateIcEE, symObjAddr: 0x138F0, symBinAddr: 0x359B4, symSize: 0xC }
  - { offset: 0x16ACF6, size: 0x8, addend: 0x0, symName: __ZNKSt3__111__alternateIcE12__exec_splitEbRNS_7__stateIcEE, symObjAddr: 0x138FC, symBinAddr: 0x359C0, symSize: 0x24 }
  - { offset: 0x16AD40, size: 0x8, addend: 0x0, symName: __ZNSt3__121__empty_non_own_stateIcED1Ev, symObjAddr: 0x13920, symBinAddr: 0x359E4, symSize: 0x4 }
  - { offset: 0x16AD6C, size: 0x8, addend: 0x0, symName: __ZNSt3__121__empty_non_own_stateIcED0Ev, symObjAddr: 0x13924, symBinAddr: 0x359E8, symSize: 0x4 }
  - { offset: 0x16AD98, size: 0x8, addend: 0x0, symName: __ZNKSt3__121__empty_non_own_stateIcE6__execERNS_7__stateIcEE, symObjAddr: 0x13928, symBinAddr: 0x359EC, symSize: 0x14 }
  - { offset: 0x16AEF0, size: 0x8, addend: 0x0, symName: __ZNSt3__111basic_regexIcNS_12regex_traitsIcEEE32__parse_one_char_or_coll_elem_REINS_11__wrap_iterIPKcEEEET_S9_S9_, symObjAddr: 0x13E3C, symBinAddr: 0x35F00, symSize: 0x15C }
  - { offset: 0x16B278, size: 0x8, addend: 0x0, symName: __ZNSt3__111__match_anyIcED1Ev, symObjAddr: 0x13F98, symBinAddr: 0x3605C, symSize: 0x44 }
  - { offset: 0x16B2FD, size: 0x8, addend: 0x0, symName: __ZNSt3__111__match_anyIcED0Ev, symObjAddr: 0x13FDC, symBinAddr: 0x360A0, symSize: 0x44 }
  - { offset: 0x16B38E, size: 0x8, addend: 0x0, symName: __ZNKSt3__111__match_anyIcE6__execERNS_7__stateIcEE, symObjAddr: 0x14020, symBinAddr: 0x360E4, symSize: 0x40 }
  - { offset: 0x16B3E1, size: 0x8, addend: 0x0, symName: __ZNSt3__111basic_regexIcNS_12regex_traitsIcEEE15__test_back_refEc, symObjAddr: 0x14060, symBinAddr: 0x36124, symSize: 0x60 }
  - { offset: 0x16B4AF, size: 0x8, addend: 0x0, symName: __ZNSt3__111basic_regexIcNS_12regex_traitsIcEEE22__parse_ERE_expressionINS_11__wrap_iterIPKcEEEET_S9_S9_, symObjAddr: 0x140C0, symBinAddr: 0x36184, symSize: 0x288 }
  - { offset: 0x16B4FF, size: 0x8, addend: 0x0, symName: __ZNSt3__111basic_regexIcNS_12regex_traitsIcEEE20__parse_ORD_CHAR_EREINS_11__wrap_iterIPKcEEEET_S9_S9_, symObjAddr: 0x14348, symBinAddr: 0x3640C, symSize: 0x78 }
  - { offset: 0x16B575, size: 0x8, addend: 0x0, symName: __ZNSt3__111basic_regexIcNS_12regex_traitsIcEEE23__parse_QUOTED_CHAR_EREINS_11__wrap_iterIPKcEEEET_S9_S9_, symObjAddr: 0x143C0, symBinAddr: 0x36484, symSize: 0xC4 }
  - { offset: 0x16B78D, size: 0x8, addend: 0x0, symName: __ZNSt3__16vectorINS0_I21llama_grammar_elementNS_9allocatorIS1_EEEENS2_IS4_EEEC2ERKS6_.cold.1, symObjAddr: 0x17784, symBinAddr: 0x1C91D4, symSize: 0x48 }
  - { offset: 0x16BA18, size: 0x8, addend: 0x0, symName: __ZNSt3__128__exception_guard_exceptionsINS_29_AllocatorDestroyRangeReverseINS_9allocatorINS_6vectorI21llama_grammar_elementNS2_IS4_EEEEEEPS6_EEED1B8ne180100Ev, symObjAddr: 0x146E4, symBinAddr: 0x3671C, symSize: 0x6C }
  - { offset: 0x16BD63, size: 0x8, addend: 0x0, symName: __ZNSt3__16vectorINS0_IPK21llama_grammar_elementNS_9allocatorIS3_EEEENS4_IS6_EEEC2ERKS8_.cold.1, symObjAddr: 0x177CC, symBinAddr: 0x1C921C, symSize: 0x48 }
  - { offset: 0x16BFEE, size: 0x8, addend: 0x0, symName: __ZNSt3__128__exception_guard_exceptionsINS_29_AllocatorDestroyRangeReverseINS_9allocatorINS_6vectorIPK21llama_grammar_elementNS2_IS6_EEEEEEPS8_EEED1B8ne180100Ev, symObjAddr: 0x14924, symBinAddr: 0x3695C, symSize: 0x6C }
  - { offset: 0x16C320, size: 0x8, addend: 0x0, symName: __ZNSt3__16vectorI29llama_grammar_trigger_patternNS_9allocatorIS1_EEEC2ERKS4_.cold.1, symObjAddr: 0x17814, symBinAddr: 0x1C9264, symSize: 0xA0 }
  - { offset: 0x16C800, size: 0x8, addend: 0x0, symName: __ZNSt3__130__uninitialized_allocator_copyB8ne180100INS_9allocatorI29llama_grammar_trigger_patternEEPS2_S4_S4_EET2_RT_T0_T1_S5_.cold.1, symObjAddr: 0x178B4, symBinAddr: 0x1C9304, symSize: 0x7C }
  - { offset: 0x16CBEE, size: 0x8, addend: 0x0, symName: __ZNKSt3__111basic_regexIcNS_12regex_traitsIcEEE27__match_at_start_posix_subsINS_9allocatorINS_9sub_matchIPKcEEEEEEbS8_S8_RNS_13match_resultsIS8_T_EENS_15regex_constants15match_flag_typeEb, symObjAddr: 0x15AA0, symBinAddr: 0x37AD8, symSize: 0x5E4 }
  - { offset: 0x16EA35, size: 0x8, addend: 0x0, symName: __ZNKSt3__111basic_regexIcNS_12regex_traitsIcEEE29__match_at_start_posix_nosubsINS_9allocatorINS_9sub_matchIPKcEEEEEEbS8_S8_RNS_13match_resultsIS8_T_EENS_15regex_constants15match_flag_typeEb, symObjAddr: 0x15194, symBinAddr: 0x371CC, symSize: 0x90C }
  - { offset: 0x170A7D, size: 0x8, addend: 0x0, symName: __ZNSt3__16vectorINS_9sub_matchINS_11__wrap_iterIPKcEEEENS_9allocatorIS6_EEE8__appendEm, symObjAddr: 0x17594, symBinAddr: 0x395CC, symSize: 0x194 }
  - { offset: 0x171013, size: 0x8, addend: 0x0, symName: __ZNKSt3__16vectorINS_9sub_matchINS_11__wrap_iterIPKcEEEENS_9allocatorIS6_EEE20__throw_length_errorB8ne180100Ev, symObjAddr: 0x17728, symBinAddr: 0x39760, symSize: 0x14 }
  - { offset: 0x171480, size: 0x8, addend: 0x0, symName: __ZNSt3__15dequeINS_7__stateIcEENS_9allocatorIS2_EEE19__add_back_capacityEv, symObjAddr: 0x1624C, symBinAddr: 0x38284, symSize: 0x5BC }
  - { offset: 0x1726C2, size: 0x8, addend: 0x0, symName: __ZNSt3__15dequeINS_7__stateIcEENS_9allocatorIS2_EEE20__add_front_capacityEv, symObjAddr: 0x16B2C, symBinAddr: 0x38B64, symSize: 0x3B8 }
  - { offset: 0x173476, size: 0x8, addend: 0x0, symName: __ZNSt3__15dequeINS_7__stateIcEENS_9allocatorIS2_EEED1B8ne180100Ev, symObjAddr: 0x161D8, symBinAddr: 0x38210, symSize: 0x74 }
  - { offset: 0x17382D, size: 0x8, addend: 0x0, symName: __ZNSt3__16vectorINS_9sub_matchIPKcEENS_9allocatorIS4_EEE18__assign_with_sizeB8ne180100IPS4_S9_EEvT_T0_l, symObjAddr: 0x1707C, symBinAddr: 0x390B4, symSize: 0x1FC }
  - { offset: 0x1740BA, size: 0x8, addend: 0x0, symName: __ZNSt3__16vectorINS_4pairImPKcEENS_9allocatorIS4_EEE18__assign_with_sizeB8ne180100IPS4_S9_EEvT_T0_l, symObjAddr: 0x17278, symBinAddr: 0x392B0, symSize: 0x31C }
  - { offset: 0x1740DE, size: 0x8, addend: 0x0, symName: __ZNSt3__16vectorINS_4pairImPKcEENS_9allocatorIS4_EEE18__assign_with_sizeB8ne180100IPS4_S9_EEvT_T0_l, symObjAddr: 0x17278, symBinAddr: 0x392B0, symSize: 0x31C }
  - { offset: 0x1748CB, size: 0x8, addend: 0x0, symName: __ZNSt3__16vectorINS_9sub_matchINS_11__wrap_iterIPKcEEEENS_9allocatorIS6_EEE8__appendEm, symObjAddr: 0x17594, symBinAddr: 0x395CC, symSize: 0x194 }
  - { offset: 0x174905, size: 0x8, addend: 0x0, symName: __ZNSt3__15dequeINS_7__stateIcEENS_9allocatorIS2_EEE5clearEv, symObjAddr: 0x16084, symBinAddr: 0x380BC, symSize: 0x154 }
  - { offset: 0x175375, size: 0x8, addend: 0x0, symName: __ZNSt3__114__split_bufferIPNS_7__stateIcEENS_9allocatorIS3_EEE9push_backEOS3_, symObjAddr: 0x16808, symBinAddr: 0x38840, symSize: 0x18C }
  - { offset: 0x175817, size: 0x8, addend: 0x0, symName: __ZNSt3__114__split_bufferIPNS_7__stateIcEENS_9allocatorIS3_EEE10push_frontEOS3_, symObjAddr: 0x16994, symBinAddr: 0x389CC, symSize: 0x198 }
  - { offset: 0x175822, size: 0x8, addend: 0x0, symName: __ZNSt3__114__split_bufferIPNS_7__stateIcEENS_9allocatorIS3_EEE10push_frontEOS3_, symObjAddr: 0x16994, symBinAddr: 0x389CC, symSize: 0x198 }
  - { offset: 0x175C9B, size: 0x8, addend: 0x0, symName: __ZNSt3__15dequeINS_7__stateIcEENS_9allocatorIS2_EEE20__add_front_capacityEv, symObjAddr: 0x16B2C, symBinAddr: 0x38B64, symSize: 0x3B8 }
  - { offset: 0x175D07, size: 0x8, addend: 0x0, symName: __ZNSt3__114__split_bufferIPNS_7__stateIcEENS_9allocatorIS3_EEE10push_frontERKS3_, symObjAddr: 0x16EE4, symBinAddr: 0x38F1C, symSize: 0x198 }
  - { offset: 0x176180, size: 0x8, addend: 0x0, symName: __ZNSt3__16vectorINS_9sub_matchIPKcEENS_9allocatorIS4_EEE18__assign_with_sizeB8ne180100IPS4_S9_EEvT_T0_l, symObjAddr: 0x1707C, symBinAddr: 0x390B4, symSize: 0x1FC }
  - { offset: 0x176670, size: 0x8, addend: 0x0, symName: __ZNKSt3__16vectorINS_9sub_matchINS_11__wrap_iterIPKcEEEENS_9allocatorIS6_EEE20__throw_length_errorB8ne180100Ev, symObjAddr: 0x17728, symBinAddr: 0x39760, symSize: 0x14 }
  - { offset: 0x17669A, size: 0x8, addend: 0x0, symName: __ZNSt3__16vectorINS0_I21llama_grammar_elementNS_9allocatorIS1_EEEENS2_IS4_EEEC1Em.cold.1, symObjAddr: 0x1773C, symBinAddr: 0x1C918C, symSize: 0x48 }
  - { offset: 0x1766A5, size: 0x8, addend: 0x0, symName: _OUTLINED_FUNCTION_0, symObjAddr: 0x17930, symBinAddr: 0x39774, symSize: 0xC }
  - { offset: 0x1766BD, size: 0x8, addend: 0x0, symName: _OUTLINED_FUNCTION_1, symObjAddr: 0x1793C, symBinAddr: 0x39780, symSize: 0x18 }
  - { offset: 0x1766D5, size: 0x8, addend: 0x0, symName: _OUTLINED_FUNCTION_2, symObjAddr: 0x17954, symBinAddr: 0x39798, symSize: 0x8 }
  - { offset: 0x178578, size: 0x8, addend: 0x0, symName: __ZN20llm_graph_input_embd9set_inputEPK12llama_ubatch, symObjAddr: 0x0, symBinAddr: 0x397A0, symSize: 0xA0 }
  - { offset: 0x19D4C1, size: 0x8, addend: 0x0, symName: __ZN20llm_graph_input_embd9set_inputEPK12llama_ubatch, symObjAddr: 0x0, symBinAddr: 0x397A0, symSize: 0xA0 }
  - { offset: 0x19D815, size: 0x8, addend: 0x0, symName: __ZN19llm_graph_input_pos9set_inputEPK12llama_ubatch, symObjAddr: 0xA0, symBinAddr: 0x39840, symSize: 0x210 }
  - { offset: 0x19DE64, size: 0x8, addend: 0x0, symName: __ZN25llm_graph_input_attn_temp9set_inputEPK12llama_ubatch, symObjAddr: 0x2B0, symBinAddr: 0x39A50, symSize: 0x220 }
  - { offset: 0x19E2E1, size: 0x8, addend: 0x0, symName: __ZN26llm_graph_input_pos_bucket9set_inputEPK12llama_ubatch, symObjAddr: 0x4D0, symBinAddr: 0x39C70, symSize: 0x420 }
  - { offset: 0x19E41A, size: 0x8, addend: 0x0, symName: __Z30llama_relative_position_bucketiiyb, symObjAddr: 0x8F0, symBinAddr: 0x3A090, symSize: 0xAC }
  - { offset: 0x19E464, size: 0x8, addend: 0x0, symName: __Z30llama_relative_position_bucketiiyb, symObjAddr: 0x8F0, symBinAddr: 0x3A090, symSize: 0xAC }
  - { offset: 0x19E4C6, size: 0x8, addend: 0x0, symName: __ZN29llm_graph_input_pos_bucket_kv9set_inputEPK12llama_ubatch, symObjAddr: 0x99C, symBinAddr: 0x3A13C, symSize: 0x18 }
  - { offset: 0x19E4FE, size: 0x8, addend: 0x0, symName: __ZN23llm_graph_input_out_ids9set_inputEPK12llama_ubatch, symObjAddr: 0x9B4, symBinAddr: 0x3A154, symSize: 0x1C4 }
  - { offset: 0x19E5E7, size: 0x8, addend: 0x0, symName: __ZN20llm_graph_input_mean9set_inputEPK12llama_ubatch, symObjAddr: 0xB78, symBinAddr: 0x3A318, symSize: 0x4B4 }
  - { offset: 0x19E89B, size: 0x8, addend: 0x0, symName: __ZN20llm_graph_input_mean9set_inputEPK12llama_ubatch, symObjAddr: 0xB78, symBinAddr: 0x3A318, symSize: 0x4B4 }
  - { offset: 0x19F0B9, size: 0x8, addend: 0x0, symName: __ZN19llm_graph_input_cls9set_inputEPK12llama_ubatch, symObjAddr: 0x102C, symBinAddr: 0x3A7CC, symSize: 0x5D4 }
  - { offset: 0x19F8EB, size: 0x8, addend: 0x0, symName: __ZN22llm_graph_input_s_copy9set_inputEPK12llama_ubatch, symObjAddr: 0x1600, symBinAddr: 0x3ADA0, symSize: 0xA0 }
  - { offset: 0x19F96B, size: 0x8, addend: 0x0, symName: __ZN22llm_graph_input_s_mask9set_inputEPK12llama_ubatch, symObjAddr: 0x16A0, symBinAddr: 0x3AE40, symSize: 0xA0 }
  - { offset: 0x19F97E, size: 0x8, addend: 0x0, symName: __ZN22llm_graph_input_s_mask9set_inputEPK12llama_ubatch, symObjAddr: 0x16A0, symBinAddr: 0x3AE40, symSize: 0xA0 }
  - { offset: 0x19FA01, size: 0x8, addend: 0x0, symName: __ZN26llm_graph_input_cross_embd9set_inputEPK12llama_ubatch, symObjAddr: 0x1740, symBinAddr: 0x3AEE0, symSize: 0x54 }
  - { offset: 0x19FA2F, size: 0x8, addend: 0x0, symName: __ZN26llm_graph_input_cross_embd9set_inputEPK12llama_ubatch, symObjAddr: 0x1740, symBinAddr: 0x3AEE0, symSize: 0x54 }
  - { offset: 0x19FABF, size: 0x8, addend: 0x0, symName: __ZN29llm_graph_input_attn_no_cache9set_inputEPK12llama_ubatch, symObjAddr: 0x1794, symBinAddr: 0x3AF34, symSize: 0x3D4 }
  - { offset: 0x19FDCD, size: 0x8, addend: 0x0, symName: __ZN31llm_graph_input_attn_kv_unified9set_inputEPK12llama_ubatch, symObjAddr: 0x1B68, symBinAddr: 0x3B308, symSize: 0x20 }
  - { offset: 0x19FDE0, size: 0x8, addend: 0x0, symName: __ZN31llm_graph_input_attn_kv_unified9set_inputEPK12llama_ubatch, symObjAddr: 0x1B68, symBinAddr: 0x3B308, symSize: 0x20 }
  - { offset: 0x19FE1B, size: 0x8, addend: 0x0, symName: __ZN36llm_graph_input_attn_kv_unified_iswa9set_inputEPK12llama_ubatch, symObjAddr: 0x1B88, symBinAddr: 0x3B328, symSize: 0x70 }
  - { offset: 0x19FF2E, size: 0x8, addend: 0x0, symName: __ZN26llm_graph_input_attn_cross9set_inputEPK12llama_ubatch, symObjAddr: 0x1BF8, symBinAddr: 0x3B398, symSize: 0x210 }
  - { offset: 0x1A015C, size: 0x8, addend: 0x0, symName: __ZN17llm_graph_contextC2ERK16llm_graph_params, symObjAddr: 0x1E08, symBinAddr: 0x3B5A8, symSize: 0x178 }
  - { offset: 0x1A0CAA, size: 0x8, addend: 0x0, symName: __ZN17llm_graph_contextC2ERK16llm_graph_params, symObjAddr: 0x1E08, symBinAddr: 0x3B5A8, symSize: 0x178 }
  - { offset: 0x1A0DE3, size: 0x8, addend: 0x0, symName: __ZN17llm_graph_contextC1ERK16llm_graph_params, symObjAddr: 0x1F80, symBinAddr: 0x3B720, symSize: 0x4 }
  - { offset: 0x1A0E21, size: 0x8, addend: 0x0, symName: __ZN17llm_graph_contextC1ERK16llm_graph_params, symObjAddr: 0x1F80, symBinAddr: 0x3B720, symSize: 0x4 }
  - { offset: 0x1A0E3B, size: 0x8, addend: 0x0, symName: __ZNK17llm_graph_context14n_pos_per_embdEv, symObjAddr: 0x1F84, symBinAddr: 0x3B724, symSize: 0x18 }
  - { offset: 0x1A0F21, size: 0x8, addend: 0x0, symName: __ZNK17llm_graph_context2cbEP11ggml_tensorPKci, symObjAddr: 0x1F9C, symBinAddr: 0x3B73C, symSize: 0x54 }
  - { offset: 0x1A1024, size: 0x8, addend: 0x0, symName: __ZNK17llm_graph_context10build_cvecEP11ggml_tensori, symObjAddr: 0x1FF0, symBinAddr: 0x3B790, symSize: 0x18 }
  - { offset: 0x1A10B7, size: 0x8, addend: 0x0, symName: __ZNK17llm_graph_context13build_lora_mmEP11ggml_tensorS1_, symObjAddr: 0x2008, symBinAddr: 0x3B7A8, symSize: 0xEC }
  - { offset: 0x1A12A6, size: 0x8, addend: 0x0, symName: __ZNK17llm_graph_context16build_lora_mm_idEP11ggml_tensorS1_S1_, symObjAddr: 0x20F4, symBinAddr: 0x3B894, symSize: 0x100 }
  - { offset: 0x1A149F, size: 0x8, addend: 0x0, symName: __ZNK17llm_graph_context10build_normEP11ggml_tensorS1_S1_13llm_norm_typei, symObjAddr: 0x21F4, symBinAddr: 0x3B994, symSize: 0x180 }
  - { offset: 0x1A1857, size: 0x8, addend: 0x0, symName: __ZNK17llm_graph_context9build_ffnEP11ggml_tensorS1_S1_S1_S1_S1_S1_S1_S1_S1_S1_15llm_ffn_op_type17llm_ffn_gate_typei, symObjAddr: 0x2374, symBinAddr: 0x3BB14, symSize: 0x65C }
  - { offset: 0x1A2A37, size: 0x8, addend: 0x0, symName: __ZNK17llm_graph_context13build_moe_ffnEP11ggml_tensorS1_S1_S1_S1_S1_xx15llm_ffn_op_typebbf29llama_expert_gating_func_typei, symObjAddr: 0x29D0, symBinAddr: 0x3C170, symSize: 0x7A8 }
  - { offset: 0x1A3F7C, size: 0x8, addend: 0x0, symName: __ZNK17llm_graph_context14build_inp_embdEP11ggml_tensor, symObjAddr: 0x3178, symBinAddr: 0x3C918, symSize: 0x270 }
  - { offset: 0x1A4484, size: 0x8, addend: 0x0, symName: __ZNK17llm_graph_context14build_inp_embdEP11ggml_tensor, symObjAddr: 0x3178, symBinAddr: 0x3C918, symSize: 0x270 }
  - { offset: 0x1A4B70, size: 0x8, addend: 0x0, symName: __ZNSt3__16vectorINS_10unique_ptrI17llm_graph_input_iNS_14default_deleteIS2_EEEENS_9allocatorIS5_EEE24__emplace_back_slow_pathIJS5_EEEPS5_DpOT_, symObjAddr: 0x5574, symBinAddr: 0x3ED14, symSize: 0x1C0 }
  - { offset: 0x1A516F, size: 0x8, addend: 0x0, symName: __ZNKSt3__16vectorINS_10unique_ptrI17llm_graph_input_iNS_14default_deleteIS2_EEEENS_9allocatorIS5_EEE20__throw_length_errorB8ne180100Ev, symObjAddr: 0x5734, symBinAddr: 0x3EED4, symSize: 0x14 }
  - { offset: 0x1A53A9, size: 0x8, addend: 0x0, symName: __ZNK17llm_graph_context13build_inp_posEv, symObjAddr: 0x33E8, symBinAddr: 0x3CB88, symSize: 0x11C }
  - { offset: 0x1A5A9B, size: 0x8, addend: 0x0, symName: __ZNK17llm_graph_context20build_inp_attn_scaleEv, symObjAddr: 0x3504, symBinAddr: 0x3CCA4, symSize: 0x114 }
  - { offset: 0x1A61DB, size: 0x8, addend: 0x0, symName: __ZNK17llm_graph_context17build_inp_out_idsEv, symObjAddr: 0x3618, symBinAddr: 0x3CDB8, symSize: 0xF8 }
  - { offset: 0x1A687F, size: 0x8, addend: 0x0, symName: __ZNK17llm_graph_context14build_inp_meanEv, symObjAddr: 0x3710, symBinAddr: 0x3CEB0, symSize: 0x104 }
  - { offset: 0x1A6F45, size: 0x8, addend: 0x0, symName: __ZNK17llm_graph_context13build_inp_clsEv, symObjAddr: 0x3814, symBinAddr: 0x3CFB4, symSize: 0x100 }
  - { offset: 0x1A7610, size: 0x8, addend: 0x0, symName: __ZNK17llm_graph_context16build_inp_s_copyEv, symObjAddr: 0x3914, symBinAddr: 0x3D0B4, symSize: 0x110 }
  - { offset: 0x1A7CF1, size: 0x8, addend: 0x0, symName: __ZNK17llm_graph_context16build_inp_s_maskEv, symObjAddr: 0x3A24, symBinAddr: 0x3D1C4, symSize: 0x114 }
  - { offset: 0x1A83E1, size: 0x8, addend: 0x0, symName: __ZNK17llm_graph_context20build_inp_cross_embdEv, symObjAddr: 0x3B38, symBinAddr: 0x3D2D8, symSize: 0x10C }
  - { offset: 0x1A8AE0, size: 0x8, addend: 0x0, symName: __ZNK17llm_graph_context24build_inp_pos_bucket_encEv, symObjAddr: 0x3C44, symBinAddr: 0x3D3E4, symSize: 0x104 }
  - { offset: 0x1A91C1, size: 0x8, addend: 0x0, symName: __ZNK17llm_graph_context24build_inp_pos_bucket_decEv, symObjAddr: 0x3D48, symBinAddr: 0x3D4E8, symSize: 0x118 }
  - { offset: 0x1A96B1, size: 0x8, addend: 0x0, symName: __ZNK17llm_graph_context14build_pos_biasEP11ggml_tensorS1_, symObjAddr: 0x3E60, symBinAddr: 0x3D600, symSize: 0x114 }
  - { offset: 0x1A99B7, size: 0x8, addend: 0x0, symName: __ZNK17llm_graph_context14build_attn_mhaEP11ggml_cgraphP11ggml_tensorS3_S3_S3_S3_S3_f, symObjAddr: 0x3F74, symBinAddr: 0x3D714, symSize: 0x3DC }
  - { offset: 0x1AA12B, size: 0x8, addend: 0x0, symName: __ZNK17llm_graph_context23build_attn_inp_no_cacheEv, symObjAddr: 0x4350, symBinAddr: 0x3DAF0, symSize: 0x154 }
  - { offset: 0x1AA5CE, size: 0x8, addend: 0x0, symName: __ZNK17llm_graph_context10build_attnEP29llm_graph_input_attn_no_cacheP11ggml_cgraphP11ggml_tensorS5_S5_S5_S5_S5_S5_fi, symObjAddr: 0x44A4, symBinAddr: 0x3DC44, symSize: 0x130 }
  - { offset: 0x1AAB04, size: 0x8, addend: 0x0, symName: __ZNK17llm_graph_context25build_attn_inp_kv_unifiedEv, symObjAddr: 0x45D4, symBinAddr: 0x3DD74, symSize: 0x1A4 }
  - { offset: 0x1AAFF2, size: 0x8, addend: 0x0, symName: __ZNK17llm_graph_context10build_attnEP31llm_graph_input_attn_kv_unifiedP11ggml_cgraphP11ggml_tensorS5_S5_S5_S5_S5_S5_fi, symObjAddr: 0x4778, symBinAddr: 0x3DF18, symSize: 0x1B0 }
  - { offset: 0x1AB577, size: 0x8, addend: 0x0, symName: __ZNK17llm_graph_context30build_attn_inp_kv_unified_iswaEv, symObjAddr: 0x4928, symBinAddr: 0x3E0C8, symSize: 0x218 }
  - { offset: 0x1ABA95, size: 0x8, addend: 0x0, symName: __ZNK17llm_graph_context10build_attnEP36llm_graph_input_attn_kv_unified_iswaP11ggml_cgraphP11ggml_tensorS5_S5_S5_S5_S5_S5_fi, symObjAddr: 0x4B40, symBinAddr: 0x3E2E0, symSize: 0x1D8 }
  - { offset: 0x1ABFCE, size: 0x8, addend: 0x0, symName: __ZNK17llm_graph_context20build_attn_inp_crossEv, symObjAddr: 0x4D18, symBinAddr: 0x3E4B8, symSize: 0x170 }
  - { offset: 0x1AC4D1, size: 0x8, addend: 0x0, symName: __ZNK17llm_graph_context10build_attnEP26llm_graph_input_attn_crossP11ggml_cgraphP11ggml_tensorS5_S5_S5_S5_S5_S5_fi, symObjAddr: 0x4E88, symBinAddr: 0x3E628, symSize: 0x130 }
  - { offset: 0x1AC7D5, size: 0x8, addend: 0x0, symName: __ZNK17llm_graph_context21build_copy_mask_stateEP11ggml_cgraphP11ggml_tensorS3_S3_ii, symObjAddr: 0x4FB8, symBinAddr: 0x3E758, symSize: 0x150 }
  - { offset: 0x1AC9D6, size: 0x8, addend: 0x0, symName: __ZNK17llm_graph_context27build_rwkv_token_shift_loadEP11ggml_cgraphP11ggml_tensorS3_RK12llama_ubatchi, symObjAddr: 0x5108, symBinAddr: 0x3E8A8, symSize: 0x9C }
  - { offset: 0x1ACAE5, size: 0x8, addend: 0x0, symName: __ZNK17llm_graph_context28build_rwkv_token_shift_storeEP11ggml_tensorRK12llama_ubatchi, symObjAddr: 0x51A4, symBinAddr: 0x3E944, symSize: 0xE0 }
  - { offset: 0x1ACBE8, size: 0x8, addend: 0x0, symName: __ZNK17llm_graph_context13build_poolingEP11ggml_cgraphP11ggml_tensorS3_S3_S3_, symObjAddr: 0x5284, symBinAddr: 0x3EA24, symSize: 0x278 }
  - { offset: 0x1ACFB2, size: 0x8, addend: 0x0, symName: __ZN19llm_graph_input_posD1Ev, symObjAddr: 0x54FC, symBinAddr: 0x3EC9C, symSize: 0x4 }
  - { offset: 0x1ACFC5, size: 0x8, addend: 0x0, symName: __ZN19llm_graph_input_posD1Ev, symObjAddr: 0x54FC, symBinAddr: 0x3EC9C, symSize: 0x4 }
  - { offset: 0x1ACFEE, size: 0x8, addend: 0x0, symName: __ZN19llm_graph_input_posD0Ev, symObjAddr: 0x5500, symBinAddr: 0x3ECA0, symSize: 0x4 }
  - { offset: 0x1AD017, size: 0x8, addend: 0x0, symName: __ZN25llm_graph_input_attn_tempD1Ev, symObjAddr: 0x5504, symBinAddr: 0x3ECA4, symSize: 0x4 }
  - { offset: 0x1AD040, size: 0x8, addend: 0x0, symName: __ZN25llm_graph_input_attn_tempD0Ev, symObjAddr: 0x5508, symBinAddr: 0x3ECA8, symSize: 0x4 }
  - { offset: 0x1AD069, size: 0x8, addend: 0x0, symName: __ZN26llm_graph_input_pos_bucketD1Ev, symObjAddr: 0x550C, symBinAddr: 0x3ECAC, symSize: 0x4 }
  - { offset: 0x1AD092, size: 0x8, addend: 0x0, symName: __ZN26llm_graph_input_pos_bucketD0Ev, symObjAddr: 0x5510, symBinAddr: 0x3ECB0, symSize: 0x4 }
  - { offset: 0x1AD0BB, size: 0x8, addend: 0x0, symName: __ZN29llm_graph_input_pos_bucket_kvD1Ev, symObjAddr: 0x5514, symBinAddr: 0x3ECB4, symSize: 0x4 }
  - { offset: 0x1AD0E4, size: 0x8, addend: 0x0, symName: __ZN29llm_graph_input_pos_bucket_kvD0Ev, symObjAddr: 0x5518, symBinAddr: 0x3ECB8, symSize: 0x4 }
  - { offset: 0x1AD10D, size: 0x8, addend: 0x0, symName: __ZN23llm_graph_input_out_idsD1Ev, symObjAddr: 0x551C, symBinAddr: 0x3ECBC, symSize: 0x4 }
  - { offset: 0x1AD136, size: 0x8, addend: 0x0, symName: __ZN23llm_graph_input_out_idsD0Ev, symObjAddr: 0x5520, symBinAddr: 0x3ECC0, symSize: 0x4 }
  - { offset: 0x1AD15F, size: 0x8, addend: 0x0, symName: __ZN20llm_graph_input_meanD1Ev, symObjAddr: 0x5524, symBinAddr: 0x3ECC4, symSize: 0x4 }
  - { offset: 0x1AD188, size: 0x8, addend: 0x0, symName: __ZN20llm_graph_input_meanD0Ev, symObjAddr: 0x5528, symBinAddr: 0x3ECC8, symSize: 0x4 }
  - { offset: 0x1AD1B1, size: 0x8, addend: 0x0, symName: __ZN19llm_graph_input_clsD1Ev, symObjAddr: 0x552C, symBinAddr: 0x3ECCC, symSize: 0x4 }
  - { offset: 0x1AD1DA, size: 0x8, addend: 0x0, symName: __ZN19llm_graph_input_clsD0Ev, symObjAddr: 0x5530, symBinAddr: 0x3ECD0, symSize: 0x4 }
  - { offset: 0x1AD203, size: 0x8, addend: 0x0, symName: __ZN22llm_graph_input_s_copyD1Ev, symObjAddr: 0x5534, symBinAddr: 0x3ECD4, symSize: 0x4 }
  - { offset: 0x1AD22C, size: 0x8, addend: 0x0, symName: __ZN22llm_graph_input_s_copyD0Ev, symObjAddr: 0x5538, symBinAddr: 0x3ECD8, symSize: 0x4 }
  - { offset: 0x1AD255, size: 0x8, addend: 0x0, symName: __ZN22llm_graph_input_s_maskD1Ev, symObjAddr: 0x553C, symBinAddr: 0x3ECDC, symSize: 0x4 }
  - { offset: 0x1AD27E, size: 0x8, addend: 0x0, symName: __ZN22llm_graph_input_s_maskD0Ev, symObjAddr: 0x5540, symBinAddr: 0x3ECE0, symSize: 0x4 }
  - { offset: 0x1AD2A7, size: 0x8, addend: 0x0, symName: __ZN26llm_graph_input_cross_embdD1Ev, symObjAddr: 0x5544, symBinAddr: 0x3ECE4, symSize: 0x4 }
  - { offset: 0x1AD2D0, size: 0x8, addend: 0x0, symName: __ZN26llm_graph_input_cross_embdD0Ev, symObjAddr: 0x5548, symBinAddr: 0x3ECE8, symSize: 0x4 }
  - { offset: 0x1AD2F9, size: 0x8, addend: 0x0, symName: __ZN29llm_graph_input_attn_no_cacheD1Ev, symObjAddr: 0x554C, symBinAddr: 0x3ECEC, symSize: 0x4 }
  - { offset: 0x1AD322, size: 0x8, addend: 0x0, symName: __ZN29llm_graph_input_attn_no_cacheD0Ev, symObjAddr: 0x5550, symBinAddr: 0x3ECF0, symSize: 0x4 }
  - { offset: 0x1AD34B, size: 0x8, addend: 0x0, symName: __ZN31llm_graph_input_attn_kv_unifiedD1Ev, symObjAddr: 0x5554, symBinAddr: 0x3ECF4, symSize: 0x4 }
  - { offset: 0x1AD374, size: 0x8, addend: 0x0, symName: __ZN31llm_graph_input_attn_kv_unifiedD0Ev, symObjAddr: 0x5558, symBinAddr: 0x3ECF8, symSize: 0x4 }
  - { offset: 0x1AD39D, size: 0x8, addend: 0x0, symName: __ZN36llm_graph_input_attn_kv_unified_iswaD1Ev, symObjAddr: 0x555C, symBinAddr: 0x3ECFC, symSize: 0x4 }
  - { offset: 0x1AD3C6, size: 0x8, addend: 0x0, symName: __ZN36llm_graph_input_attn_kv_unified_iswaD0Ev, symObjAddr: 0x5560, symBinAddr: 0x3ED00, symSize: 0x4 }
  - { offset: 0x1AD3EF, size: 0x8, addend: 0x0, symName: __ZN26llm_graph_input_attn_crossD1Ev, symObjAddr: 0x5564, symBinAddr: 0x3ED04, symSize: 0x4 }
  - { offset: 0x1AD418, size: 0x8, addend: 0x0, symName: __ZN26llm_graph_input_attn_crossD0Ev, symObjAddr: 0x5568, symBinAddr: 0x3ED08, symSize: 0x4 }
  - { offset: 0x1AD441, size: 0x8, addend: 0x0, symName: __ZN20llm_graph_input_embdD1Ev, symObjAddr: 0x556C, symBinAddr: 0x3ED0C, symSize: 0x4 }
  - { offset: 0x1AD46A, size: 0x8, addend: 0x0, symName: __ZN20llm_graph_input_embdD0Ev, symObjAddr: 0x5570, symBinAddr: 0x3ED10, symSize: 0x4 }
  - { offset: 0x1AD736, size: 0x8, addend: 0x0, symName: __ZNKSt3__16vectorINS_10unique_ptrI17llm_graph_input_iNS_14default_deleteIS2_EEEENS_9allocatorIS5_EEE20__throw_length_errorB8ne180100Ev, symObjAddr: 0x5734, symBinAddr: 0x3EED4, symSize: 0x14 }
  - { offset: 0x1AD87C, size: 0x8, addend: 0x0, symName: __ZN16llm_graph_resultD1Ev, symObjAddr: 0x57E4, symBinAddr: 0x3EEE8, symSize: 0x84 }
  - { offset: 0x1ADAEC, size: 0x8, addend: 0x0, symName: __ZN16llm_graph_resultD0Ev, symObjAddr: 0x5868, symBinAddr: 0x3EF6C, symSize: 0x84 }
  - { offset: 0x1ADD68, size: 0x8, addend: 0x0, symName: __ZN16llm_graph_result10get_tokensEv, symObjAddr: 0x58EC, symBinAddr: 0x3EFF0, symSize: 0x8 }
  - { offset: 0x1ADD8F, size: 0x8, addend: 0x0, symName: __ZN16llm_graph_result10get_logitsEv, symObjAddr: 0x58F4, symBinAddr: 0x3EFF8, symSize: 0x8 }
  - { offset: 0x1ADDB6, size: 0x8, addend: 0x0, symName: __ZN16llm_graph_result8get_embdEv, symObjAddr: 0x58FC, symBinAddr: 0x3F000, symSize: 0x8 }
  - { offset: 0x1ADDDD, size: 0x8, addend: 0x0, symName: __ZN16llm_graph_result15get_embd_pooledEv, symObjAddr: 0x5904, symBinAddr: 0x3F008, symSize: 0x8 }
  - { offset: 0x1ADE32, size: 0x8, addend: 0x0, symName: __ZN16llm_graph_result10set_inputsEPK12llama_ubatch, symObjAddr: 0x590C, symBinAddr: 0x3F010, symSize: 0x4C }
  - { offset: 0x1AFDDE, size: 0x8, addend: 0x0, symName: __ZN13llama_hparams15set_swa_patternEj, symObjAddr: 0x0, symBinAddr: 0x3F05C, symSize: 0xD0 }
  - { offset: 0x1B16E5, size: 0x8, addend: 0x0, symName: __ZN13llama_hparams15set_swa_patternEj, symObjAddr: 0x0, symBinAddr: 0x3F05C, symSize: 0xD0 }
  - { offset: 0x1B1751, size: 0x8, addend: 0x0, symName: __ZNK13llama_hparams10is_swa_anyEv, symObjAddr: 0xD0, symBinAddr: 0x3F12C, symSize: 0x60 }
  - { offset: 0x1B1790, size: 0x8, addend: 0x0, symName: __ZNK13llama_hparams6n_headEj, symObjAddr: 0x130, symBinAddr: 0x3F18C, symSize: 0x3C }
  - { offset: 0x1B17BD, size: 0x8, addend: 0x0, symName: __ZNK13llama_hparams9n_head_kvEj, symObjAddr: 0x16C, symBinAddr: 0x3F1C8, symSize: 0x3C }
  - { offset: 0x1B17EE, size: 0x8, addend: 0x0, symName: __ZNK13llama_hparams9n_head_kvEj, symObjAddr: 0x16C, symBinAddr: 0x3F1C8, symSize: 0x3C }
  - { offset: 0x1B181B, size: 0x8, addend: 0x0, symName: __ZNK13llama_hparams4n_ffEj, symObjAddr: 0x1A8, symBinAddr: 0x3F204, symSize: 0x3C }
  - { offset: 0x1B182D, size: 0x8, addend: 0x0, symName: __ZNK13llama_hparams4n_ffEj, symObjAddr: 0x1A8, symBinAddr: 0x3F204, symSize: 0x3C }
  - { offset: 0x1B1867, size: 0x8, addend: 0x0, symName: __ZNK13llama_hparams5n_gqaEj, symObjAddr: 0x1E4, symBinAddr: 0x3F240, symSize: 0x5C }
  - { offset: 0x1B18C4, size: 0x8, addend: 0x0, symName: __ZNK13llama_hparams5n_gqaEj, symObjAddr: 0x1E4, symBinAddr: 0x3F240, symSize: 0x5C }
  - { offset: 0x1B1961, size: 0x8, addend: 0x0, symName: __ZNK13llama_hparams12n_embd_k_gqaEj, symObjAddr: 0x240, symBinAddr: 0x3F29C, symSize: 0x44 }
  - { offset: 0x1B1972, size: 0x8, addend: 0x0, symName: __ZNK13llama_hparams12n_embd_k_gqaEj, symObjAddr: 0x240, symBinAddr: 0x3F29C, symSize: 0x44 }
  - { offset: 0x1B19DC, size: 0x8, addend: 0x0, symName: __ZNK13llama_hparams12n_embd_v_gqaEj, symObjAddr: 0x284, symBinAddr: 0x3F2E0, symSize: 0x44 }
  - { offset: 0x1B19EE, size: 0x8, addend: 0x0, symName: __ZNK13llama_hparams12n_embd_v_gqaEj, symObjAddr: 0x284, symBinAddr: 0x3F2E0, symSize: 0x44 }
  - { offset: 0x1B1A58, size: 0x8, addend: 0x0, symName: __ZNK13llama_hparams10n_embd_k_sEv, symObjAddr: 0x2C8, symBinAddr: 0x3F324, symSize: 0x40 }
  - { offset: 0x1B1A6A, size: 0x8, addend: 0x0, symName: __ZNK13llama_hparams10n_embd_k_sEv, symObjAddr: 0x2C8, symBinAddr: 0x3F324, symSize: 0x40 }
  - { offset: 0x1B1A93, size: 0x8, addend: 0x0, symName: __ZNK13llama_hparams10n_embd_v_sEv, symObjAddr: 0x308, symBinAddr: 0x3F364, symSize: 0x30 }
  - { offset: 0x1B1ABC, size: 0x8, addend: 0x0, symName: __ZNK13llama_hparams6is_swaEj, symObjAddr: 0x338, symBinAddr: 0x3F394, symSize: 0x40 }
  - { offset: 0x1B35E6, size: 0x8, addend: 0x0, symName: __ZL14g_logger_state.0, symObjAddr: 0x1750, symBinAddr: 0x2283C8, symSize: 0x0 }
  - { offset: 0x1B35F1, size: 0x8, addend: 0x0, symName: __ZL14g_logger_state.1, symObjAddr: 0x33580, symBinAddr: 0x293900, symSize: 0x0 }
  - { offset: 0x1BA803, size: 0x8, addend: 0x0, symName: __ZN9time_measC2ERxb, symObjAddr: 0x0, symBinAddr: 0x3F3D4, symSize: 0x48 }
  - { offset: 0x1BA889, size: 0x8, addend: 0x0, symName: __ZN9time_measC1ERxb, symObjAddr: 0x48, symBinAddr: 0x3F41C, symSize: 0x48 }
  - { offset: 0x1BA90B, size: 0x8, addend: 0x0, symName: __ZN9time_measD2Ev, symObjAddr: 0x90, symBinAddr: 0x3F464, symSize: 0x44 }
  - { offset: 0x1BA957, size: 0x8, addend: 0x0, symName: __ZN9time_measD1Ev, symObjAddr: 0xE4, symBinAddr: 0x3F4A8, symSize: 0x44 }
  - { offset: 0x1BA9A9, size: 0x8, addend: 0x0, symName: _llama_log_set, symObjAddr: 0x128, symBinAddr: 0x3F4EC, symSize: 0x44 }
  - { offset: 0x1BAA0D, size: 0x8, addend: 0x0, symName: __Z26llama_log_callback_default14ggml_log_levelPKcPv, symObjAddr: 0x16C, symBinAddr: 0x3F530, symSize: 0x30 }
  - { offset: 0x1BAC94, size: 0x8, addend: 0x0, symName: __Z18llama_log_internal14ggml_log_levelPKcz, symObjAddr: 0x19C, symBinAddr: 0x3F560, symSize: 0xF8 }
  - { offset: 0x1BB0F8, size: 0x8, addend: 0x0, symName: __Z11replace_allRNSt3__112basic_stringIcNS_11char_traitsIcEENS_9allocatorIcEEEERKS5_S8_, symObjAddr: 0x294, symBinAddr: 0x3F658, symSize: 0x1F8 }
  - { offset: 0x1BBB87, size: 0x8, addend: 0x0, symName: __Z6formatPKcz, symObjAddr: 0x48C, symBinAddr: 0x3F850, symSize: 0x15C }
  - { offset: 0x1BC3D2, size: 0x8, addend: 0x0, symName: __Z25llama_format_tensor_shapeRKNSt3__16vectorIxNS_9allocatorIxEEEE, symObjAddr: 0x5E8, symBinAddr: 0x3F9AC, symSize: 0x170 }
  - { offset: 0x1BC8CC, size: 0x8, addend: 0x0, symName: __ZNKSt3__16vectorIxNS_9allocatorIxEEE20__throw_out_of_rangeB8ne180100Ev, symObjAddr: 0x1260, symBinAddr: 0x403DC, symSize: 0x14 }
  - { offset: 0x1BC924, size: 0x8, addend: 0x0, symName: __Z25llama_format_tensor_shapePK11ggml_tensor, symObjAddr: 0x758, symBinAddr: 0x3FB1C, symSize: 0x174 }
  - { offset: 0x1BCF3B, size: 0x8, addend: 0x0, symName: __Z14gguf_kv_to_strPK12gguf_contexti, symObjAddr: 0x8CC, symBinAddr: 0x3FC90, symSize: 0x5B8 }
  - { offset: 0x1BEBFB, size: 0x8, addend: 0x0, symName: __ZL16gguf_data_to_str9gguf_typePKvi, symObjAddr: 0xFBC, symBinAddr: 0x40248, symSize: 0x194 }
  - { offset: 0x1C14B3, size: 0x8, addend: 0x0, symName: __ZN16llama_io_write_i12write_stringERKNSt3__112basic_stringIcNS0_11char_traitsIcEENS0_9allocatorIcEEEE, symObjAddr: 0x0, symBinAddr: 0x403F0, symSize: 0x78 }
  - { offset: 0x1C3F3E, size: 0x8, addend: 0x0, symName: __ZN16llama_io_write_i12write_stringERKNSt3__112basic_stringIcNS0_11char_traitsIcEENS0_9allocatorIcEEEE, symObjAddr: 0x0, symBinAddr: 0x403F0, symSize: 0x78 }
  - { offset: 0x1C404D, size: 0x8, addend: 0x0, symName: __ZN15llama_io_read_i11read_stringERNSt3__112basic_stringIcNS0_11char_traitsIcEENS0_9allocatorIcEEEE, symObjAddr: 0x78, symBinAddr: 0x40468, symSize: 0x60 }
  - { offset: 0x1DE6B0, size: 0x8, addend: 0x0, symName: __ZNSt3__113__tree_removeB8ne180100IPNS_16__tree_node_baseIPvEEEEvT_S5_, symObjAddr: 0x4E5C, symBinAddr: 0x44B74, symSize: 0x3C4 }
  - { offset: 0x1E4E88, size: 0x8, addend: 0x0, symName: __ZN24llama_kv_cache_recurrentC2ERK11llama_model9ggml_typeS3_bjj, symObjAddr: 0x0, symBinAddr: 0x404C8, symSize: 0xBF8 }
  - { offset: 0x1E8020, size: 0x8, addend: 0x0, symName: __ZNSt3__16vectorIN24llama_kv_cache_recurrent7kv_cellENS_9allocatorIS2_EEE8__appendEm, symObjAddr: 0x49F8, symBinAddr: 0x44934, symSize: 0x22C }
  - { offset: 0x1E88A2, size: 0x8, addend: 0x0, symName: __ZNKSt3__16vectorIN24llama_kv_cache_recurrent7kv_cellENS_9allocatorIS2_EEE20__throw_length_errorB8ne180100Ev, symObjAddr: 0x4C24, symBinAddr: 0x44B60, symSize: 0x14 }
  - { offset: 0x1E9234, size: 0x8, addend: 0x0, symName: __ZNSt3__16vectorINS_10unique_ptrI19ggml_backend_buffer27ggml_backend_buffer_deleterEENS_9allocatorIS4_EEED1B8ne180100Ev, symObjAddr: 0xCB8, symBinAddr: 0x41180, symSize: 0x70 }
  - { offset: 0x1E941D, size: 0x8, addend: 0x0, symName: __ZNSt3__16vectorINS_10unique_ptrI12ggml_context20ggml_context_deleterEENS_9allocatorIS4_EEED1B8ne180100Ev, symObjAddr: 0xD28, symBinAddr: 0x411F0, symSize: 0x70 }
  - { offset: 0x1E9606, size: 0x8, addend: 0x0, symName: __ZNSt3__16vectorIN24llama_kv_cache_recurrent7kv_cellENS_9allocatorIS2_EEED1B8ne180100Ev, symObjAddr: 0xD98, symBinAddr: 0x41260, symSize: 0x68 }
  - { offset: 0x1E9885, size: 0x8, addend: 0x0, symName: __ZNK24llama_kv_cache_recurrent12size_k_bytesEv, symObjAddr: 0xBF8, symBinAddr: 0x410C0, symSize: 0x60 }
  - { offset: 0x1E991F, size: 0x8, addend: 0x0, symName: __ZNK24llama_kv_cache_recurrent12size_v_bytesEv, symObjAddr: 0xC58, symBinAddr: 0x41120, symSize: 0x60 }
  - { offset: 0x1E9DAA, size: 0x8, addend: 0x0, symName: __ZN24llama_kv_cache_recurrentC1ERK11llama_model9ggml_typeS3_bjj, symObjAddr: 0xE00, symBinAddr: 0x412C8, symSize: 0x4 }
  - { offset: 0x1E9E30, size: 0x8, addend: 0x0, symName: __ZN24llama_kv_cache_recurrentC1ERK11llama_model9ggml_typeS3_bjj, symObjAddr: 0xE00, symBinAddr: 0x412C8, symSize: 0x4 }
  - { offset: 0x1E9EED, size: 0x8, addend: 0x0, symName: __ZN24llama_kv_cache_recurrent5clearEb, symObjAddr: 0xE04, symBinAddr: 0x412CC, symSize: 0xC8 }
  - { offset: 0x1EA384, size: 0x8, addend: 0x0, symName: __ZN24llama_kv_cache_recurrent6seq_rmEiii, symObjAddr: 0xECC, symBinAddr: 0x41394, symSize: 0x30C }
  - { offset: 0x1EAB5B, size: 0x8, addend: 0x0, symName: __ZN24llama_kv_cache_recurrent6seq_cpEiiii, symObjAddr: 0x11D8, symBinAddr: 0x416A0, symSize: 0x1E8 }
  - { offset: 0x1EB14D, size: 0x8, addend: 0x0, symName: __ZN24llama_kv_cache_recurrent8seq_keepEi, symObjAddr: 0x13C0, symBinAddr: 0x41888, symSize: 0x1E4 }
  - { offset: 0x1EB5B4, size: 0x8, addend: 0x0, symName: __ZN24llama_kv_cache_recurrent7seq_addEiiii, symObjAddr: 0x15A4, symBinAddr: 0x41A6C, symSize: 0xA4 }
  - { offset: 0x1EB798, size: 0x8, addend: 0x0, symName: __ZN24llama_kv_cache_recurrent7seq_divEiiii, symObjAddr: 0x1648, symBinAddr: 0x41B10, symSize: 0xA8 }
  - { offset: 0x1EB9E8, size: 0x8, addend: 0x0, symName: __ZNK24llama_kv_cache_recurrent11seq_pos_minEi, symObjAddr: 0x16F0, symBinAddr: 0x41BB8, symSize: 0x90 }
  - { offset: 0x1EBBC7, size: 0x8, addend: 0x0, symName: __ZNK24llama_kv_cache_recurrent11seq_pos_maxEi, symObjAddr: 0x1780, symBinAddr: 0x41C48, symSize: 0x84 }
  - { offset: 0x1EC6CD, size: 0x8, addend: 0x0, symName: __ZN24llama_kv_cache_recurrent10init_batchERK11llama_batchjbb, symObjAddr: 0x1804, symBinAddr: 0x41CCC, symSize: 0x2E8 }
  - { offset: 0x1ED4CD, size: 0x8, addend: 0x0, symName: __ZNSt3__16vectorIN24llama_kv_cache_recurrent7kv_cellENS_9allocatorIS2_EEE16__init_with_sizeB8ne180100IPS2_S7_EEvT_T0_m, symObjAddr: 0x5234, symBinAddr: 0x44F4C, symSize: 0x148 }
  - { offset: 0x1EDC07, size: 0x8, addend: 0x0, symName: __ZNKSt3__16vectorI12llama_ubatchNS_9allocatorIS1_EEE20__throw_length_errorB8ne180100Ev, symObjAddr: 0x5220, symBinAddr: 0x44F38, symSize: 0x14 }
  - { offset: 0x1EDC31, size: 0x8, addend: 0x0, symName: __ZNSt3__16vectorIN24llama_kv_cache_recurrent7kv_cellENS_9allocatorIS2_EEE16__init_with_sizeB8ne180100IPS2_S7_EEvT_T0_m, symObjAddr: 0x5234, symBinAddr: 0x44F4C, symSize: 0x148 }
  - { offset: 0x1EDF4E, size: 0x8, addend: 0x0, symName: __ZN24llama_kv_cache_recurrent7prepareERKNSt3__16vectorI12llama_ubatchNS0_9allocatorIS2_EEEE, symObjAddr: 0x1AEC, symBinAddr: 0x41FB4, symSize: 0xC0 }
  - { offset: 0x1EEABA, size: 0x8, addend: 0x0, symName: __ZN24llama_kv_cache_recurrent9init_fullEv, symObjAddr: 0x1C44, symBinAddr: 0x42074, symSize: 0x60 }
  - { offset: 0x1EEC2F, size: 0x8, addend: 0x0, symName: __ZN24llama_kv_cache_recurrent11init_updateEP13llama_contextb, symObjAddr: 0x1CA4, symBinAddr: 0x420D4, symSize: 0x54 }
  - { offset: 0x1EEE76, size: 0x8, addend: 0x0, symName: __ZN24llama_kv_cache_recurrent9find_slotERK12llama_ubatch, symObjAddr: 0x1CF8, symBinAddr: 0x42128, symSize: 0xB74 }
  - { offset: 0x1F061E, size: 0x8, addend: 0x0, symName: __ZNK24llama_kv_cache_recurrent13get_can_shiftEv, symObjAddr: 0x286C, symBinAddr: 0x42C9C, symSize: 0x8 }
  - { offset: 0x1F069C, size: 0x8, addend: 0x0, symName: __ZNK24llama_kv_cache_recurrent13get_can_shiftEv, symObjAddr: 0x286C, symBinAddr: 0x42C9C, symSize: 0x8 }
  - { offset: 0x1F06C2, size: 0x8, addend: 0x0, symName: __ZNK24llama_kv_cache_recurrent6s_copyEi, symObjAddr: 0x2874, symBinAddr: 0x42CA4, symSize: 0x48 }
  - { offset: 0x1F0722, size: 0x8, addend: 0x0, symName: __ZNK24llama_kv_cache_recurrent6s_maskEi, symObjAddr: 0x28BC, symBinAddr: 0x42CEC, symSize: 0x48 }
  - { offset: 0x1F079D, size: 0x8, addend: 0x0, symName: __ZNK24llama_kv_cache_recurrent10total_sizeEv, symObjAddr: 0x2904, symBinAddr: 0x42D34, symSize: 0x60 }
  - { offset: 0x1F1022, size: 0x8, addend: 0x0, symName: __ZNK24llama_kv_cache_recurrent11state_writeER16llama_io_write_ii, symObjAddr: 0x2964, symBinAddr: 0x42D94, symSize: 0x5A8 }
  - { offset: 0x1F1F25, size: 0x8, addend: 0x0, symName: __ZNK24llama_kv_cache_recurrent16state_write_metaER16llama_io_write_iRKNSt3__16vectorINS2_4pairIjjEENS2_9allocatorIS5_EEEEi, symObjAddr: 0x2F0C, symBinAddr: 0x4333C, symSize: 0x164 }
  - { offset: 0x1F2297, size: 0x8, addend: 0x0, symName: __ZNK24llama_kv_cache_recurrent16state_write_dataER16llama_io_write_iRKNSt3__16vectorINS2_4pairIjjEENS2_9allocatorIS5_EEEE, symObjAddr: 0x3070, symBinAddr: 0x434A0, symSize: 0x244 }
  - { offset: 0x1F2727, size: 0x8, addend: 0x0, symName: __ZNKSt3__16vectorINS_4pairIjjEENS_9allocatorIS2_EEE20__throw_length_errorB8ne180100Ev, symObjAddr: 0x56C4, symBinAddr: 0x453DC, symSize: 0x14 }
  - { offset: 0x1F2823, size: 0x8, addend: 0x0, symName: __ZN24llama_kv_cache_recurrent10state_readER15llama_io_read_ii, symObjAddr: 0x32B4, symBinAddr: 0x436E4, symSize: 0xF4 }
  - { offset: 0x1F291A, size: 0x8, addend: 0x0, symName: __ZN24llama_kv_cache_recurrent15state_read_metaER15llama_io_read_iji, symObjAddr: 0x33A8, symBinAddr: 0x437D8, symSize: 0x620 }
  - { offset: 0x1F3612, size: 0x8, addend: 0x0, symName: __ZN24llama_kv_cache_recurrent15state_read_dataER15llama_io_read_ij, symObjAddr: 0x39C8, symBinAddr: 0x43DF8, symSize: 0x560 }
  - { offset: 0x1F3C98, size: 0x8, addend: 0x0, symName: __ZN30llama_kv_cache_recurrent_stateC2E19llama_memory_status, symObjAddr: 0x3F28, symBinAddr: 0x44358, symSize: 0x2C }
  - { offset: 0x1F3CBF, size: 0x8, addend: 0x0, symName: __ZN30llama_kv_cache_recurrent_stateC1E19llama_memory_status, symObjAddr: 0x3F54, symBinAddr: 0x44384, symSize: 0x2C }
  - { offset: 0x1F3CE8, size: 0x8, addend: 0x0, symName: __ZN30llama_kv_cache_recurrent_stateC1E19llama_memory_status, symObjAddr: 0x3F54, symBinAddr: 0x44384, symSize: 0x2C }
  - { offset: 0x1F3D0A, size: 0x8, addend: 0x0, symName: __ZN30llama_kv_cache_recurrent_stateC2E19llama_memory_statusP24llama_kv_cache_recurrent, symObjAddr: 0x3F80, symBinAddr: 0x443B0, symSize: 0x38 }
  - { offset: 0x1F3D38, size: 0x8, addend: 0x0, symName: __ZN30llama_kv_cache_recurrent_stateC1E19llama_memory_statusP24llama_kv_cache_recurrent, symObjAddr: 0x3FB8, symBinAddr: 0x443E8, symSize: 0x38 }
  - { offset: 0x1F3D68, size: 0x8, addend: 0x0, symName: __ZN30llama_kv_cache_recurrent_stateC1E19llama_memory_statusP24llama_kv_cache_recurrent, symObjAddr: 0x3FB8, symBinAddr: 0x443E8, symSize: 0x38 }
  - { offset: 0x1F3D91, size: 0x8, addend: 0x0, symName: __ZN30llama_kv_cache_recurrent_stateC2E19llama_memory_statusP24llama_kv_cache_recurrent12llama_sbatchNSt3__16vectorI12llama_ubatchNS4_9allocatorIS6_EEEE, symObjAddr: 0x3FF0, symBinAddr: 0x44420, symSize: 0xD4 }
  - { offset: 0x1F3F9B, size: 0x8, addend: 0x0, symName: __ZN30llama_kv_cache_recurrent_stateC1E19llama_memory_statusP24llama_kv_cache_recurrent12llama_sbatchNSt3__16vectorI12llama_ubatchNS4_9allocatorIS6_EEEE, symObjAddr: 0x40C4, symBinAddr: 0x444F4, symSize: 0xD4 }
  - { offset: 0x1F3FDB, size: 0x8, addend: 0x0, symName: __ZN30llama_kv_cache_recurrent_stateC1E19llama_memory_statusP24llama_kv_cache_recurrent12llama_sbatchNSt3__16vectorI12llama_ubatchNS4_9allocatorIS6_EEEE, symObjAddr: 0x40C4, symBinAddr: 0x444F4, symSize: 0xD4 }
  - { offset: 0x1F41E0, size: 0x8, addend: 0x0, symName: __ZN30llama_kv_cache_recurrent_stateD2Ev, symObjAddr: 0x4198, symBinAddr: 0x445C8, symSize: 0xB4 }
  - { offset: 0x1F4860, size: 0x8, addend: 0x0, symName: __ZN30llama_kv_cache_recurrent_stateD1Ev, symObjAddr: 0x424C, symBinAddr: 0x4467C, symSize: 0x4 }
  - { offset: 0x1F4883, size: 0x8, addend: 0x0, symName: __ZN30llama_kv_cache_recurrent_stateD1Ev, symObjAddr: 0x424C, symBinAddr: 0x4467C, symSize: 0x4 }
  - { offset: 0x1F48B3, size: 0x8, addend: 0x0, symName: __ZN30llama_kv_cache_recurrent_stateD0Ev, symObjAddr: 0x4250, symBinAddr: 0x44680, symSize: 0x14 }
  - { offset: 0x1F4911, size: 0x8, addend: 0x0, symName: __ZN30llama_kv_cache_recurrent_state4nextEv, symObjAddr: 0x4264, symBinAddr: 0x44694, symSize: 0x20 }
  - { offset: 0x1F497F, size: 0x8, addend: 0x0, symName: __ZN30llama_kv_cache_recurrent_state5applyEv, symObjAddr: 0x4284, symBinAddr: 0x446B4, symSize: 0x28 }
  - { offset: 0x1F49DE, size: 0x8, addend: 0x0, symName: __ZN30llama_kv_cache_recurrent_state7out_idsEv, symObjAddr: 0x42AC, symBinAddr: 0x446DC, symSize: 0x8 }
  - { offset: 0x1F4A08, size: 0x8, addend: 0x0, symName: __ZNK30llama_kv_cache_recurrent_state10get_statusEv, symObjAddr: 0x42B4, symBinAddr: 0x446E4, symSize: 0x8 }
  - { offset: 0x1F4A56, size: 0x8, addend: 0x0, symName: __ZNK30llama_kv_cache_recurrent_state10get_ubatchEv, symObjAddr: 0x42BC, symBinAddr: 0x446EC, symSize: 0xC }
  - { offset: 0x1F4AA7, size: 0x8, addend: 0x0, symName: __ZNK30llama_kv_cache_recurrent_state8get_n_kvEv, symObjAddr: 0x42C8, symBinAddr: 0x446F8, symSize: 0x20 }
  - { offset: 0x1F4AD1, size: 0x8, addend: 0x0, symName: __ZNK30llama_kv_cache_recurrent_state8get_headEv, symObjAddr: 0x42E8, symBinAddr: 0x44718, symSize: 0x1C }
  - { offset: 0x1F4AFB, size: 0x8, addend: 0x0, symName: __ZNK30llama_kv_cache_recurrent_state8get_sizeEv, symObjAddr: 0x4304, symBinAddr: 0x44734, symSize: 0xC }
  - { offset: 0x1F4B25, size: 0x8, addend: 0x0, symName: __ZNK30llama_kv_cache_recurrent_state7get_k_lEi, symObjAddr: 0x4310, symBinAddr: 0x44740, symSize: 0x10 }
  - { offset: 0x1F4B7D, size: 0x8, addend: 0x0, symName: __ZNK30llama_kv_cache_recurrent_state7get_v_lEi, symObjAddr: 0x4320, symBinAddr: 0x44750, symSize: 0x10 }
  - { offset: 0x1F4C1F, size: 0x8, addend: 0x0, symName: __ZNK30llama_kv_cache_recurrent_state6s_copyEi, symObjAddr: 0x4330, symBinAddr: 0x44760, symSize: 0x4C }
  - { offset: 0x1F4CFC, size: 0x8, addend: 0x0, symName: __ZNK30llama_kv_cache_recurrent_state6s_maskEi, symObjAddr: 0x437C, symBinAddr: 0x447AC, symSize: 0x4C }
  - { offset: 0x1F4D79, size: 0x8, addend: 0x0, symName: __ZN24llama_kv_cache_recurrentD1Ev, symObjAddr: 0x43C8, symBinAddr: 0x447F8, symSize: 0x4 }
  - { offset: 0x1F4D9C, size: 0x8, addend: 0x0, symName: __ZN24llama_kv_cache_recurrentD1Ev, symObjAddr: 0x43C8, symBinAddr: 0x447F8, symSize: 0x4 }
  - { offset: 0x1F4DAF, size: 0x8, addend: 0x0, symName: __ZN24llama_kv_cache_recurrentD2Ev, symObjAddr: 0x4894, symBinAddr: 0x44810, symSize: 0x124 }
  - { offset: 0x1F566F, size: 0x8, addend: 0x0, symName: __ZN24llama_kv_cache_recurrentD0Ev, symObjAddr: 0x43CC, symBinAddr: 0x447FC, symSize: 0x14 }
  - { offset: 0x1F655A, size: 0x8, addend: 0x0, symName: __ZNKSt3__16vectorIN24llama_kv_cache_recurrent7kv_cellENS_9allocatorIS2_EEE20__throw_length_errorB8ne180100Ev, symObjAddr: 0x4C24, symBinAddr: 0x44B60, symSize: 0x14 }
  - { offset: 0x1F6982, size: 0x8, addend: 0x0, symName: __ZNSt3__113__tree_removeB8ne180100IPNS_16__tree_node_baseIPvEEEEvT_S5_, symObjAddr: 0x4E5C, symBinAddr: 0x44B74, symSize: 0x3C4 }
  - { offset: 0x1F6D32, size: 0x8, addend: 0x0, symName: __ZNSt3__13setIiNS_4lessIiEENS_9allocatorIiEEE6insertB8ne180100INS_21__tree_const_iteratorIiPNS_11__tree_nodeIiPvEElEEEEvT_SD_, symObjAddr: 0x5408, symBinAddr: 0x45120, symSize: 0x10C }
  - { offset: 0x1F6D7A, size: 0x8, addend: 0x0, symName: __ZNSt3__13setIiNS_4lessIiEENS_9allocatorIiEEE6insertB8ne180100INS_21__tree_const_iteratorIiPNS_11__tree_nodeIiPvEElEEEEvT_SD_, symObjAddr: 0x5408, symBinAddr: 0x45120, symSize: 0x10C }
  - { offset: 0x1F703E, size: 0x8, addend: 0x0, symName: __ZNSt3__128__exception_guard_exceptionsINS_6vectorIN24llama_kv_cache_recurrent7kv_cellENS_9allocatorIS3_EEE16__destroy_vectorEED1B8ne180100Ev, symObjAddr: 0x537C, symBinAddr: 0x45094, symSize: 0x8C }
  - { offset: 0x1F73C3, size: 0x8, addend: 0x0, symName: __ZNSt3__16__treeIiNS_4lessIiEENS_9allocatorIiEEE12__find_equalIiEERPNS_16__tree_node_baseIPvEENS_21__tree_const_iteratorIiPNS_11__tree_nodeIiS8_EElEERPNS_15__tree_end_nodeISA_EESB_RKT_, symObjAddr: 0x5514, symBinAddr: 0x4522C, symSize: 0x1B0 }
  - { offset: 0x1F742C, size: 0x8, addend: 0x0, symName: __ZNSt3__16__treeIiNS_4lessIiEENS_9allocatorIiEEE12__find_equalIiEERPNS_16__tree_node_baseIPvEENS_21__tree_const_iteratorIiPNS_11__tree_nodeIiS8_EElEERPNS_15__tree_end_nodeISA_EESB_RKT_, symObjAddr: 0x5514, symBinAddr: 0x4522C, symSize: 0x1B0 }
  - { offset: 0x1F7448, size: 0x8, addend: 0x0, symName: __ZNSt3__16__treeIiNS_4lessIiEENS_9allocatorIiEEE12__find_equalIiEERPNS_16__tree_node_baseIPvEENS_21__tree_const_iteratorIiPNS_11__tree_nodeIiS8_EElEERPNS_15__tree_end_nodeISA_EESB_RKT_, symObjAddr: 0x5514, symBinAddr: 0x4522C, symSize: 0x1B0 }
  - { offset: 0x1F95DF, size: 0x8, addend: 0x0, symName: __ZN27llama_kv_cache_unified_iswaC2ERK11llama_model9ggml_typeS3_bbbjjjj, symObjAddr: 0x0, symBinAddr: 0x453F0, symSize: 0x334 }
  - { offset: 0x20EF94, size: 0x8, addend: 0x0, symName: __ZNSt3__111make_uniqueB8ne180100I33llama_kv_cache_unified_iswa_stateJP27llama_kv_cache_unified_iswa12llama_sbatchNS_6vectorIjNS_9allocatorIjEEEES8_NS5_I12llama_ubatchNS6_IS9_EEEEEEENS_11__unique_ifIT_E15__unique_singleEDpOT0_, symObjAddr: 0x978, symBinAddr: 0x45D68, symSize: 0x1FC }
  - { offset: 0x21559E, size: 0x8, addend: 0x0, symName: __ZN27llama_kv_cache_unified_iswaC1ERK11llama_model9ggml_typeS3_bbbjjjj, symObjAddr: 0x334, symBinAddr: 0x45724, symSize: 0x14 }
  - { offset: 0x216093, size: 0x8, addend: 0x0, symName: __ZN27llama_kv_cache_unified_iswaC2ERK11llama_model9ggml_typeS3_bbbjjjj, symObjAddr: 0x0, symBinAddr: 0x453F0, symSize: 0x334 }
  - { offset: 0x216898, size: 0x8, addend: 0x0, symName: __ZN27llama_kv_cache_unified_iswa5clearEb, symObjAddr: 0x348, symBinAddr: 0x45738, symSize: 0x40 }
  - { offset: 0x21692C, size: 0x8, addend: 0x0, symName: __ZN27llama_kv_cache_unified_iswa6seq_rmEiii, symObjAddr: 0x388, symBinAddr: 0x45778, symSize: 0x6C }
  - { offset: 0x216A0F, size: 0x8, addend: 0x0, symName: __ZN27llama_kv_cache_unified_iswa6seq_cpEiiii, symObjAddr: 0x3F4, symBinAddr: 0x457E4, symSize: 0x68 }
  - { offset: 0x216AE5, size: 0x8, addend: 0x0, symName: __ZN27llama_kv_cache_unified_iswa8seq_keepEi, symObjAddr: 0x45C, symBinAddr: 0x4584C, symSize: 0x40 }
  - { offset: 0x216B79, size: 0x8, addend: 0x0, symName: __ZN27llama_kv_cache_unified_iswa7seq_addEiiii, symObjAddr: 0x49C, symBinAddr: 0x4588C, symSize: 0x68 }
  - { offset: 0x216C4F, size: 0x8, addend: 0x0, symName: __ZN27llama_kv_cache_unified_iswa7seq_divEiiii, symObjAddr: 0x504, symBinAddr: 0x458F4, symSize: 0x68 }
  - { offset: 0x216D25, size: 0x8, addend: 0x0, symName: __ZNK27llama_kv_cache_unified_iswa11seq_pos_minEi, symObjAddr: 0x56C, symBinAddr: 0x4595C, symSize: 0x10 }
  - { offset: 0x216D5E, size: 0x8, addend: 0x0, symName: __ZNK27llama_kv_cache_unified_iswa11seq_pos_minEi, symObjAddr: 0x56C, symBinAddr: 0x4595C, symSize: 0x10 }
  - { offset: 0x216D8E, size: 0x8, addend: 0x0, symName: __ZNK27llama_kv_cache_unified_iswa11seq_pos_maxEi, symObjAddr: 0x57C, symBinAddr: 0x4596C, symSize: 0x10 }
  - { offset: 0x216DC7, size: 0x8, addend: 0x0, symName: __ZNK27llama_kv_cache_unified_iswa11seq_pos_maxEi, symObjAddr: 0x57C, symBinAddr: 0x4596C, symSize: 0x10 }
  - { offset: 0x21788C, size: 0x8, addend: 0x0, symName: __ZN27llama_kv_cache_unified_iswa10init_batchERK11llama_batchjbb, symObjAddr: 0x58C, symBinAddr: 0x4597C, symSize: 0x3EC }
  - { offset: 0x219899, size: 0x8, addend: 0x0, symName: __ZN33llama_kv_cache_unified_iswa_stateC2EP27llama_kv_cache_unified_iswa12llama_sbatchNSt3__16vectorIjNS3_9allocatorIjEEEES7_NS4_I12llama_ubatchNS5_IS8_EEEE, symObjAddr: 0x11C4, symBinAddr: 0x4651C, symSize: 0x4E0 }
  - { offset: 0x21B96A, size: 0x8, addend: 0x0, symName: __ZNSt3__111make_uniqueB8ne180100I33llama_kv_cache_unified_iswa_stateJP27llama_kv_cache_unified_iswa12llama_sbatchNS_6vectorIjNS_9allocatorIjEEEES8_NS5_I12llama_ubatchNS6_IS9_EEEEEEENS_11__unique_ifIT_E15__unique_singleEDpOT0_.cold.1, symObjAddr: 0x1C2C, symBinAddr: 0x1C9380, symSize: 0x3C }
  - { offset: 0x21BA6D, size: 0x8, addend: 0x0, symName: __ZN27llama_kv_cache_unified_iswa9init_fullEv, symObjAddr: 0xC0C, symBinAddr: 0x45F64, symSize: 0x54 }
  - { offset: 0x21BB68, size: 0x8, addend: 0x0, symName: __ZN33llama_kv_cache_unified_iswa_stateC2EP27llama_kv_cache_unified_iswa, symObjAddr: 0xE34, symBinAddr: 0x4618C, symSize: 0x1B4 }
  - { offset: 0x21C277, size: 0x8, addend: 0x0, symName: __ZN27llama_kv_cache_unified_iswa11init_updateEP13llama_contextb, symObjAddr: 0xC60, symBinAddr: 0x45FB8, symSize: 0x6C }
  - { offset: 0x21C3A3, size: 0x8, addend: 0x0, symName: __ZN33llama_kv_cache_unified_iswa_stateC2EP27llama_kv_cache_unified_iswaP13llama_contextb, symObjAddr: 0xFEC, symBinAddr: 0x46344, symSize: 0x1D4 }
  - { offset: 0x21CAA8, size: 0x8, addend: 0x0, symName: __ZNK27llama_kv_cache_unified_iswa13get_can_shiftEv, symObjAddr: 0xCCC, symBinAddr: 0x46024, symSize: 0x38 }
  - { offset: 0x21CB0D, size: 0x8, addend: 0x0, symName: __ZNK27llama_kv_cache_unified_iswa11state_writeER16llama_io_write_ii, symObjAddr: 0xD04, symBinAddr: 0x4605C, symSize: 0x50 }
  - { offset: 0x21CBB7, size: 0x8, addend: 0x0, symName: __ZN27llama_kv_cache_unified_iswa10state_readER15llama_io_read_ii, symObjAddr: 0xD54, symBinAddr: 0x460AC, symSize: 0x50 }
  - { offset: 0x21CC77, size: 0x8, addend: 0x0, symName: __ZNK27llama_kv_cache_unified_iswa8get_baseEv, symObjAddr: 0xDA4, symBinAddr: 0x460FC, symSize: 0x8 }
  - { offset: 0x21CC9B, size: 0x8, addend: 0x0, symName: __ZNK27llama_kv_cache_unified_iswa8get_baseEv, symObjAddr: 0xDA4, symBinAddr: 0x460FC, symSize: 0x8 }
  - { offset: 0x21CCB7, size: 0x8, addend: 0x0, symName: __ZNK27llama_kv_cache_unified_iswa7get_swaEv, symObjAddr: 0xDAC, symBinAddr: 0x46104, symSize: 0x8 }
  - { offset: 0x21CCDB, size: 0x8, addend: 0x0, symName: __ZNK27llama_kv_cache_unified_iswa7get_swaEv, symObjAddr: 0xDAC, symBinAddr: 0x46104, symSize: 0x8 }
  - { offset: 0x21CCF7, size: 0x8, addend: 0x0, symName: __ZN33llama_kv_cache_unified_iswa_stateC2E19llama_memory_status, symObjAddr: 0xDB4, symBinAddr: 0x4610C, symSize: 0x40 }
  - { offset: 0x21CD1E, size: 0x8, addend: 0x0, symName: __ZN33llama_kv_cache_unified_iswa_stateC1E19llama_memory_status, symObjAddr: 0xDF4, symBinAddr: 0x4614C, symSize: 0x40 }
  - { offset: 0x21CD47, size: 0x8, addend: 0x0, symName: __ZN33llama_kv_cache_unified_iswa_stateC1E19llama_memory_status, symObjAddr: 0xDF4, symBinAddr: 0x4614C, symSize: 0x40 }
  - { offset: 0x21CF05, size: 0x8, addend: 0x0, symName: __ZN33llama_kv_cache_unified_iswa_stateC1EP27llama_kv_cache_unified_iswa, symObjAddr: 0xFE8, symBinAddr: 0x46340, symSize: 0x4 }
  - { offset: 0x21CF2F, size: 0x8, addend: 0x0, symName: __ZN33llama_kv_cache_unified_iswa_stateC1EP27llama_kv_cache_unified_iswa, symObjAddr: 0xFE8, symBinAddr: 0x46340, symSize: 0x4 }
  - { offset: 0x21CF49, size: 0x8, addend: 0x0, symName: __ZN33llama_kv_cache_unified_iswa_stateC1EP27llama_kv_cache_unified_iswaP13llama_contextb, symObjAddr: 0x11C0, symBinAddr: 0x46518, symSize: 0x4 }
  - { offset: 0x21CF86, size: 0x8, addend: 0x0, symName: __ZN33llama_kv_cache_unified_iswa_stateC1EP27llama_kv_cache_unified_iswaP13llama_contextb, symObjAddr: 0x11C0, symBinAddr: 0x46518, symSize: 0x4 }
  - { offset: 0x21D27E, size: 0x8, addend: 0x0, symName: __ZN33llama_kv_cache_unified_iswa_stateC1EP27llama_kv_cache_unified_iswa12llama_sbatchNSt3__16vectorIjNS3_9allocatorIjEEEES7_NS4_I12llama_ubatchNS5_IS8_EEEE, symObjAddr: 0x16A4, symBinAddr: 0x469FC, symSize: 0x4 }
  - { offset: 0x21D2C8, size: 0x8, addend: 0x0, symName: __ZN33llama_kv_cache_unified_iswa_stateC1EP27llama_kv_cache_unified_iswa12llama_sbatchNSt3__16vectorIjNS3_9allocatorIjEEEES7_NS4_I12llama_ubatchNS5_IS8_EEEE, symObjAddr: 0x16A4, symBinAddr: 0x469FC, symSize: 0x4 }
  - { offset: 0x21D2FE, size: 0x8, addend: 0x0, symName: __ZN33llama_kv_cache_unified_iswa_stateD2Ev, symObjAddr: 0x16A8, symBinAddr: 0x46A00, symSize: 0xE4 }
  - { offset: 0x21DAB3, size: 0x8, addend: 0x0, symName: __ZN33llama_kv_cache_unified_iswa_stateD1Ev, symObjAddr: 0x178C, symBinAddr: 0x46AE4, symSize: 0x4 }
  - { offset: 0x21DAD6, size: 0x8, addend: 0x0, symName: __ZN33llama_kv_cache_unified_iswa_stateD1Ev, symObjAddr: 0x178C, symBinAddr: 0x46AE4, symSize: 0x4 }
  - { offset: 0x21DB05, size: 0x8, addend: 0x0, symName: __ZN33llama_kv_cache_unified_iswa_stateD0Ev, symObjAddr: 0x1790, symBinAddr: 0x46AE8, symSize: 0x14 }
  - { offset: 0x21DB61, size: 0x8, addend: 0x0, symName: __ZN33llama_kv_cache_unified_iswa_state4nextEv, symObjAddr: 0x17A4, symBinAddr: 0x46AFC, symSize: 0x58 }
  - { offset: 0x21DBFF, size: 0x8, addend: 0x0, symName: __ZN33llama_kv_cache_unified_iswa_state5applyEv, symObjAddr: 0x17FC, symBinAddr: 0x46B54, symSize: 0x44 }
  - { offset: 0x21DC8E, size: 0x8, addend: 0x0, symName: __ZN33llama_kv_cache_unified_iswa_state7out_idsEv, symObjAddr: 0x1840, symBinAddr: 0x46B98, symSize: 0x8 }
  - { offset: 0x21DCB7, size: 0x8, addend: 0x0, symName: __ZNK33llama_kv_cache_unified_iswa_state10get_statusEv, symObjAddr: 0x1848, symBinAddr: 0x46BA0, symSize: 0x8 }
  - { offset: 0x21DD04, size: 0x8, addend: 0x0, symName: __ZNK33llama_kv_cache_unified_iswa_state10get_ubatchEv, symObjAddr: 0x1850, symBinAddr: 0x46BA8, symSize: 0xC }
  - { offset: 0x21DD69, size: 0x8, addend: 0x0, symName: __ZNK33llama_kv_cache_unified_iswa_state8get_baseEv, symObjAddr: 0x185C, symBinAddr: 0x46BB4, symSize: 0x8 }
  - { offset: 0x21DD94, size: 0x8, addend: 0x0, symName: __ZNK33llama_kv_cache_unified_iswa_state8get_baseEv, symObjAddr: 0x185C, symBinAddr: 0x46BB4, symSize: 0x8 }
  - { offset: 0x21DDB1, size: 0x8, addend: 0x0, symName: __ZNK33llama_kv_cache_unified_iswa_state7get_swaEv, symObjAddr: 0x1864, symBinAddr: 0x46BBC, symSize: 0x8 }
  - { offset: 0x21DDDC, size: 0x8, addend: 0x0, symName: __ZNK33llama_kv_cache_unified_iswa_state7get_swaEv, symObjAddr: 0x1864, symBinAddr: 0x46BBC, symSize: 0x8 }
  - { offset: 0x21DE13, size: 0x8, addend: 0x0, symName: __ZN27llama_kv_cache_unified_iswaD1Ev, symObjAddr: 0x186C, symBinAddr: 0x46BC4, symSize: 0x5C }
  - { offset: 0x21DF9D, size: 0x8, addend: 0x0, symName: __ZN27llama_kv_cache_unified_iswaD0Ev, symObjAddr: 0x18C8, symBinAddr: 0x46C20, symSize: 0x5C }
  - { offset: 0x21E53E, size: 0x8, addend: 0x0, symName: '__ZNSt3__110__function6__funcIZN27llama_kv_cache_unified_iswaC1ERK11llama_model9ggml_typeS6_bbbjjjjE3$_0NS_9allocatorIS7_EEFbiEED1Ev', symObjAddr: 0x19A8, symBinAddr: 0x46C7C, symSize: 0x4 }
  - { offset: 0x21E569, size: 0x8, addend: 0x0, symName: '__ZNSt3__110__function6__funcIZN27llama_kv_cache_unified_iswaC1ERK11llama_model9ggml_typeS6_bbbjjjjE3$_0NS_9allocatorIS7_EEFbiEED0Ev', symObjAddr: 0x19AC, symBinAddr: 0x46C80, symSize: 0x4 }
  - { offset: 0x21E61E, size: 0x8, addend: 0x0, symName: '__ZNKSt3__110__function6__funcIZN27llama_kv_cache_unified_iswaC1ERK11llama_model9ggml_typeS6_bbbjjjjE3$_0NS_9allocatorIS7_EEFbiEE7__cloneEv', symObjAddr: 0x19B0, symBinAddr: 0x46C84, symSize: 0x34 }
  - { offset: 0x21E76B, size: 0x8, addend: 0x0, symName: '__ZNKSt3__110__function6__funcIZN27llama_kv_cache_unified_iswaC1ERK11llama_model9ggml_typeS6_bbbjjjjE3$_0NS_9allocatorIS7_EEFbiEE7__cloneEPNS0_6__baseISA_EE', symObjAddr: 0x19E4, symBinAddr: 0x46CB8, symSize: 0x14 }
  - { offset: 0x21E7DB, size: 0x8, addend: 0x0, symName: '__ZNSt3__110__function6__funcIZN27llama_kv_cache_unified_iswaC1ERK11llama_model9ggml_typeS6_bbbjjjjE3$_0NS_9allocatorIS7_EEFbiEE7destroyEv', symObjAddr: 0x19F8, symBinAddr: 0x46CCC, symSize: 0x4 }
  - { offset: 0x21E82C, size: 0x8, addend: 0x0, symName: '__ZNSt3__110__function6__funcIZN27llama_kv_cache_unified_iswaC1ERK11llama_model9ggml_typeS6_bbbjjjjE3$_0NS_9allocatorIS7_EEFbiEE18destroy_deallocateEv', symObjAddr: 0x19FC, symBinAddr: 0x46CD0, symSize: 0x4 }
  - { offset: 0x21E861, size: 0x8, addend: 0x0, symName: '__ZNSt3__110__function6__funcIZN27llama_kv_cache_unified_iswaC1ERK11llama_model9ggml_typeS6_bbbjjjjE3$_0NS_9allocatorIS7_EEFbiEE18destroy_deallocateEv', symObjAddr: 0x19FC, symBinAddr: 0x46CD0, symSize: 0x4 }
  - { offset: 0x21E884, size: 0x8, addend: 0x0, symName: '__ZNSt3__110__function6__funcIZN27llama_kv_cache_unified_iswaC1ERK11llama_model9ggml_typeS6_bbbjjjjE3$_0NS_9allocatorIS7_EEFbiEE18destroy_deallocateEv', symObjAddr: 0x19FC, symBinAddr: 0x46CD0, symSize: 0x4 }
  - { offset: 0x21E8B0, size: 0x8, addend: 0x0, symName: '__ZNSt3__110__function6__funcIZN27llama_kv_cache_unified_iswaC1ERK11llama_model9ggml_typeS6_bbbjjjjE3$_0NS_9allocatorIS7_EEFbiEE18destroy_deallocateEv', symObjAddr: 0x19FC, symBinAddr: 0x46CD0, symSize: 0x4 }
  - { offset: 0x21E8D6, size: 0x8, addend: 0x0, symName: '__ZNSt3__110__function6__funcIZN27llama_kv_cache_unified_iswaC1ERK11llama_model9ggml_typeS6_bbbjjjjE3$_0NS_9allocatorIS7_EEFbiEE18destroy_deallocateEv', symObjAddr: 0x19FC, symBinAddr: 0x46CD0, symSize: 0x4 }
  - { offset: 0x21E97B, size: 0x8, addend: 0x0, symName: '__ZNSt3__110__function6__funcIZN27llama_kv_cache_unified_iswaC1ERK11llama_model9ggml_typeS6_bbbjjjjE3$_0NS_9allocatorIS7_EEFbiEEclEOi', symObjAddr: 0x1A00, symBinAddr: 0x46CD4, symSize: 0x24 }
  - { offset: 0x21EA6D, size: 0x8, addend: 0x0, symName: '__ZNKSt3__110__function6__funcIZN27llama_kv_cache_unified_iswaC1ERK11llama_model9ggml_typeS6_bbbjjjjE3$_0NS_9allocatorIS7_EEFbiEE6targetERKSt9type_info', symObjAddr: 0x1A24, symBinAddr: 0x46CF8, symSize: 0x6C }
  - { offset: 0x21EB1F, size: 0x8, addend: 0x0, symName: '__ZNKSt3__110__function6__funcIZN27llama_kv_cache_unified_iswaC1ERK11llama_model9ggml_typeS6_bbbjjjjE3$_0NS_9allocatorIS7_EEFbiEE11target_typeEv', symObjAddr: 0x1A90, symBinAddr: 0x46D64, symSize: 0xC }
  - { offset: 0x21EB44, size: 0x8, addend: 0x0, symName: '__ZNSt3__110__function6__funcIZN27llama_kv_cache_unified_iswaC1ERK11llama_model9ggml_typeS6_bbbjjjjE3$_1NS_9allocatorIS7_EEFbiEED1Ev', symObjAddr: 0x1AC4, symBinAddr: 0x46D70, symSize: 0x4 }
  - { offset: 0x21EB6F, size: 0x8, addend: 0x0, symName: '__ZNSt3__110__function6__funcIZN27llama_kv_cache_unified_iswaC1ERK11llama_model9ggml_typeS6_bbbjjjjE3$_1NS_9allocatorIS7_EEFbiEED0Ev', symObjAddr: 0x1AC8, symBinAddr: 0x46D74, symSize: 0x4 }
  - { offset: 0x21EC24, size: 0x8, addend: 0x0, symName: '__ZNKSt3__110__function6__funcIZN27llama_kv_cache_unified_iswaC1ERK11llama_model9ggml_typeS6_bbbjjjjE3$_1NS_9allocatorIS7_EEFbiEE7__cloneEv', symObjAddr: 0x1ACC, symBinAddr: 0x46D78, symSize: 0x34 }
  - { offset: 0x21ED71, size: 0x8, addend: 0x0, symName: '__ZNKSt3__110__function6__funcIZN27llama_kv_cache_unified_iswaC1ERK11llama_model9ggml_typeS6_bbbjjjjE3$_1NS_9allocatorIS7_EEFbiEE7__cloneEPNS0_6__baseISA_EE', symObjAddr: 0x1B00, symBinAddr: 0x46DAC, symSize: 0x14 }
  - { offset: 0x21EDE1, size: 0x8, addend: 0x0, symName: '__ZNSt3__110__function6__funcIZN27llama_kv_cache_unified_iswaC1ERK11llama_model9ggml_typeS6_bbbjjjjE3$_1NS_9allocatorIS7_EEFbiEE7destroyEv', symObjAddr: 0x1B14, symBinAddr: 0x46DC0, symSize: 0x4 }
  - { offset: 0x21EE32, size: 0x8, addend: 0x0, symName: '__ZNSt3__110__function6__funcIZN27llama_kv_cache_unified_iswaC1ERK11llama_model9ggml_typeS6_bbbjjjjE3$_1NS_9allocatorIS7_EEFbiEE18destroy_deallocateEv', symObjAddr: 0x1B18, symBinAddr: 0x46DC4, symSize: 0x4 }
  - { offset: 0x21EE67, size: 0x8, addend: 0x0, symName: '__ZNSt3__110__function6__funcIZN27llama_kv_cache_unified_iswaC1ERK11llama_model9ggml_typeS6_bbbjjjjE3$_1NS_9allocatorIS7_EEFbiEE18destroy_deallocateEv', symObjAddr: 0x1B18, symBinAddr: 0x46DC4, symSize: 0x4 }
  - { offset: 0x21EE8A, size: 0x8, addend: 0x0, symName: '__ZNSt3__110__function6__funcIZN27llama_kv_cache_unified_iswaC1ERK11llama_model9ggml_typeS6_bbbjjjjE3$_1NS_9allocatorIS7_EEFbiEE18destroy_deallocateEv', symObjAddr: 0x1B18, symBinAddr: 0x46DC4, symSize: 0x4 }
  - { offset: 0x21EEB6, size: 0x8, addend: 0x0, symName: '__ZNSt3__110__function6__funcIZN27llama_kv_cache_unified_iswaC1ERK11llama_model9ggml_typeS6_bbbjjjjE3$_1NS_9allocatorIS7_EEFbiEE18destroy_deallocateEv', symObjAddr: 0x1B18, symBinAddr: 0x46DC4, symSize: 0x4 }
  - { offset: 0x21EEDC, size: 0x8, addend: 0x0, symName: '__ZNSt3__110__function6__funcIZN27llama_kv_cache_unified_iswaC1ERK11llama_model9ggml_typeS6_bbbjjjjE3$_1NS_9allocatorIS7_EEFbiEE18destroy_deallocateEv', symObjAddr: 0x1B18, symBinAddr: 0x46DC4, symSize: 0x4 }
  - { offset: 0x21EF81, size: 0x8, addend: 0x0, symName: '__ZNSt3__110__function6__funcIZN27llama_kv_cache_unified_iswaC1ERK11llama_model9ggml_typeS6_bbbjjjjE3$_1NS_9allocatorIS7_EEFbiEEclEOi', symObjAddr: 0x1B1C, symBinAddr: 0x46DC8, symSize: 0x10 }
  - { offset: 0x21F019, size: 0x8, addend: 0x0, symName: '__ZNKSt3__110__function6__funcIZN27llama_kv_cache_unified_iswaC1ERK11llama_model9ggml_typeS6_bbbjjjjE3$_1NS_9allocatorIS7_EEFbiEE6targetERKSt9type_info', symObjAddr: 0x1B2C, symBinAddr: 0x46DD8, symSize: 0x6C }
  - { offset: 0x21F0B4, size: 0x8, addend: 0x0, symName: '__ZNKSt3__110__function6__funcIZN27llama_kv_cache_unified_iswaC1ERK11llama_model9ggml_typeS6_bbbjjjjE3$_1NS_9allocatorIS7_EEFbiEE11target_typeEv', symObjAddr: 0x1B98, symBinAddr: 0x46E44, symSize: 0xC }
  - { offset: 0x24E709, size: 0x8, addend: 0x0, symName: __ZN22llama_kv_cache_unified7prepareERKNSt3__16vectorI12llama_ubatchNS0_9allocatorIS2_EEEE, symObjAddr: 0x1FE8, symBinAddr: 0x48D58, symSize: 0xCCC }
  - { offset: 0x250B4F, size: 0x8, addend: 0x0, symName: __ZN22llama_kv_cache_unifiedC2ERK11llama_modelONSt3__18functionIFbiEEE9ggml_typeS8_bbjjjj14llama_swa_type, symObjAddr: 0x0, symBinAddr: 0x46E50, symSize: 0x8A4 }
  - { offset: 0x2532EF, size: 0x8, addend: 0x0, symName: __ZN22llama_kv_cells_unifiedC2Ev, symObjAddr: 0x7A6C, symBinAddr: 0x4E744, symSize: 0x3CC }
  - { offset: 0x2534BA, size: 0x8, addend: 0x0, symName: __ZN22llama_kv_cells_unified6resizeEj, symObjAddr: 0x8A4, symBinAddr: 0x476F4, symSize: 0x138 }
  - { offset: 0x253D97, size: 0x8, addend: 0x0, symName: __ZNSt3__112__hash_tableINS_17__hash_value_typeIiiEENS_22__unordered_map_hasherIiS2_NS_4hashIiEENS_8equal_toIiEELb1EEENS_21__unordered_map_equalIiS2_S7_S5_Lb1EEENS_9allocatorIS2_EEE25__emplace_unique_key_argsIiJRKNS_21piecewise_construct_tENS_5tupleIJOiEEENSI_IJEEEEEENS_4pairINS_15__hash_iteratorIPNS_11__hash_nodeIS2_PvEEEEbEERKT_DpOT0_, symObjAddr: 0x9298, symBinAddr: 0x4F278, symSize: 0x324 }
  - { offset: 0x254A1D, size: 0x8, addend: 0x0, symName: __ZNKSt3__16vectorIN22llama_kv_cache_unified8kv_layerENS_9allocatorIS2_EEE20__throw_length_errorB8ne180100Ev, symObjAddr: 0x9768, symBinAddr: 0x4F748, symSize: 0x14 }
  - { offset: 0x254A6D, size: 0x8, addend: 0x0, symName: __ZNSt3__113unordered_mapIiiNS_4hashIiEENS_8equal_toIiEENS_9allocatorINS_4pairIKiiEEEEED1B8ne180100Ev, symObjAddr: 0xAAC, symBinAddr: 0x478FC, symSize: 0x48 }
  - { offset: 0x254D42, size: 0x8, addend: 0x0, symName: __ZN22llama_kv_cells_unifiedD2Ev, symObjAddr: 0x85DC, symBinAddr: 0x4ECCC, symSize: 0x360 }
  - { offset: 0x255EFE, size: 0x8, addend: 0x0, symName: __ZNSt3__16vectorINS_6bitsetILm64EEENS_9allocatorIS2_EEE8__appendEm, symObjAddr: 0x809C, symBinAddr: 0x4EB10, symSize: 0x1A8 }
  - { offset: 0x2563F1, size: 0x8, addend: 0x0, symName: __ZNKSt3__16vectorINS_6bitsetILm64EEENS_9allocatorIS2_EEE20__throw_length_errorB8ne180100Ev, symObjAddr: 0x8244, symBinAddr: 0x4ECB8, symSize: 0x14 }
  - { offset: 0x2563FC, size: 0x8, addend: 0x0, symName: __ZNSt3__16__treeIjNS_4lessIjEENS_9allocatorIjEEE7destroyEPNS_11__tree_nodeIjPvEE, symObjAddr: 0x897C, symBinAddr: 0x4F02C, symSize: 0x40 }
  - { offset: 0x2565FD, size: 0x8, addend: 0x0, symName: __ZNK22llama_kv_cache_unified12size_k_bytesEv, symObjAddr: 0x9DC, symBinAddr: 0x4782C, symSize: 0x68 }
  - { offset: 0x2566CC, size: 0x8, addend: 0x0, symName: __ZNK22llama_kv_cache_unified12size_v_bytesEv, symObjAddr: 0xA44, symBinAddr: 0x47894, symSize: 0x68 }
  - { offset: 0x256CDE, size: 0x8, addend: 0x0, symName: __ZN22llama_kv_cache_unifiedC1ERK11llama_modelONSt3__18functionIFbiEEE9ggml_typeS8_bbjjjj14llama_swa_type, symObjAddr: 0xBD4, symBinAddr: 0x47944, symSize: 0xC }
  - { offset: 0x256E26, size: 0x8, addend: 0x0, symName: __ZN22llama_kv_cache_unified5clearEb, symObjAddr: 0xBE0, symBinAddr: 0x47950, symSize: 0xDC }
  - { offset: 0x257269, size: 0x8, addend: 0x0, symName: __ZN22llama_kv_cache_unified6seq_rmEiii, symObjAddr: 0xCBC, symBinAddr: 0x47A2C, symSize: 0x1B0 }
  - { offset: 0x25750C, size: 0x8, addend: 0x0, symName: __ZN22llama_kv_cells_unified6seq_rmEji, symObjAddr: 0xE6C, symBinAddr: 0x47BDC, symSize: 0x1D8 }
  - { offset: 0x257517, size: 0x8, addend: 0x0, symName: __ZN22llama_kv_cells_unified2rmEj, symObjAddr: 0x1044, symBinAddr: 0x47DB4, symSize: 0xEC }
  - { offset: 0x2578E4, size: 0x8, addend: 0x0, symName: __ZN22llama_kv_cells_unified6seq_rmEji, symObjAddr: 0xE6C, symBinAddr: 0x47BDC, symSize: 0x1D8 }
  - { offset: 0x257F5C, size: 0x8, addend: 0x0, symName: __ZN22llama_kv_cells_unified2rmEj, symObjAddr: 0x1044, symBinAddr: 0x47DB4, symSize: 0xEC }
  - { offset: 0x258449, size: 0x8, addend: 0x0, symName: __ZN22llama_kv_cells_unified10seq_pos_rmEj, symObjAddr: 0x8DF4, symBinAddr: 0x4F06C, symSize: 0x108 }
  - { offset: 0x25878F, size: 0x8, addend: 0x0, symName: __ZN22llama_kv_cache_unified6seq_cpEiiii, symObjAddr: 0x1130, symBinAddr: 0x47EA0, symSize: 0x110 }
  - { offset: 0x2588F8, size: 0x8, addend: 0x0, symName: __ZN22llama_kv_cells_unified7seq_addEji, symObjAddr: 0x1240, symBinAddr: 0x47FB0, symSize: 0xF0 }
  - { offset: 0x258903, size: 0x8, addend: 0x0, symName: __ZN22llama_kv_cells_unified7seq_addEji, symObjAddr: 0x1240, symBinAddr: 0x47FB0, symSize: 0xF0 }
  - { offset: 0x258C07, size: 0x8, addend: 0x0, symName: __ZN22llama_kv_cache_unified8seq_keepEi, symObjAddr: 0x1330, symBinAddr: 0x480A0, symSize: 0x98 }
  - { offset: 0x258E9E, size: 0x8, addend: 0x0, symName: __ZN22llama_kv_cache_unified8seq_keepEi, symObjAddr: 0x1330, symBinAddr: 0x480A0, symSize: 0x98 }
  - { offset: 0x258FBE, size: 0x8, addend: 0x0, symName: __ZN22llama_kv_cells_unified8seq_keepEji, symObjAddr: 0x13C8, symBinAddr: 0x48138, symSize: 0x224 }
  - { offset: 0x259746, size: 0x8, addend: 0x0, symName: __ZN22llama_kv_cache_unified7seq_addEiiii, symObjAddr: 0x15EC, symBinAddr: 0x4835C, symSize: 0x144 }
  - { offset: 0x259795, size: 0x8, addend: 0x0, symName: __ZN22llama_kv_cache_unified7seq_addEiiii, symObjAddr: 0x15EC, symBinAddr: 0x4835C, symSize: 0x144 }
  - { offset: 0x259936, size: 0x8, addend: 0x0, symName: __ZN22llama_kv_cells_unified7pos_addEji, symObjAddr: 0x1730, symBinAddr: 0x484A0, symSize: 0x210 }
  - { offset: 0x259941, size: 0x8, addend: 0x0, symName: __ZN22llama_kv_cells_unified7pos_addEji, symObjAddr: 0x1730, symBinAddr: 0x484A0, symSize: 0x210 }
  - { offset: 0x25A05B, size: 0x8, addend: 0x0, symName: __ZN22llama_kv_cache_unified7seq_divEiiii, symObjAddr: 0x1940, symBinAddr: 0x486B0, symSize: 0x118 }
  - { offset: 0x25A1CE, size: 0x8, addend: 0x0, symName: __ZN22llama_kv_cells_unified7pos_divEji, symObjAddr: 0x1A58, symBinAddr: 0x487C8, symSize: 0x13C }
  - { offset: 0x25A1D9, size: 0x8, addend: 0x0, symName: __ZN22llama_kv_cells_unified7pos_divEji, symObjAddr: 0x1A58, symBinAddr: 0x487C8, symSize: 0x13C }
  - { offset: 0x25A5A1, size: 0x8, addend: 0x0, symName: __ZNK22llama_kv_cache_unified11seq_pos_minEi, symObjAddr: 0x1B94, symBinAddr: 0x48904, symSize: 0x28 }
  - { offset: 0x25A5DC, size: 0x8, addend: 0x0, symName: __ZNK22llama_kv_cache_unified11seq_pos_minEi, symObjAddr: 0x1B94, symBinAddr: 0x48904, symSize: 0x28 }
  - { offset: 0x25A6B3, size: 0x8, addend: 0x0, symName: __ZNK22llama_kv_cache_unified11seq_pos_maxEi, symObjAddr: 0x1BBC, symBinAddr: 0x4892C, symSize: 0x50 }
  - { offset: 0x25A6EE, size: 0x8, addend: 0x0, symName: __ZNK22llama_kv_cache_unified11seq_pos_maxEi, symObjAddr: 0x1BBC, symBinAddr: 0x4892C, symSize: 0x50 }
  - { offset: 0x25B539, size: 0x8, addend: 0x0, symName: __ZN22llama_kv_cache_unified10init_batchERK11llama_batchjbb, symObjAddr: 0x1C0C, symBinAddr: 0x4897C, symSize: 0x3DC }
  - { offset: 0x25DEE5, size: 0x8, addend: 0x0, symName: __ZNK22llama_kv_cache_unified9find_slotERK12llama_ubatch, symObjAddr: 0x32E4, symBinAddr: 0x49FBC, symSize: 0x2D4 }
  - { offset: 0x25E357, size: 0x8, addend: 0x0, symName: __ZN22llama_kv_cache_unified12apply_ubatchEjRK12llama_ubatch, symObjAddr: 0x35B8, symBinAddr: 0x4A290, symSize: 0x3F4 }
  - { offset: 0x25EBF9, size: 0x8, addend: 0x0, symName: __ZN22llama_kv_cells_unified3setEjRKS_, symObjAddr: 0x39AC, symBinAddr: 0x4A684, symSize: 0x4BC }
  - { offset: 0x25EC04, size: 0x8, addend: 0x0, symName: __ZN22llama_kv_cells_unified3setEjRKS_, symObjAddr: 0x39AC, symBinAddr: 0x4A684, symSize: 0x4BC }
  - { offset: 0x25F7A5, size: 0x8, addend: 0x0, symName: __ZNKSt3__16vectorIZN22llama_kv_cache_unified7prepareERKNS0_I12llama_ubatchNS_9allocatorIS2_EEEEE5stateNS3_IS8_EEE20__throw_length_errorB8ne180100Ev, symObjAddr: 0x9974, symBinAddr: 0x4F75C, symSize: 0x14 }
  - { offset: 0x25F7B0, size: 0x8, addend: 0x0, symName: __ZNKSt3__16vectorIZN22llama_kv_cache_unified7prepareERKNS0_I12llama_ubatchNS_9allocatorIS2_EEEEE5stateNS3_IS8_EEE20__throw_length_errorB8ne180100Ev, symObjAddr: 0x9974, symBinAddr: 0x4F75C, symSize: 0x14 }
  - { offset: 0x25F7E1, size: 0x8, addend: 0x0, symName: __ZNSt3__16vectorIZN22llama_kv_cache_unified7prepareERKNS0_I12llama_ubatchNS_9allocatorIS2_EEEEE5stateNS3_IS8_EEED1B8ne180100Ev, symObjAddr: 0x3E68, symBinAddr: 0x4AB40, symSize: 0x64 }
  - { offset: 0x25FA20, size: 0x8, addend: 0x0, symName: __ZN22llama_kv_cache_unified9init_fullEv, symObjAddr: 0x2D4C, symBinAddr: 0x49A24, symSize: 0x88 }
  - { offset: 0x25FEC3, size: 0x8, addend: 0x0, symName: __ZN22llama_kv_cache_unified11init_updateEP13llama_contextb, symObjAddr: 0x2DD4, symBinAddr: 0x49AAC, symSize: 0x1B8 }
  - { offset: 0x260358, size: 0x8, addend: 0x0, symName: __ZNK22llama_kv_cache_unified14defrag_prepareEi, symObjAddr: 0x2F94, symBinAddr: 0x49C6C, symSize: 0x350 }
  - { offset: 0x260A8D, size: 0x8, addend: 0x0, symName: __ZNK22llama_kv_cache_unified13get_has_shiftEv, symObjAddr: 0x2F8C, symBinAddr: 0x49C64, symSize: 0x8 }
  - { offset: 0x260AB1, size: 0x8, addend: 0x0, symName: __ZNK22llama_kv_cache_unified13get_has_shiftEv, symObjAddr: 0x2F8C, symBinAddr: 0x49C64, symSize: 0x8 }
  - { offset: 0x260B2C, size: 0x8, addend: 0x0, symName: __ZNSt3__16vectorIjNS_9allocatorIjEEE8__appendEmRKj, symObjAddr: 0x9AFC, symBinAddr: 0x4F770, symSize: 0x268 }
  - { offset: 0x2616AC, size: 0x8, addend: 0x0, symName: __ZN22llama_kv_cache_unified6updateEP13llama_contextbRKNS_11defrag_infoE, symObjAddr: 0x3ECC, symBinAddr: 0x4ABA4, symSize: 0x3E4 }
  - { offset: 0x261CE8, size: 0x8, addend: 0x0, symName: __ZNK22llama_kv_cache_unified17build_graph_shiftERK13llama_cparamsP12ggml_contextP11ggml_cgraph, symObjAddr: 0x42B0, symBinAddr: 0x4AF88, symSize: 0x2EC }
  - { offset: 0x262593, size: 0x8, addend: 0x0, symName: __ZN22llama_kv_cells_unified2mvEjj, symObjAddr: 0x459C, symBinAddr: 0x4B274, symSize: 0x1AC }
  - { offset: 0x262C2D, size: 0x8, addend: 0x0, symName: __ZNK22llama_kv_cache_unified18build_graph_defragERK13llama_cparamsP12ggml_contextP11ggml_cgraphRKNS_11defrag_infoE, symObjAddr: 0x4748, symBinAddr: 0x4B420, symSize: 0x3A0 }
  - { offset: 0x2639DC, size: 0x8, addend: 0x0, symName: __ZNK22llama_kv_cache_unified16build_rope_shiftERK13llama_cparamsP12ggml_contextP11ggml_tensorS6_S6_ff, symObjAddr: 0x58B0, symBinAddr: 0x4C588, symSize: 0x158 }
  - { offset: 0x263FC3, size: 0x8, addend: 0x0, symName: __ZNK22llama_kv_cache_unified13is_masked_swaEii, symObjAddr: 0x4AE8, symBinAddr: 0x4B7C0, symSize: 0x50 }
  - { offset: 0x26400B, size: 0x8, addend: 0x0, symName: __ZNK22llama_kv_cache_unified13get_can_shiftEv, symObjAddr: 0x4B38, symBinAddr: 0x4B810, symSize: 0x8 }
  - { offset: 0x264031, size: 0x8, addend: 0x0, symName: __ZNK22llama_kv_cache_unified8get_sizeEv, symObjAddr: 0x4B40, symBinAddr: 0x4B818, symSize: 0x10 }
  - { offset: 0x264055, size: 0x8, addend: 0x0, symName: __ZNK22llama_kv_cache_unified8get_sizeEv, symObjAddr: 0x4B40, symBinAddr: 0x4B818, symSize: 0x10 }
  - { offset: 0x264074, size: 0x8, addend: 0x0, symName: __ZNK22llama_kv_cache_unified8get_sizeEv, symObjAddr: 0x4B40, symBinAddr: 0x4B818, symSize: 0x10 }
  - { offset: 0x2640DA, size: 0x8, addend: 0x0, symName: __ZNK22llama_kv_cache_unified8get_n_kvEv, symObjAddr: 0x4B50, symBinAddr: 0x4B828, symSize: 0x74 }
  - { offset: 0x2643F6, size: 0x8, addend: 0x0, symName: __ZNK22llama_kv_cache_unified5get_kEP12ggml_contextij, symObjAddr: 0x4BC4, symBinAddr: 0x4B89C, symSize: 0x1A4 }
  - { offset: 0x26465A, size: 0x8, addend: 0x0, symName: __ZNK22llama_kv_cache_unified5get_vEP12ggml_contextij, symObjAddr: 0x4D68, symBinAddr: 0x4BA40, symSize: 0x208 }
  - { offset: 0x264665, size: 0x8, addend: 0x0, symName: __ZNK22llama_kv_cache_unified5get_vEP12ggml_contextij, symObjAddr: 0x4D68, symBinAddr: 0x4BA40, symSize: 0x208 }
  - { offset: 0x2648E5, size: 0x8, addend: 0x0, symName: __ZNK22llama_kv_cache_unified5cpy_kEP12ggml_contextP11ggml_tensorij, symObjAddr: 0x4F70, symBinAddr: 0x4BC48, symSize: 0x190 }
  - { offset: 0x2648F0, size: 0x8, addend: 0x0, symName: __ZNK22llama_kv_cache_unified5cpy_kEP12ggml_contextP11ggml_tensorij, symObjAddr: 0x4F70, symBinAddr: 0x4BC48, symSize: 0x190 }
  - { offset: 0x264B93, size: 0x8, addend: 0x0, symName: __ZNK22llama_kv_cache_unified5cpy_vEP12ggml_contextP11ggml_tensorij, symObjAddr: 0x5100, symBinAddr: 0x4BDD8, symSize: 0x218 }
  - { offset: 0x264BC0, size: 0x8, addend: 0x0, symName: __ZNK22llama_kv_cache_unified5cpy_vEP12ggml_contextP11ggml_tensorij, symObjAddr: 0x5100, symBinAddr: 0x4BDD8, symSize: 0x218 }
  - { offset: 0x264EF1, size: 0x8, addend: 0x0, symName: __ZNK22llama_kv_cache_unified17set_input_kq_maskEP11ggml_tensorPK12llama_ubatchb, symObjAddr: 0x5318, symBinAddr: 0x4BFF0, symSize: 0x37C }
  - { offset: 0x264F49, size: 0x8, addend: 0x0, symName: __ZNK22llama_kv_cache_unified17set_input_kq_maskEP11ggml_tensorPK12llama_ubatchb, symObjAddr: 0x5318, symBinAddr: 0x4BFF0, symSize: 0x37C }
  - { offset: 0x2651DF, size: 0x8, addend: 0x0, symName: __ZNK22llama_kv_cache_unified17set_input_k_shiftEP11ggml_tensor, symObjAddr: 0x5694, symBinAddr: 0x4C36C, symSize: 0xB0 }
  - { offset: 0x265226, size: 0x8, addend: 0x0, symName: __ZNK22llama_kv_cache_unified17set_input_k_shiftEP11ggml_tensor, symObjAddr: 0x5694, symBinAddr: 0x4C36C, symSize: 0xB0 }
  - { offset: 0x2652F7, size: 0x8, addend: 0x0, symName: __ZNK22llama_kv_cache_unified20set_input_pos_bucketEP11ggml_tensorPK12llama_ubatch, symObjAddr: 0x5744, symBinAddr: 0x4C41C, symSize: 0x10C }
  - { offset: 0x26530A, size: 0x8, addend: 0x0, symName: __ZNK22llama_kv_cache_unified20set_input_pos_bucketEP11ggml_tensorPK12llama_ubatch, symObjAddr: 0x5744, symBinAddr: 0x4C41C, symSize: 0x10C }
  - { offset: 0x265473, size: 0x8, addend: 0x0, symName: __ZNK22llama_kv_cache_unified10total_sizeEv, symObjAddr: 0x5850, symBinAddr: 0x4C528, symSize: 0x60 }
  - { offset: 0x2654C8, size: 0x8, addend: 0x0, symName: __ZNK22llama_kv_cache_unified10total_sizeEv, symObjAddr: 0x5850, symBinAddr: 0x4C528, symSize: 0x60 }
  - { offset: 0x2656B4, size: 0x8, addend: 0x0, symName: __ZN23llm_graph_input_k_shift9set_inputEPK12llama_ubatch, symObjAddr: 0x5A08, symBinAddr: 0x4C6E0, symSize: 0xB4 }
  - { offset: 0x2657AF, size: 0x8, addend: 0x0, symName: __ZNK22llama_kv_cache_unified11state_writeER16llama_io_write_ii, symObjAddr: 0x5ABC, symBinAddr: 0x4C794, symSize: 0x568 }
  - { offset: 0x265F59, size: 0x8, addend: 0x0, symName: __ZNK22llama_kv_cache_unified11state_writeER16llama_io_write_ii, symObjAddr: 0x5ABC, symBinAddr: 0x4C794, symSize: 0x568 }
  - { offset: 0x266DE2, size: 0x8, addend: 0x0, symName: __ZNK22llama_kv_cache_unified16state_write_metaER16llama_io_write_iRKNSt3__16vectorINS2_4pairIjjEENS2_9allocatorIS5_EEEEi, symObjAddr: 0x6024, symBinAddr: 0x4CCFC, symSize: 0x37C }
  - { offset: 0x267712, size: 0x8, addend: 0x0, symName: __ZNK22llama_kv_cache_unified16state_write_dataER16llama_io_write_iRKNSt3__16vectorINS2_4pairIjjEENS2_9allocatorIS5_EEEE, symObjAddr: 0x63A0, symBinAddr: 0x4D078, symSize: 0x388 }
  - { offset: 0x2682F2, size: 0x8, addend: 0x0, symName: __ZN22llama_kv_cache_unified10state_readER15llama_io_read_ii, symObjAddr: 0x6728, symBinAddr: 0x4D400, symSize: 0xF4 }
  - { offset: 0x2683E9, size: 0x8, addend: 0x0, symName: __ZN22llama_kv_cache_unified15state_read_metaER15llama_io_read_iji, symObjAddr: 0x681C, symBinAddr: 0x4D4F4, symSize: 0x538 }
  - { offset: 0x269095, size: 0x8, addend: 0x0, symName: __ZN22llama_kv_cache_unified15state_read_dataER15llama_io_read_ij, symObjAddr: 0x6D54, symBinAddr: 0x4DA2C, symSize: 0x578 }
  - { offset: 0x269714, size: 0x8, addend: 0x0, symName: __ZN28llama_kv_cache_unified_stateC2E19llama_memory_status, symObjAddr: 0x72CC, symBinAddr: 0x4DFA4, symSize: 0x4C }
  - { offset: 0x269837, size: 0x8, addend: 0x0, symName: __ZN28llama_kv_cache_unified_stateC1E19llama_memory_status, symObjAddr: 0x7318, symBinAddr: 0x4DFF0, symSize: 0x4C }
  - { offset: 0x269860, size: 0x8, addend: 0x0, symName: __ZN28llama_kv_cache_unified_stateC1E19llama_memory_status, symObjAddr: 0x7318, symBinAddr: 0x4DFF0, symSize: 0x4C }
  - { offset: 0x26997E, size: 0x8, addend: 0x0, symName: __ZN28llama_kv_cache_unified_stateC2EP22llama_kv_cache_unified, symObjAddr: 0x7364, symBinAddr: 0x4E03C, symSize: 0x60 }
  - { offset: 0x269AFD, size: 0x8, addend: 0x0, symName: __ZN28llama_kv_cache_unified_stateC1EP22llama_kv_cache_unified, symObjAddr: 0x73C4, symBinAddr: 0x4E09C, symSize: 0x60 }
  - { offset: 0x269B26, size: 0x8, addend: 0x0, symName: __ZN28llama_kv_cache_unified_stateC1EP22llama_kv_cache_unified, symObjAddr: 0x73C4, symBinAddr: 0x4E09C, symSize: 0x60 }
  - { offset: 0x269CA0, size: 0x8, addend: 0x0, symName: __ZN28llama_kv_cache_unified_stateC2EP22llama_kv_cache_unifiedP13llama_contextbNS0_11defrag_infoE, symObjAddr: 0x7424, symBinAddr: 0x4E0FC, symSize: 0x84 }
  - { offset: 0x269DAB, size: 0x8, addend: 0x0, symName: __ZN28llama_kv_cache_unified_stateC1EP22llama_kv_cache_unifiedP13llama_contextbNS0_11defrag_infoE, symObjAddr: 0x74A8, symBinAddr: 0x4E180, symSize: 0x84 }
  - { offset: 0x269EEE, size: 0x8, addend: 0x0, symName: __ZN28llama_kv_cache_unified_stateC2EP22llama_kv_cache_unified12llama_sbatchNSt3__16vectorIjNS3_9allocatorIjEEEENS4_I12llama_ubatchNS5_IS8_EEEE, symObjAddr: 0x752C, symBinAddr: 0x4E204, symSize: 0xF8 }
  - { offset: 0x26A1C5, size: 0x8, addend: 0x0, symName: __ZN28llama_kv_cache_unified_stateC1EP22llama_kv_cache_unified12llama_sbatchNSt3__16vectorIjNS3_9allocatorIjEEEENS4_I12llama_ubatchNS5_IS8_EEEE, symObjAddr: 0x7624, symBinAddr: 0x4E2FC, symSize: 0xF8 }
  - { offset: 0x26A206, size: 0x8, addend: 0x0, symName: __ZN28llama_kv_cache_unified_stateC1EP22llama_kv_cache_unified12llama_sbatchNSt3__16vectorIjNS3_9allocatorIjEEEENS4_I12llama_ubatchNS5_IS8_EEEE, symObjAddr: 0x7624, symBinAddr: 0x4E2FC, symSize: 0xF8 }
  - { offset: 0x26A4D8, size: 0x8, addend: 0x0, symName: __ZN28llama_kv_cache_unified_stateD2Ev, symObjAddr: 0x771C, symBinAddr: 0x4E3F4, symSize: 0xD4 }
  - { offset: 0x26ADEE, size: 0x8, addend: 0x0, symName: __ZN28llama_kv_cache_unified_stateD1Ev, symObjAddr: 0x77F0, symBinAddr: 0x4E4C8, symSize: 0x4 }
  - { offset: 0x26AE11, size: 0x8, addend: 0x0, symName: __ZN28llama_kv_cache_unified_stateD1Ev, symObjAddr: 0x77F0, symBinAddr: 0x4E4C8, symSize: 0x4 }
  - { offset: 0x26AE41, size: 0x8, addend: 0x0, symName: __ZN28llama_kv_cache_unified_stateD0Ev, symObjAddr: 0x77F4, symBinAddr: 0x4E4CC, symSize: 0x14 }
  - { offset: 0x26AE9F, size: 0x8, addend: 0x0, symName: __ZN28llama_kv_cache_unified_state4nextEv, symObjAddr: 0x7808, symBinAddr: 0x4E4E0, symSize: 0x20 }
  - { offset: 0x26AF3C, size: 0x8, addend: 0x0, symName: __ZN28llama_kv_cache_unified_state5applyEv, symObjAddr: 0x7828, symBinAddr: 0x4E500, symSize: 0xE4 }
  - { offset: 0x26B11E, size: 0x8, addend: 0x0, symName: __ZN28llama_kv_cache_unified_state7out_idsEv, symObjAddr: 0x790C, symBinAddr: 0x4E5E4, symSize: 0x8 }
  - { offset: 0x26B148, size: 0x8, addend: 0x0, symName: __ZNK28llama_kv_cache_unified_state10get_statusEv, symObjAddr: 0x7914, symBinAddr: 0x4E5EC, symSize: 0x8 }
  - { offset: 0x26B196, size: 0x8, addend: 0x0, symName: __ZNK28llama_kv_cache_unified_state10get_ubatchEv, symObjAddr: 0x791C, symBinAddr: 0x4E5F4, symSize: 0x10 }
  - { offset: 0x26B1E7, size: 0x8, addend: 0x0, symName: __ZNK28llama_kv_cache_unified_state8get_n_kvEv, symObjAddr: 0x792C, symBinAddr: 0x4E604, symSize: 0x8 }
  - { offset: 0x26B211, size: 0x8, addend: 0x0, symName: __ZNK28llama_kv_cache_unified_state5get_kEP12ggml_contexti, symObjAddr: 0x7934, symBinAddr: 0x4E60C, symSize: 0x10 }
  - { offset: 0x26B276, size: 0x8, addend: 0x0, symName: __ZNK28llama_kv_cache_unified_state5get_vEP12ggml_contexti, symObjAddr: 0x7944, symBinAddr: 0x4E61C, symSize: 0x10 }
  - { offset: 0x26B2DB, size: 0x8, addend: 0x0, symName: __ZNK28llama_kv_cache_unified_state5cpy_kEP12ggml_contextP11ggml_tensori, symObjAddr: 0x7954, symBinAddr: 0x4E62C, symSize: 0x10 }
  - { offset: 0x26B356, size: 0x8, addend: 0x0, symName: __ZNK28llama_kv_cache_unified_state5cpy_vEP12ggml_contextP11ggml_tensori, symObjAddr: 0x7964, symBinAddr: 0x4E63C, symSize: 0x10 }
  - { offset: 0x26B3D1, size: 0x8, addend: 0x0, symName: __ZNK28llama_kv_cache_unified_state17set_input_k_shiftEP11ggml_tensor, symObjAddr: 0x7974, symBinAddr: 0x4E64C, symSize: 0xB0 }
  - { offset: 0x26B4D2, size: 0x8, addend: 0x0, symName: __ZNK28llama_kv_cache_unified_state17set_input_kq_maskEP11ggml_tensorPK12llama_ubatchb, symObjAddr: 0x7A24, symBinAddr: 0x4E6FC, symSize: 0x8 }
  - { offset: 0x26B4E5, size: 0x8, addend: 0x0, symName: __ZNK28llama_kv_cache_unified_state17set_input_kq_maskEP11ggml_tensorPK12llama_ubatchb, symObjAddr: 0x7A24, symBinAddr: 0x4E6FC, symSize: 0x8 }
  - { offset: 0x26B565, size: 0x8, addend: 0x0, symName: __ZNK28llama_kv_cache_unified_state20set_input_pos_bucketEP11ggml_tensorPK12llama_ubatch, symObjAddr: 0x7A2C, symBinAddr: 0x4E704, symSize: 0x8 }
  - { offset: 0x26B5CA, size: 0x8, addend: 0x0, symName: __ZN22llama_kv_cache_unified11get_paddingERK13llama_cparams, symObjAddr: 0x7A34, symBinAddr: 0x4E70C, symSize: 0x18 }
  - { offset: 0x26B5F3, size: 0x8, addend: 0x0, symName: __ZN22llama_kv_cache_unifiedD1Ev, symObjAddr: 0x7A4C, symBinAddr: 0x4E724, symSize: 0x4 }
  - { offset: 0x26B616, size: 0x8, addend: 0x0, symName: __ZN22llama_kv_cache_unifiedD1Ev, symObjAddr: 0x7A4C, symBinAddr: 0x4E724, symSize: 0x4 }
  - { offset: 0x26B629, size: 0x8, addend: 0x0, symName: __ZN22llama_kv_cache_unifiedD2Ev, symObjAddr: 0x9154, symBinAddr: 0x4F174, symSize: 0x104 }
  - { offset: 0x26BE7F, size: 0x8, addend: 0x0, symName: __ZN22llama_kv_cache_unifiedD0Ev, symObjAddr: 0x7A50, symBinAddr: 0x4E728, symSize: 0x14 }
  - { offset: 0x26BED9, size: 0x8, addend: 0x0, symName: __ZN23llm_graph_input_k_shiftD1Ev, symObjAddr: 0x7A64, symBinAddr: 0x4E73C, symSize: 0x4 }
  - { offset: 0x26BF02, size: 0x8, addend: 0x0, symName: __ZN23llm_graph_input_k_shiftD0Ev, symObjAddr: 0x7A68, symBinAddr: 0x4E740, symSize: 0x4 }
  - { offset: 0x26C447, size: 0x8, addend: 0x0, symName: __ZNKSt3__16vectorINS_6bitsetILm64EEENS_9allocatorIS2_EEE20__throw_length_errorB8ne180100Ev, symObjAddr: 0x8244, symBinAddr: 0x4ECB8, symSize: 0x14 }
  - { offset: 0x26C81C, size: 0x8, addend: 0x0, symName: __ZN22llama_kv_cells_unifiedD2Ev, symObjAddr: 0x85DC, symBinAddr: 0x4ECCC, symSize: 0x360 }
  - { offset: 0x26CF9F, size: 0x8, addend: 0x0, symName: __ZN22llama_kv_cache_unifiedD2Ev, symObjAddr: 0x9154, symBinAddr: 0x4F174, symSize: 0x104 }
  - { offset: 0x26D492, size: 0x8, addend: 0x0, symName: __ZNSt3__112__hash_tableINS_17__hash_value_typeIiiEENS_22__unordered_map_hasherIiS2_NS_4hashIiEENS_8equal_toIiEELb1EEENS_21__unordered_map_equalIiS2_S7_S5_Lb1EEENS_9allocatorIS2_EEE11__do_rehashILb1EEEvm, symObjAddr: 0x95BC, symBinAddr: 0x4F59C, symSize: 0x1AC }
  - { offset: 0x26D8F0, size: 0x8, addend: 0x0, symName: __ZNKSt3__16vectorIN22llama_kv_cache_unified8kv_layerENS_9allocatorIS2_EEE20__throw_length_errorB8ne180100Ev, symObjAddr: 0x9768, symBinAddr: 0x4F748, symSize: 0x14 }
  - { offset: 0x26FDCC, size: 0x8, addend: 0x0, symName: __Z27llama_memory_status_combine19llama_memory_statusS_, symObjAddr: 0x0, symBinAddr: 0x4F9D8, symSize: 0x38 }
  - { offset: 0x26FDE1, size: 0x8, addend: 0x0, symName: __Z27llama_memory_status_combine19llama_memory_statusS_, symObjAddr: 0x0, symBinAddr: 0x4F9D8, symSize: 0x38 }
  - { offset: 0x2728DB, size: 0x8, addend: 0x0, symName: __ZN10llama_mmap9SUPPORTEDE, symObjAddr: 0x14FC, symBinAddr: 0x1EEE72, symSize: 0x0 }
  - { offset: 0x27888A, size: 0x8, addend: 0x0, symName: __ZN11llama_mlock9SUPPORTEDE, symObjAddr: 0x14FD, symBinAddr: 0x1EEE73, symSize: 0x0 }
  - { offset: 0x278CA5, size: 0x8, addend: 0x0, symName: __ZN10llama_fileC2EPKcS1_, symObjAddr: 0x0, symBinAddr: 0x4FA10, symSize: 0x60 }
  - { offset: 0x278DC7, size: 0x8, addend: 0x0, symName: __ZN10llama_file4implC2EPKcS2_, symObjAddr: 0xF70, symBinAddr: 0x508D4, symSize: 0x108 }
  - { offset: 0x279002, size: 0x8, addend: 0x0, symName: __ZN10llama_fileC1EPKcS1_, symObjAddr: 0x60, symBinAddr: 0x4FA70, symSize: 0x60 }
  - { offset: 0x279220, size: 0x8, addend: 0x0, symName: __ZN10llama_fileD2Ev, symObjAddr: 0xC0, symBinAddr: 0x4FAD0, symSize: 0x40 }
  - { offset: 0x27933E, size: 0x8, addend: 0x0, symName: __ZN10llama_fileD1Ev, symObjAddr: 0x100, symBinAddr: 0x4FB10, symSize: 0x40 }
  - { offset: 0x279470, size: 0x8, addend: 0x0, symName: __ZNK10llama_file4tellEv, symObjAddr: 0x140, symBinAddr: 0x4FB50, symSize: 0x8 }
  - { offset: 0x27949B, size: 0x8, addend: 0x0, symName: __ZNK10llama_file4tellEv, symObjAddr: 0x140, symBinAddr: 0x4FB50, symSize: 0x8 }
  - { offset: 0x2794C3, size: 0x8, addend: 0x0, symName: __ZNK10llama_file4impl4tellEv, symObjAddr: 0x148, symBinAddr: 0x4FB58, symSize: 0xCC }
  - { offset: 0x279777, size: 0x8, addend: 0x0, symName: __ZNK10llama_file4sizeEv, symObjAddr: 0x214, symBinAddr: 0x4FC24, symSize: 0xC }
  - { offset: 0x27979B, size: 0x8, addend: 0x0, symName: __ZNK10llama_file4sizeEv, symObjAddr: 0x214, symBinAddr: 0x4FC24, symSize: 0xC }
  - { offset: 0x2797B5, size: 0x8, addend: 0x0, symName: __ZNK10llama_file7file_idEv, symObjAddr: 0x220, symBinAddr: 0x4FC30, symSize: 0xC }
  - { offset: 0x2797D9, size: 0x8, addend: 0x0, symName: __ZNK10llama_file7file_idEv, symObjAddr: 0x220, symBinAddr: 0x4FC30, symSize: 0xC }
  - { offset: 0x279815, size: 0x8, addend: 0x0, symName: __ZNK10llama_file4seekEmi, symObjAddr: 0x22C, symBinAddr: 0x4FC3C, symSize: 0x8 }
  - { offset: 0x27985F, size: 0x8, addend: 0x0, symName: __ZNK10llama_file4seekEmi, symObjAddr: 0x22C, symBinAddr: 0x4FC3C, symSize: 0x8 }
  - { offset: 0x279897, size: 0x8, addend: 0x0, symName: __ZNK10llama_file4impl4seekEmi, symObjAddr: 0x234, symBinAddr: 0x4FC44, symSize: 0xC8 }
  - { offset: 0x279A78, size: 0x8, addend: 0x0, symName: __ZNK10llama_file8read_rawEPvm, symObjAddr: 0x2FC, symBinAddr: 0x4FD0C, symSize: 0x8 }
  - { offset: 0x279AC2, size: 0x8, addend: 0x0, symName: __ZNK10llama_file8read_rawEPvm, symObjAddr: 0x2FC, symBinAddr: 0x4FD0C, symSize: 0x8 }
  - { offset: 0x279AFA, size: 0x8, addend: 0x0, symName: __ZNK10llama_file4impl8read_rawEPvm, symObjAddr: 0x304, symBinAddr: 0x4FD14, symSize: 0x148 }
  - { offset: 0x279D37, size: 0x8, addend: 0x0, symName: __ZNK10llama_file8read_u32Ev, symObjAddr: 0x44C, symBinAddr: 0x4FE5C, symSize: 0x2C }
  - { offset: 0x279DBF, size: 0x8, addend: 0x0, symName: __ZNK10llama_file9write_rawEPKvm, symObjAddr: 0x478, symBinAddr: 0x4FE88, symSize: 0x8 }
  - { offset: 0x279E09, size: 0x8, addend: 0x0, symName: __ZNK10llama_file9write_rawEPKvm, symObjAddr: 0x478, symBinAddr: 0x4FE88, symSize: 0x8 }
  - { offset: 0x279E41, size: 0x8, addend: 0x0, symName: __ZNK10llama_file4impl9write_rawEPKvm, symObjAddr: 0x480, symBinAddr: 0x4FE90, symSize: 0xF0 }
  - { offset: 0x27A05C, size: 0x8, addend: 0x0, symName: __ZNK10llama_file9write_u32Ej, symObjAddr: 0x570, symBinAddr: 0x4FF80, symSize: 0x2C }
  - { offset: 0x27A259, size: 0x8, addend: 0x0, symName: __ZN10llama_mmapC2EP10llama_filemb, symObjAddr: 0x59C, symBinAddr: 0x4FFAC, symSize: 0x70 }
  - { offset: 0x27A38A, size: 0x8, addend: 0x0, symName: __ZN10llama_mmap4implC2EP10llama_filemb, symObjAddr: 0x1078, symBinAddr: 0x509DC, symSize: 0x2A4 }
  - { offset: 0x27ADB5, size: 0x8, addend: 0x0, symName: __ZN10llama_mmapC1EP10llama_filemb, symObjAddr: 0x60C, symBinAddr: 0x5001C, symSize: 0x70 }
  - { offset: 0x27AFDE, size: 0x8, addend: 0x0, symName: __ZN10llama_mmapD2Ev, symObjAddr: 0x67C, symBinAddr: 0x5008C, symSize: 0x34 }
  - { offset: 0x27B0B3, size: 0x8, addend: 0x0, symName: __ZN10llama_mmap4implD2Ev, symObjAddr: 0x131C, symBinAddr: 0x50C80, symSize: 0xA4 }
  - { offset: 0x27B30B, size: 0x8, addend: 0x0, symName: __ZN10llama_mmapD1Ev, symObjAddr: 0x6B0, symBinAddr: 0x500C0, symSize: 0x34 }
  - { offset: 0x27B424, size: 0x8, addend: 0x0, symName: __ZNK10llama_mmap4sizeEv, symObjAddr: 0x6E4, symBinAddr: 0x500F4, symSize: 0xC }
  - { offset: 0x27B450, size: 0x8, addend: 0x0, symName: __ZNK10llama_mmap4sizeEv, symObjAddr: 0x6E4, symBinAddr: 0x500F4, symSize: 0xC }
  - { offset: 0x27B46B, size: 0x8, addend: 0x0, symName: __ZNK10llama_mmap4addrEv, symObjAddr: 0x6F0, symBinAddr: 0x50100, symSize: 0xC }
  - { offset: 0x27B497, size: 0x8, addend: 0x0, symName: __ZNK10llama_mmap4addrEv, symObjAddr: 0x6F0, symBinAddr: 0x50100, symSize: 0xC }
  - { offset: 0x27B4B2, size: 0x8, addend: 0x0, symName: __ZN10llama_mmap14unmap_fragmentEmm, symObjAddr: 0x6FC, symBinAddr: 0x5010C, symSize: 0x8 }
  - { offset: 0x27B4FC, size: 0x8, addend: 0x0, symName: __ZN10llama_mmap14unmap_fragmentEmm, symObjAddr: 0x6FC, symBinAddr: 0x5010C, symSize: 0x8 }
  - { offset: 0x27B534, size: 0x8, addend: 0x0, symName: __ZN10llama_mmap4impl14unmap_fragmentEmm, symObjAddr: 0x704, symBinAddr: 0x50114, symSize: 0x578 }
  - { offset: 0x27D86B, size: 0x8, addend: 0x0, symName: __ZNKSt3__16vectorINS_4pairImmEENS_9allocatorIS2_EEE20__throw_length_errorB8ne180100Ev, symObjAddr: 0xEC0, symBinAddr: 0x508C0, symSize: 0x14 }
  - { offset: 0x27DA07, size: 0x8, addend: 0x0, symName: __ZN11llama_mlockC2Ev, symObjAddr: 0xC7C, symBinAddr: 0x5068C, symSize: 0x34 }
  - { offset: 0x27DB36, size: 0x8, addend: 0x0, symName: __ZN11llama_mlockC1Ev, symObjAddr: 0xCB0, symBinAddr: 0x506C0, symSize: 0x34 }
  - { offset: 0x27DCF4, size: 0x8, addend: 0x0, symName: __ZN11llama_mlockD2Ev, symObjAddr: 0xCE4, symBinAddr: 0x506F4, symSize: 0x30 }
  - { offset: 0x27DDBC, size: 0x8, addend: 0x0, symName: __ZN11llama_mlockD1Ev, symObjAddr: 0xD14, symBinAddr: 0x50724, symSize: 0x30 }
  - { offset: 0x27DECD, size: 0x8, addend: 0x0, symName: __ZN11llama_mlock4initEPv, symObjAddr: 0xD44, symBinAddr: 0x50754, symSize: 0x54 }
  - { offset: 0x27DF3E, size: 0x8, addend: 0x0, symName: __ZN11llama_mlock7grow_toEm, symObjAddr: 0xD98, symBinAddr: 0x507A8, symSize: 0x8 }
  - { offset: 0x27DF51, size: 0x8, addend: 0x0, symName: __ZN11llama_mlock7grow_toEm, symObjAddr: 0xD98, symBinAddr: 0x507A8, symSize: 0x8 }
  - { offset: 0x27DF8C, size: 0x8, addend: 0x0, symName: __ZN11llama_mlock7grow_toEm, symObjAddr: 0xD98, symBinAddr: 0x507A8, symSize: 0x8 }
  - { offset: 0x27DFBD, size: 0x8, addend: 0x0, symName: __ZN11llama_mlock4impl7grow_toEm, symObjAddr: 0xDA0, symBinAddr: 0x507B0, symSize: 0x108 }
  - { offset: 0x27E0C0, size: 0x8, addend: 0x0, symName: __Z14llama_path_maxv, symObjAddr: 0xEA8, symBinAddr: 0x508B8, symSize: 0x8 }
  - { offset: 0x27E13C, size: 0x8, addend: 0x0, symName: __Z14llama_path_maxv, symObjAddr: 0xEA8, symBinAddr: 0x508B8, symSize: 0x8 }
  - { offset: 0x2A4A9F, size: 0x8, addend: 0x0, symName: __ZNSt3__120__throw_future_errorB8ne180100ENS_11future_errcE, symObjAddr: 0xAEA4, symBinAddr: 0x5AFC0, symSize: 0x5C }
  - { offset: 0x2A5A9B, size: 0x8, addend: 0x0, symName: '__ZNSt3__114__thread_proxyB8ne180100INS_5tupleIJNS_10unique_ptrINS_15__thread_structENS_14default_deleteIS3_EEEEMNS_19__async_assoc_stateINS_4pairIP11ggml_tensorbEENS_12__async_funcIZN18llama_model_loader13load_all_dataEP12ggml_contextRNS_13unordered_mapIjP19ggml_backend_bufferNS_4hashIjEENS_8equal_toIjEENS_9allocatorINS8_IKjSI_EEEEEEPNS_6vectorINS2_I11llama_mlockNS4_ISU_EEEENSN_ISW_EEEEPFbfPvES10_E3$_1JEEEEEFvvEPS15_EEEEES10_S10_', symObjAddr: 0xAF00, symBinAddr: 0x5B01C, symSize: 0x8C }
  - { offset: 0x2A5FE3, size: 0x8, addend: 0x0, symName: '__ZNSt3__114__thread_proxyB8ne180100INS_5tupleIJNS_10unique_ptrINS_15__thread_structENS_14default_deleteIS3_EEEEMNS_19__async_assoc_stateINS_4pairIP11ggml_tensorbEENS_12__async_funcIZN18llama_model_loader13load_all_dataEP12ggml_contextRNS_13unordered_mapIjP19ggml_backend_bufferNS_4hashIjEENS_8equal_toIjEENS_9allocatorINS8_IKjSI_EEEEEEPNS_6vectorINS2_I11llama_mlockNS4_ISU_EEEENSN_ISW_EEEEPFbfPvES10_E3$_2JEEEEEFvvEPS15_EEEEES10_S10_', symObjAddr: 0xB398, symBinAddr: 0x5B4B4, symSize: 0x8C }
  - { offset: 0x2AB237, size: 0x8, addend: 0x0, symName: __ZN18llama_model_loader13load_all_dataEP12ggml_contextRNSt3__113unordered_mapIjP19ggml_backend_bufferNS2_4hashIjEENS2_8equal_toIjEENS2_9allocatorINS2_4pairIKjS5_EEEEEEPNS2_6vectorINS2_10unique_ptrI11llama_mlockNS2_14default_deleteISJ_EEEENSA_ISM_EEEEPFbfPvESQ_, symObjAddr: 0x5410, symBinAddr: 0x55F70, symSize: 0x171C }
  - { offset: 0x2AFCAF, size: 0x8, addend: 0x0, symName: __Z23llama_file_version_name10llama_fver, symObjAddr: 0x0, symBinAddr: 0x50D24, symSize: 0x28 }
  - { offset: 0x2AFD94, size: 0x8, addend: 0x0, symName: __ZN18llama_model_loader9get_arr_nIjEENSt3__19enable_ifIXsr3std11is_integralIT_EE5valueEbE4typeE6llm_kvRS3_b, symObjAddr: 0x28, symBinAddr: 0x50D4C, symSize: 0xA0 }
  - { offset: 0x2B0057, size: 0x8, addend: 0x0, symName: __ZN18llama_model_loader9get_arr_nIjEENSt3__19enable_ifIXsr3std11is_integralIT_EE5valueEbE4typeERKNS1_12basic_stringIcNS1_11char_traitsIcEENS1_9allocatorIcEEEERS3_b, symObjAddr: 0xC8, symBinAddr: 0x50DEC, symSize: 0x120 }
  - { offset: 0x2B03DC, size: 0x8, addend: 0x0, symName: __ZN8GGUFMeta3GKVINS_9ArrayInfoEE6get_kvEPK12gguf_contexti, symObjAddr: 0x7608, symBinAddr: 0x5801C, symSize: 0x150 }
  - { offset: 0x2B0638, size: 0x8, addend: 0x0, symName: __ZN18llama_model_loader7get_arrINSt3__16vectorINS1_12basic_stringIcNS1_11char_traitsIcEENS1_9allocatorIcEEEENS6_IS8_EEEEEEb6llm_kvRT_b, symObjAddr: 0x1E8, symBinAddr: 0x50F0C, symSize: 0xA0 }
  - { offset: 0x2B08FB, size: 0x8, addend: 0x0, symName: __ZN18llama_model_loader7get_arrINSt3__112basic_stringIcNS1_11char_traitsIcEENS1_9allocatorIcEEEEEEbRKS7_RNS1_6vectorIT_NS5_ISB_EEEEb, symObjAddr: 0x288, symBinAddr: 0x50FAC, symSize: 0x3B4 }
  - { offset: 0x2B1C1A, size: 0x8, addend: 0x0, symName: __ZNSt3__16vectorINS_12basic_stringIcNS_11char_traitsIcEENS_9allocatorIcEEEENS4_IS6_EEE24__emplace_back_slow_pathIJRKS6_EEEPS6_DpOT_, symObjAddr: 0x7758, symBinAddr: 0x5816C, symSize: 0x1D4 }
  - { offset: 0x2B251A, size: 0x8, addend: 0x0, symName: __ZNSt3__112__hash_tableINS_17__hash_value_typeINS_12basic_stringIcNS_11char_traitsIcEENS_9allocatorIcEEEE23llama_model_kv_overrideEENS_22__unordered_map_hasherIS7_S9_NS_4hashIS7_EENS_8equal_toIS7_EELb1EEENS_21__unordered_map_equalIS7_S9_SE_SC_Lb1EEENS5_IS9_EEE4findIS7_EENS_15__hash_iteratorIPNS_11__hash_nodeIS9_PvEEEERKT_, symObjAddr: 0x79B8, symBinAddr: 0x58340, symSize: 0x22C }
  - { offset: 0x2B2543, size: 0x8, addend: 0x0, symName: __ZNSt3__16vectorINS_12basic_stringIcNS_11char_traitsIcEENS_9allocatorIcEEEENS4_IS6_EEE21__push_back_slow_pathIS6_EEPS6_OT_, symObjAddr: 0x73EC, symBinAddr: 0x57E78, symSize: 0x168 }
  - { offset: 0x2B256E, size: 0x8, addend: 0x0, symName: __ZN18llama_model_loader7get_keyIbEEb6llm_kvRT_b, symObjAddr: 0x63C, symBinAddr: 0x51360, symSize: 0xA0 }
  - { offset: 0x2B2831, size: 0x8, addend: 0x0, symName: __ZN18llama_model_loader7get_keyIbEEbRKNSt3__112basic_stringIcNS1_11char_traitsIcEENS1_9allocatorIcEEEERT_b, symObjAddr: 0x6DC, symBinAddr: 0x51400, symSize: 0x15C }
  - { offset: 0x2B2D17, size: 0x8, addend: 0x0, symName: __ZNSt3__112__hash_tableINS_17__hash_value_typeINS_12basic_stringIcNS_11char_traitsIcEENS_9allocatorIcEEEE23llama_model_kv_overrideEENS_22__unordered_map_hasherIS7_S9_NS_4hashIS7_EENS_8equal_toIS7_EELb1EEENS_21__unordered_map_equalIS7_S9_SE_SC_Lb1EEENS5_IS9_EEE4findIS7_EENS_15__hash_iteratorIPNS_11__hash_nodeIS9_PvEEEERKT_, symObjAddr: 0x79B8, symBinAddr: 0x58340, symSize: 0x22C }
  - { offset: 0x2B2FE3, size: 0x8, addend: 0x0, symName: __ZN8GGUFMeta3GKVIbE17validate_overrideE28llama_model_kv_override_typePK23llama_model_kv_override, symObjAddr: 0x8130, symBinAddr: 0x5866C, symSize: 0x23C }
  - { offset: 0x2B31E3, size: 0x8, addend: 0x0, symName: __ZN8GGUFMeta3GKVIbE6get_kvEPK12gguf_contexti, symObjAddr: 0x8030, symBinAddr: 0x5856C, symSize: 0x100 }
  - { offset: 0x2B33D2, size: 0x8, addend: 0x0, symName: __ZN18llama_model_loader7get_keyIfEEb6llm_kvRT_b, symObjAddr: 0x838, symBinAddr: 0x5155C, symSize: 0xA0 }
  - { offset: 0x2B3695, size: 0x8, addend: 0x0, symName: __ZN18llama_model_loader7get_keyIfEEbRKNSt3__112basic_stringIcNS1_11char_traitsIcEENS1_9allocatorIcEEEERT_b, symObjAddr: 0x8D8, symBinAddr: 0x515FC, symSize: 0x160 }
  - { offset: 0x2B3B54, size: 0x8, addend: 0x0, symName: __ZN8GGUFMeta3GKVIfE17validate_overrideE28llama_model_kv_override_typePK23llama_model_kv_override, symObjAddr: 0x846C, symBinAddr: 0x589A8, symSize: 0x23C }
  - { offset: 0x2B3D54, size: 0x8, addend: 0x0, symName: __ZN8GGUFMeta3GKVIfE6get_kvEPK12gguf_contexti, symObjAddr: 0x836C, symBinAddr: 0x588A8, symSize: 0x100 }
  - { offset: 0x2B3F43, size: 0x8, addend: 0x0, symName: __ZN18llama_model_loader7get_keyIjEEb6llm_kvRT_b, symObjAddr: 0xA38, symBinAddr: 0x5175C, symSize: 0xA0 }
  - { offset: 0x2B41E0, size: 0x8, addend: 0x0, symName: __ZN18llama_model_loader7get_keyIjEEbRKNSt3__112basic_stringIcNS1_11char_traitsIcEENS1_9allocatorIcEEEERT_b, symObjAddr: 0xAD8, symBinAddr: 0x517FC, symSize: 0x15C }
  - { offset: 0x2B469F, size: 0x8, addend: 0x0, symName: __ZN8GGUFMeta3GKVIjE17validate_overrideE28llama_model_kv_override_typePK23llama_model_kv_override, symObjAddr: 0x87A8, symBinAddr: 0x58CE4, symSize: 0x23C }
  - { offset: 0x2B489F, size: 0x8, addend: 0x0, symName: __ZN8GGUFMeta3GKVIjE6get_kvEPK12gguf_contexti, symObjAddr: 0x86A8, symBinAddr: 0x58BE4, symSize: 0x100 }
  - { offset: 0x2B4A8E, size: 0x8, addend: 0x0, symName: __ZN18llama_model_loader7get_keyINSt3__112basic_stringIcNS1_11char_traitsIcEENS1_9allocatorIcEEEEEEb6llm_kvRT_b, symObjAddr: 0xC34, symBinAddr: 0x51958, symSize: 0xA0 }
  - { offset: 0x2B4D51, size: 0x8, addend: 0x0, symName: __ZN18llama_model_loader7get_keyINSt3__112basic_stringIcNS1_11char_traitsIcEENS1_9allocatorIcEEEEEEbRKS7_RT_b, symObjAddr: 0xCD4, symBinAddr: 0x519F8, symSize: 0x184 }
  - { offset: 0x2B53ED, size: 0x8, addend: 0x0, symName: __ZN8GGUFMeta3GKVINSt3__112basic_stringIcNS1_11char_traitsIcEENS1_9allocatorIcEEEEE17validate_overrideE28llama_model_kv_override_typePK23llama_model_kv_override, symObjAddr: 0x8B74, symBinAddr: 0x590B0, symSize: 0x23C }
  - { offset: 0x2B55ED, size: 0x8, addend: 0x0, symName: __ZN8GGUFMeta3GKVINSt3__112basic_stringIcNS1_11char_traitsIcEENS1_9allocatorIcEEEEE6get_kvEPK12gguf_contexti, symObjAddr: 0x89E4, symBinAddr: 0x58F20, symSize: 0x190 }
  - { offset: 0x2B5BF3, size: 0x8, addend: 0x0, symName: __ZN18llama_model_loader7get_keyI18llama_pooling_typeEEb6llm_kvRT_b, symObjAddr: 0xE58, symBinAddr: 0x51B7C, symSize: 0x98 }
  - { offset: 0x2B5F11, size: 0x8, addend: 0x0, symName: __ZN18llama_model_loader14get_key_or_arrINSt3__15arrayIiLm4EEEEEb6llm_kvRT_jb, symObjAddr: 0xEF0, symBinAddr: 0x51C14, symSize: 0xA8 }
  - { offset: 0x2B61EB, size: 0x8, addend: 0x0, symName: __ZN18llama_model_loader14get_key_or_arrIiLm4EEEbRKNSt3__112basic_stringIcNS1_11char_traitsIcEENS1_9allocatorIcEEEERNS1_5arrayIT_XT0_EEEjb, symObjAddr: 0xF98, symBinAddr: 0x51CBC, symSize: 0x338 }
  - { offset: 0x2B6854, size: 0x8, addend: 0x0, symName: __ZN18llama_model_loader7get_arrIiLm4EEEbRKNSt3__112basic_stringIcNS1_11char_traitsIcEENS1_9allocatorIcEEEERNS1_5arrayIT_XT0_EEEb, symObjAddr: 0x8DB0, symBinAddr: 0x592EC, symSize: 0x2C8 }
  - { offset: 0x2B6F17, size: 0x8, addend: 0x0, symName: __ZN18llama_model_loader7get_keyIiEEbRKNSt3__112basic_stringIcNS1_11char_traitsIcEENS1_9allocatorIcEEEERT_b, symObjAddr: 0x3CEC, symBinAddr: 0x548BC, symSize: 0x15C }
  - { offset: 0x2B730E, size: 0x8, addend: 0x0, symName: __ZN18llama_model_loader14get_key_or_arrINSt3__15arrayIjLm512EEEEEb6llm_kvRT_jb, symObjAddr: 0x12D0, symBinAddr: 0x51FF4, symSize: 0xA8 }
  - { offset: 0x2B75E8, size: 0x8, addend: 0x0, symName: __ZN18llama_model_loader14get_key_or_arrIjLm512EEEbRKNSt3__112basic_stringIcNS1_11char_traitsIcEENS1_9allocatorIcEEEERNS1_5arrayIT_XT0_EEEjb, symObjAddr: 0x1378, symBinAddr: 0x5209C, symSize: 0x304 }
  - { offset: 0x2B7C52, size: 0x8, addend: 0x0, symName: __ZN18llama_model_loader7get_arrIjLm512EEEbRKNSt3__112basic_stringIcNS1_11char_traitsIcEENS1_9allocatorIcEEEERNS1_5arrayIT_XT0_EEEb, symObjAddr: 0x9078, symBinAddr: 0x595B4, symSize: 0x2C8 }
  - { offset: 0x2BA6D6, size: 0x8, addend: 0x0, symName: __ZN18llama_model_loaderC2ERKNSt3__112basic_stringIcNS0_11char_traitsIcEENS0_9allocatorIcEEEERNS0_6vectorIS6_NS4_IS6_EEEEbbPK23llama_model_kv_overridePK32llama_model_tensor_buft_override, symObjAddr: 0x167C, symBinAddr: 0x523A0, symSize: 0x23C0 }
  - { offset: 0x2C39D7, size: 0x8, addend: 0x0, symName: __ZNSt3__112__hash_tableINS_17__hash_value_typeINS_12basic_stringIcNS_11char_traitsIcEENS_9allocatorIcEEEE23llama_model_kv_overrideEENS_22__unordered_map_hasherIS7_S9_NS_4hashIS7_EENS_8equal_toIS7_EELb1EEENS_21__unordered_map_equalIS7_S9_SE_SC_Lb1EEENS5_IS9_EEE25__emplace_unique_key_argsIS7_JNS_4pairIKS7_S8_EEEEENSL_INS_15__hash_iteratorIPNS_11__hash_nodeIS9_PvEEEEbEERKT_DpOT0_, symObjAddr: 0x93A0, symBinAddr: 0x598DC, symSize: 0x478 }
  - { offset: 0x2C43AF, size: 0x8, addend: 0x0, symName: __ZNSt3__16vectorINS_10unique_ptrI10llama_fileNS_14default_deleteIS2_EEEENS_9allocatorIS5_EEE24__emplace_back_slow_pathIJPS2_EEEPS5_DpOT_, symObjAddr: 0x9A10, symBinAddr: 0x59F4C, symSize: 0x1BC }
  - { offset: 0x2C4979, size: 0x8, addend: 0x0, symName: __ZNKSt3__16vectorINS_10unique_ptrI10llama_fileNS_14default_deleteIS2_EEEENS_9allocatorIS5_EEE20__throw_length_errorB8ne180100Ev, symObjAddr: 0x9BCC, symBinAddr: 0x5A108, symSize: 0x14 }
  - { offset: 0x2C4DCF, size: 0x8, addend: 0x0, symName: __ZNK18llama_model_loader20weight_name_comparerclERKNSt3__112basic_stringIcNS1_11char_traitsIcEENS1_9allocatorIcEEEES9_, symObjAddr: 0x9DB0, symBinAddr: 0x5A11C, symSize: 0xF4 }
  - { offset: 0x2C5085, size: 0x8, addend: 0x0, symName: __ZN18llama_model_loader19llama_tensor_weightC2EPK10llama_filetPK12gguf_contextP11ggml_tensor, symObjAddr: 0x7170, symBinAddr: 0x57CC0, symSize: 0x1B8 }
  - { offset: 0x2C5323, size: 0x8, addend: 0x0, symName: __ZNSt3__16__treeINS_12__value_typeINS_12basic_stringIcNS_11char_traitsIcEENS_9allocatorIcEEEEN18llama_model_loader19llama_tensor_weightEEENS_19__map_value_compareIS7_SA_NS8_20weight_name_comparerELb1EEENS5_ISA_EEE25__emplace_unique_key_argsIS7_JRS7_S9_EEENS_4pairINS_15__tree_iteratorISA_PNS_11__tree_nodeISA_PvEElEEbEERKT_DpOT0_, symObjAddr: 0x9EA4, symBinAddr: 0x5A210, symSize: 0x14C }
  - { offset: 0x2C57F6, size: 0x8, addend: 0x0, symName: __ZN8GGUFMeta3GKVItE17validate_overrideE28llama_model_kv_override_typePK23llama_model_kv_override, symObjAddr: 0xA2A4, symBinAddr: 0x5A45C, symSize: 0x23C }
  - { offset: 0x2C59F6, size: 0x8, addend: 0x0, symName: __ZN8GGUFMeta3GKVItE6get_kvEPK12gguf_contexti, symObjAddr: 0xA1A4, symBinAddr: 0x5A35C, symSize: 0x100 }
  - { offset: 0x2C5BF3, size: 0x8, addend: 0x0, symName: __ZN18llama_model_loader7get_keyItEEbRKNSt3__112basic_stringIcNS1_11char_traitsIcEENS1_9allocatorIcEEEERT_b, symObjAddr: 0x3AEC, symBinAddr: 0x54760, symSize: 0x15C }
  - { offset: 0x2C600A, size: 0x8, addend: 0x0, symName: __ZNSt3__16vectorINS_12basic_stringIcNS_11char_traitsIcEENS_9allocatorIcEEEENS4_IS6_EEE21__push_back_slow_pathIS6_EEPS6_OT_, symObjAddr: 0x73EC, symBinAddr: 0x57E78, symSize: 0x168 }
  - { offset: 0x2C66E9, size: 0x8, addend: 0x0, symName: __ZNSt3__16__treeINS_12__value_typeI9ggml_typejEENS_19__map_value_compareIS2_S3_NS_4lessIS2_EELb1EEENS_9allocatorIS3_EEE7destroyEPNS_11__tree_nodeIS3_PvEE, symObjAddr: 0xA81C, symBinAddr: 0x5A9D4, symSize: 0x40 }
  - { offset: 0x2C6B6E, size: 0x8, addend: 0x0, symName: __ZNSt3__113unordered_mapINS_12basic_stringIcNS_11char_traitsIcEENS_9allocatorIcEEEE23llama_model_kv_overrideNS_4hashIS6_EENS_8equal_toIS6_EENS4_INS_4pairIKS6_S7_EEEEED1B8ne180100Ev, symObjAddr: 0x3EB8, symBinAddr: 0x54A18, symSize: 0x68 }
  - { offset: 0x2C6FD5, size: 0x8, addend: 0x0, symName: __ZNSt3__16__treeINS_12__value_typeINS_12basic_stringIcNS_11char_traitsIcEENS_9allocatorIcEEEEN18llama_model_loader19llama_tensor_weightEEENS_19__map_value_compareIS7_SA_NS8_20weight_name_comparerELb1EEENS5_ISA_EEE7destroyEPNS_11__tree_nodeISA_PvEE, symObjAddr: 0x9340, symBinAddr: 0x5987C, symSize: 0x60 }
  - { offset: 0x2C7254, size: 0x8, addend: 0x0, symName: __ZNSt3__16vectorINS_10unique_ptrI10llama_mmapNS_14default_deleteIS2_EEEENS_9allocatorIS5_EEED1B8ne180100Ev, symObjAddr: 0x3F20, symBinAddr: 0x54A80, symSize: 0x70 }
  - { offset: 0x2C7469, size: 0x8, addend: 0x0, symName: __ZNSt3__16vectorINS_10unique_ptrI10llama_fileNS_14default_deleteIS2_EEEENS_9allocatorIS5_EEED1B8ne180100Ev, symObjAddr: 0x3F90, symBinAddr: 0x54AF0, symSize: 0x70 }
  - { offset: 0x2C78DC, size: 0x8, addend: 0x0, symName: __ZN18llama_model_loader7get_keyItEEbRKNSt3__112basic_stringIcNS1_11char_traitsIcEENS1_9allocatorIcEEEERT_b, symObjAddr: 0x3AEC, symBinAddr: 0x54760, symSize: 0x15C }
  - { offset: 0x2C79EA, size: 0x8, addend: 0x0, symName: __ZN8GGUFMeta3GKVIiE17validate_overrideE28llama_model_kv_override_typePK23llama_model_kv_override, symObjAddr: 0xA5E0, symBinAddr: 0x5A798, symSize: 0x23C }
  - { offset: 0x2C7BEA, size: 0x8, addend: 0x0, symName: __ZN8GGUFMeta3GKVIiE6get_kvEPK12gguf_contexti, symObjAddr: 0xA4E0, symBinAddr: 0x5A698, symSize: 0x100 }
  - { offset: 0x2C84DF, size: 0x8, addend: 0x0, symName: __ZN18llama_model_loaderC1ERKNSt3__112basic_stringIcNS0_11char_traitsIcEENS0_9allocatorIcEEEERNS0_6vectorIS6_NS4_IS6_EEEEbbPK23llama_model_kv_overridePK32llama_model_tensor_buft_override, symObjAddr: 0x4000, symBinAddr: 0x54B60, symSize: 0x4 }
  - { offset: 0x2C8572, size: 0x8, addend: 0x0, symName: __ZN18llama_model_loaderC1ERKNSt3__112basic_stringIcNS0_11char_traitsIcEENS0_9allocatorIcEEEERNS0_6vectorIS6_NS4_IS6_EEEEbbPK23llama_model_kv_overridePK32llama_model_tensor_buft_override, symObjAddr: 0x4000, symBinAddr: 0x54B60, symSize: 0x4 }
  - { offset: 0x2C85AF, size: 0x8, addend: 0x0, symName: __ZNK18llama_model_loader13get_arch_nameEv, symObjAddr: 0x4004, symBinAddr: 0x54B64, symSize: 0x2C }
  - { offset: 0x2C8607, size: 0x8, addend: 0x0, symName: __ZNK18llama_model_loader13get_arch_nameEv, symObjAddr: 0x4004, symBinAddr: 0x54B64, symSize: 0x2C }
  - { offset: 0x2C863F, size: 0x8, addend: 0x0, symName: __ZNK18llama_model_loader8get_archEv, symObjAddr: 0x4030, symBinAddr: 0x54B90, symSize: 0x8 }
  - { offset: 0x2C8724, size: 0x8, addend: 0x0, symName: __ZNK18llama_model_loader10get_weightEPKc, symObjAddr: 0x4038, symBinAddr: 0x54B98, symSize: 0x15C }
  - { offset: 0x2C8EB2, size: 0x8, addend: 0x0, symName: __ZNK18llama_model_loader14require_weightEPKc, symObjAddr: 0x4194, symBinAddr: 0x54CF4, symSize: 0xC4 }
  - { offset: 0x2C9053, size: 0x8, addend: 0x0, symName: __ZNK18llama_model_loader15get_tensor_metaEPKc, symObjAddr: 0x4258, symBinAddr: 0x54DB8, symSize: 0x1C }
  - { offset: 0x2C90D9, size: 0x8, addend: 0x0, symName: __ZNK18llama_model_loader19require_tensor_metaERKNSt3__112basic_stringIcNS0_11char_traitsIcEENS0_9allocatorIcEEEE, symObjAddr: 0x4274, symBinAddr: 0x54DD4, symSize: 0xEC }
  - { offset: 0x2C938C, size: 0x8, addend: 0x0, symName: __ZNK18llama_model_loader17check_tensor_dimsERKNSt3__112basic_stringIcNS0_11char_traitsIcEENS0_9allocatorIcEEEERKNS0_6vectorIxNS4_IxEEEEb, symObjAddr: 0x4360, symBinAddr: 0x54EC0, symSize: 0x2DC }
  - { offset: 0x2C9E48, size: 0x8, addend: 0x0, symName: __ZN18llama_model_loader13create_tensorEP12ggml_contextRKNSt3__112basic_stringIcNS2_11char_traitsIcEENS2_9allocatorIcEEEERKSt16initializer_listIxEi, symObjAddr: 0x463C, symBinAddr: 0x5519C, symSize: 0x13C }
  - { offset: 0x2CA3F1, size: 0x8, addend: 0x0, symName: __ZNKSt3__16vectorINS_10unique_ptrI10llama_mmapNS_14default_deleteIS2_EEEENS_9allocatorIS5_EEE20__throw_length_errorB8ne180100Ev, symObjAddr: 0xA8E4, symBinAddr: 0x5AA14, symSize: 0x14 }
  - { offset: 0x2CA3FC, size: 0x8, addend: 0x0, symName: __ZN18llama_model_loader21create_tensor_as_viewEP12ggml_contextP11ggml_tensorRKNSt3__112basic_stringIcNS4_11char_traitsIcEENS4_9allocatorIcEEEERKSt16initializer_listIxEmb, symObjAddr: 0x4778, symBinAddr: 0x552D8, symSize: 0x25C }
  - { offset: 0x2CABF0, size: 0x8, addend: 0x0, symName: __ZNK18llama_model_loader20done_getting_tensorsEv, symObjAddr: 0x49D4, symBinAddr: 0x55534, symSize: 0xD0 }
  - { offset: 0x2CB9EC, size: 0x8, addend: 0x0, symName: __ZN18llama_model_loader13init_mappingsEbPNSt3__16vectorINS0_10unique_ptrI11llama_mlockNS0_14default_deleteIS3_EEEENS0_9allocatorIS6_EEEE, symObjAddr: 0x4AA4, symBinAddr: 0x55604, symSize: 0x430 }
  - { offset: 0x2CCC59, size: 0x8, addend: 0x0, symName: __ZNSt3__16vectorINS_10unique_ptrI10llama_mmapNS_14default_deleteIS2_EEEENS_9allocatorIS5_EEE7reserveEm, symObjAddr: 0x4ED4, symBinAddr: 0x55A34, symSize: 0x188 }
  - { offset: 0x2CD0AD, size: 0x8, addend: 0x0, symName: __ZNSt3__110unique_ptrI11llama_mlockNS_14default_deleteIS1_EEED1B8ne180100Ev, symObjAddr: 0x505C, symBinAddr: 0x55BBC, symSize: 0x34 }
  - { offset: 0x2CD124, size: 0x8, addend: 0x0, symName: __ZNSt3__16vectorINS_10unique_ptrI11llama_mlockNS_14default_deleteIS2_EEEENS_9allocatorIS5_EEE24__emplace_back_slow_pathIJS5_EEEPS5_DpOT_, symObjAddr: 0xA90C, symBinAddr: 0x5AA28, symSize: 0x1BC }
  - { offset: 0x2CD717, size: 0x8, addend: 0x0, symName: __ZNKSt3__16vectorINS_10unique_ptrI11llama_mlockNS_14default_deleteIS2_EEEENS_9allocatorIS5_EEE20__throw_length_errorB8ne180100Ev, symObjAddr: 0xAAC8, symBinAddr: 0x5ABE4, symSize: 0x14 }
  - { offset: 0x2CD72D, size: 0x8, addend: 0x0, symName: __ZNSt3__16vectorINS_10unique_ptrI10llama_mmapNS_14default_deleteIS2_EEEENS_9allocatorIS5_EEE24__emplace_back_slow_pathIJS5_EEEPS5_DpOT_, symObjAddr: 0xAADC, symBinAddr: 0x5ABF8, symSize: 0x1BC }
  - { offset: 0x2CDD20, size: 0x8, addend: 0x0, symName: __ZNKSt3__16vectorINS_10unique_ptrI10llama_mmapNS_14default_deleteIS2_EEEENS_9allocatorIS5_EEE20__throw_out_of_rangeB8ne180100Ev, symObjAddr: 0xAC98, symBinAddr: 0x5ADB4, symSize: 0x14 }
  - { offset: 0x2CDD4E, size: 0x8, addend: 0x0, symName: __ZNSt3__16vectorINS_10unique_ptrI11llama_mlockNS_14default_deleteIS2_EEEENS_9allocatorIS5_EEE24__emplace_back_slow_pathIJS5_EEEPS5_DpOT_, symObjAddr: 0xA90C, symBinAddr: 0x5AA28, symSize: 0x1BC }
  - { offset: 0x2CDD59, size: 0x8, addend: 0x0, symName: __ZNSt3__110unique_ptrI10llama_mmapNS_14default_deleteIS1_EEED1B8ne180100Ev, symObjAddr: 0x5090, symBinAddr: 0x55BF0, symSize: 0x34 }
  - { offset: 0x2CDDE7, size: 0x8, addend: 0x0, symName: __ZNSt3__110unique_ptrI11llama_mlockNS_14default_deleteIS1_EEED1B8ne180100Ev, symObjAddr: 0x505C, symBinAddr: 0x55BBC, symSize: 0x34 }
  - { offset: 0x2CE012, size: 0x8, addend: 0x0, symName: __ZNKSt3__16vectorINS_10unique_ptrI10llama_mmapNS_14default_deleteIS2_EEEENS_9allocatorIS5_EEE20__throw_length_errorB8ne180100Ev, symObjAddr: 0xA8E4, symBinAddr: 0x5AA14, symSize: 0x14 }
  - { offset: 0x2CE0CE, size: 0x8, addend: 0x0, symName: __ZNK18llama_model_loader17get_mapping_rangeEPmS0_PPviP12ggml_context, symObjAddr: 0x50C4, symBinAddr: 0x55C24, symSize: 0x138 }
  - { offset: 0x2CE347, size: 0x8, addend: 0x0, symName: __ZNK18llama_model_loader13load_data_forEP11ggml_tensor, symObjAddr: 0x51FC, symBinAddr: 0x55D5C, symSize: 0x214 }
  - { offset: 0x2CE352, size: 0x8, addend: 0x0, symName: __ZNKSt3__16vectorINS_10unique_ptrI10llama_mmapNS_14default_deleteIS2_EEEENS_9allocatorIS5_EEE20__throw_out_of_rangeB8ne180100Ev, symObjAddr: 0xAC98, symBinAddr: 0x5ADB4, symSize: 0x14 }
  - { offset: 0x2CE37C, size: 0x8, addend: 0x0, symName: __ZNKSt3__16vectorINS_10unique_ptrI10llama_fileNS_14default_deleteIS2_EEEENS_9allocatorIS5_EEE20__throw_out_of_rangeB8ne180100Ev, symObjAddr: 0xACAC, symBinAddr: 0x5ADC8, symSize: 0x14 }
  - { offset: 0x2CE3C1, size: 0x8, addend: 0x0, symName: __ZNK18llama_model_loader13load_data_forEP11ggml_tensor, symObjAddr: 0x51FC, symBinAddr: 0x55D5C, symSize: 0x214 }
  - { offset: 0x2D1397, size: 0x8, addend: 0x0, symName: __ZNSt3__16vectorINS_6futureINS_4pairIP11ggml_tensorbEEEENS_9allocatorIS6_EEE24__emplace_back_slow_pathIJS6_EEEPS6_DpOT_, symObjAddr: 0xAFD4, symBinAddr: 0x5B0F0, symSize: 0x1B8 }
  - { offset: 0x2D18EB, size: 0x8, addend: 0x0, symName: __ZNKSt3__16vectorINS_6futureINS_4pairIP11ggml_tensorbEEEENS_9allocatorIS6_EEE20__throw_length_errorB8ne180100Ev, symObjAddr: 0xB18C, symBinAddr: 0x5B2A8, symSize: 0x14 }
  - { offset: 0x2D1990, size: 0x8, addend: 0x0, symName: __ZNSt3__113__assoc_stateINS_4pairIP11ggml_tensorbEEE4moveEv, symObjAddr: 0xB480, symBinAddr: 0x5B59C, symSize: 0xC4 }
  - { offset: 0x2D1C23, size: 0x8, addend: 0x0, symName: __ZNKSt3__16vectorINS_10unique_ptrI10llama_fileNS_14default_deleteIS2_EEEENS_9allocatorIS5_EEE20__throw_out_of_rangeB8ne180100Ev, symObjAddr: 0xACAC, symBinAddr: 0x5ADC8, symSize: 0x14 }
  - { offset: 0x2D1C4D, size: 0x8, addend: 0x0, symName: '__ZNSt3__119__async_assoc_stateINS_4pairIP11ggml_tensorbEENS_12__async_funcIZN18llama_model_loader13load_all_dataEP12ggml_contextRNS_13unordered_mapIjP19ggml_backend_bufferNS_4hashIjEENS_8equal_toIjEENS_9allocatorINS1_IKjSB_EEEEEEPNS_6vectorINS_10unique_ptrI11llama_mlockNS_14default_deleteISO_EEEENSG_ISR_EEEEPFbfPvESV_E3$_1JEEEED1Ev', symObjAddr: 0xACC0, symBinAddr: 0x5ADDC, symSize: 0x4C }
  - { offset: 0x2D1C58, size: 0x8, addend: 0x0, symName: __ZNKSt3__16vectorINS_4pairImmEENS_9allocatorIS2_EEE20__throw_out_of_rangeB8ne180100Ev, symObjAddr: 0xB544, symBinAddr: 0x5B660, symSize: 0x14 }
  - { offset: 0x2D1C8D, size: 0x8, addend: 0x0, symName: __ZNKSt3__16vectorINS_10unique_ptrI11llama_mlockNS_14default_deleteIS2_EEEENS_9allocatorIS5_EEE20__throw_out_of_rangeB8ne180100Ev, symObjAddr: 0xB1A0, symBinAddr: 0x5B2BC, symSize: 0x14 }
  - { offset: 0x2D1CB7, size: 0x8, addend: 0x0, symName: '__ZNSt3__119__async_assoc_stateINS_4pairIP11ggml_tensorbEENS_12__async_funcIZN18llama_model_loader13load_all_dataEP12ggml_contextRNS_13unordered_mapIjP19ggml_backend_bufferNS_4hashIjEENS_8equal_toIjEENS_9allocatorINS1_IKjSB_EEEEEEPNS_6vectorINS_10unique_ptrI11llama_mlockNS_14default_deleteISO_EEEENSG_ISR_EEEEPFbfPvESV_E3$_2JEEEED1Ev', symObjAddr: 0xB1B4, symBinAddr: 0x5B2D0, symSize: 0x4C }
  - { offset: 0x2D1CC2, size: 0x8, addend: 0x0, symName: __ZNKSt3__16vectorI7no_initIhENS_9allocatorIS2_EEE20__throw_length_errorB8ne180100Ev, symObjAddr: 0xB46C, symBinAddr: 0x5B588, symSize: 0x14 }
  - { offset: 0x2D1CEC, size: 0x8, addend: 0x0, symName: __ZNSt3__113__assoc_stateINS_4pairIP11ggml_tensorbEEE4moveEv, symObjAddr: 0xB480, symBinAddr: 0x5B59C, symSize: 0xC4 }
  - { offset: 0x2D1CF7, size: 0x8, addend: 0x0, symName: __ZNKSt3__16vectorIP19ggml_backend_bufferNS_9allocatorIS2_EEE20__throw_length_errorB8ne180100Ev, symObjAddr: 0x75CC, symBinAddr: 0x57FE0, symSize: 0x14 }
  - { offset: 0x2D1D21, size: 0x8, addend: 0x0, symName: __ZNKSt3__16vectorIPvNS_9allocatorIS1_EEE20__throw_length_errorB8ne180100Ev, symObjAddr: 0x75E0, symBinAddr: 0x57FF4, symSize: 0x14 }
  - { offset: 0x2D1D2C, size: 0x8, addend: 0x0, symName: __ZNKSt3__16vectorIPvNS_9allocatorIS1_EEE20__throw_length_errorB8ne180100Ev, symObjAddr: 0x75E0, symBinAddr: 0x57FF4, symSize: 0x14 }
  - { offset: 0x2D1D56, size: 0x8, addend: 0x0, symName: __ZNKSt3__16vectorIP18ggml_backend_eventNS_9allocatorIS2_EEE20__throw_length_errorB8ne180100Ev, symObjAddr: 0x75F4, symBinAddr: 0x58008, symSize: 0x14 }
  - { offset: 0x2D1D61, size: 0x8, addend: 0x0, symName: __ZNKSt3__16vectorIP18ggml_backend_eventNS_9allocatorIS2_EEE20__throw_length_errorB8ne180100Ev, symObjAddr: 0x75F4, symBinAddr: 0x58008, symSize: 0x14 }
  - { offset: 0x2D1D8B, size: 0x8, addend: 0x0, symName: __ZN8GGUFMeta3GKVINS_9ArrayInfoEE6get_kvEPK12gguf_contexti, symObjAddr: 0x7608, symBinAddr: 0x5801C, symSize: 0x150 }
  - { offset: 0x2D1D96, size: 0x8, addend: 0x0, symName: __ZNSt3__16vectorINS_6futureINS_4pairIP11ggml_tensorbEEEENS_9allocatorIS6_EEED1B8ne180100Ev, symObjAddr: 0x6B2C, symBinAddr: 0x5768C, symSize: 0x80 }
  - { offset: 0x2D1F96, size: 0x8, addend: 0x0, symName: __ZNK18llama_model_loader10ftype_nameEv, symObjAddr: 0x6BAC, symBinAddr: 0x5770C, symSize: 0xC }
  - { offset: 0x2D1FD6, size: 0x8, addend: 0x0, symName: __ZL22llama_model_ftype_name11llama_ftype, symObjAddr: 0x6BB8, symBinAddr: 0x57718, symSize: 0x458 }
  - { offset: 0x2D248E, size: 0x8, addend: 0x0, symName: __ZNK18llama_model_loader10print_infoEv, symObjAddr: 0x7010, symBinAddr: 0x57B70, symSize: 0x150 }
  - { offset: 0x2D2AC2, size: 0x8, addend: 0x0, symName: __ZNKSt3__16vectorIP19ggml_backend_bufferNS_9allocatorIS2_EEE20__throw_length_errorB8ne180100Ev, symObjAddr: 0x75CC, symBinAddr: 0x57FE0, symSize: 0x14 }
  - { offset: 0x2D3D1F, size: 0x8, addend: 0x0, symName: __ZNSt3__112__hash_tableINS_17__hash_value_typeINS_12basic_stringIcNS_11char_traitsIcEENS_9allocatorIcEEEE23llama_model_kv_overrideEENS_22__unordered_map_hasherIS7_S9_NS_4hashIS7_EENS_8equal_toIS7_EELb1EEENS_21__unordered_map_equalIS7_S9_SE_SC_Lb1EEENS5_IS9_EEE11__do_rehashILb1EEEvm, symObjAddr: 0x9864, symBinAddr: 0x59DA0, symSize: 0x1AC }
  - { offset: 0x2D417D, size: 0x8, addend: 0x0, symName: __ZNSt3__16vectorINS_10unique_ptrI10llama_fileNS_14default_deleteIS2_EEEENS_9allocatorIS5_EEE24__emplace_back_slow_pathIJPS2_EEEPS5_DpOT_, symObjAddr: 0x9A10, symBinAddr: 0x59F4C, symSize: 0x1BC }
  - { offset: 0x2D4192, size: 0x8, addend: 0x0, symName: __ZNSt3__110unique_ptrINS_11__hash_nodeINS_17__hash_value_typeINS_12basic_stringIcNS_11char_traitsIcEENS_9allocatorIcEEEE23llama_model_kv_overrideEEPvEENS_22__hash_node_destructorINS6_ISC_EEEEED1B8ne180100Ev, symObjAddr: 0x9818, symBinAddr: 0x59D54, symSize: 0x4C }
  - { offset: 0x2D48DB, size: 0x8, addend: 0x0, symName: __ZNKSt3__16vectorINS_10unique_ptrI10llama_fileNS_14default_deleteIS2_EEEENS_9allocatorIS5_EEE20__throw_length_errorB8ne180100Ev, symObjAddr: 0x9BCC, symBinAddr: 0x5A108, symSize: 0x14 }
  - { offset: 0x2D4CB0, size: 0x8, addend: 0x0, symName: __ZNK18llama_model_loader20weight_name_comparerclERKNSt3__112basic_stringIcNS1_11char_traitsIcEENS1_9allocatorIcEEEES9_, symObjAddr: 0x9DB0, symBinAddr: 0x5A11C, symSize: 0xF4 }
  - { offset: 0x2D503F, size: 0x8, addend: 0x0, symName: __ZNKSt3__16vectorINS_10unique_ptrI11llama_mlockNS_14default_deleteIS2_EEEENS_9allocatorIS5_EEE20__throw_length_errorB8ne180100Ev, symObjAddr: 0xAAC8, symBinAddr: 0x5ABE4, symSize: 0x14 }
  - { offset: 0x2D5069, size: 0x8, addend: 0x0, symName: __ZNSt3__16vectorINS_10unique_ptrI10llama_mmapNS_14default_deleteIS2_EEEENS_9allocatorIS5_EEE24__emplace_back_slow_pathIJS5_EEEPS5_DpOT_, symObjAddr: 0xAADC, symBinAddr: 0x5ABF8, symSize: 0x1BC }
  - { offset: 0x2D510C, size: 0x8, addend: 0x0, symName: '__ZNSt3__119__async_assoc_stateINS_4pairIP11ggml_tensorbEENS_12__async_funcIZN18llama_model_loader13load_all_dataEP12ggml_contextRNS_13unordered_mapIjP19ggml_backend_bufferNS_4hashIjEENS_8equal_toIjEENS_9allocatorINS1_IKjSB_EEEEEEPNS_6vectorINS_10unique_ptrI11llama_mlockNS_14default_deleteISO_EEEENSG_ISR_EEEEPFbfPvESV_E3$_1JEEEED1Ev', symObjAddr: 0xACC0, symBinAddr: 0x5ADDC, symSize: 0x4C }
  - { offset: 0x2D51A8, size: 0x8, addend: 0x0, symName: '__ZNSt3__119__async_assoc_stateINS_4pairIP11ggml_tensorbEENS_12__async_funcIZN18llama_model_loader13load_all_dataEP12ggml_contextRNS_13unordered_mapIjP19ggml_backend_bufferNS_4hashIjEENS_8equal_toIjEENS_9allocatorINS1_IKjSB_EEEEEEPNS_6vectorINS_10unique_ptrI11llama_mlockNS_14default_deleteISO_EEEENSG_ISR_EEEEPFbfPvESV_E3$_1JEEEED0Ev', symObjAddr: 0xAD0C, symBinAddr: 0x5AE28, symSize: 0x50 }
  - { offset: 0x2D5262, size: 0x8, addend: 0x0, symName: '__ZNSt3__119__async_assoc_stateINS_4pairIP11ggml_tensorbEENS_12__async_funcIZN18llama_model_loader13load_all_dataEP12ggml_contextRNS_13unordered_mapIjP19ggml_backend_bufferNS_4hashIjEENS_8equal_toIjEENS_9allocatorINS1_IKjSB_EEEEEEPNS_6vectorINS_10unique_ptrI11llama_mlockNS_14default_deleteISO_EEEENSG_ISR_EEEEPFbfPvESV_E3$_1JEEEE16__on_zero_sharedEv', symObjAddr: 0xAD5C, symBinAddr: 0x5AE78, symSize: 0x30 }
  - { offset: 0x2D54CD, size: 0x8, addend: 0x0, symName: '__ZNSt3__119__async_assoc_stateINS_4pairIP11ggml_tensorbEENS_12__async_funcIZN18llama_model_loader13load_all_dataEP12ggml_contextRNS_13unordered_mapIjP19ggml_backend_bufferNS_4hashIjEENS_8equal_toIjEENS_9allocatorINS1_IKjSB_EEEEEEPNS_6vectorINS_10unique_ptrI11llama_mlockNS_14default_deleteISO_EEEENSG_ISR_EEEEPFbfPvESV_E3$_1JEEEE9__executeEv', symObjAddr: 0xAD8C, symBinAddr: 0x5AEA8, symSize: 0x118 }
  - { offset: 0x2D58F5, size: 0x8, addend: 0x0, symName: '__ZNSt3__110unique_ptrINS_5tupleIJNS0_INS_15__thread_structENS_14default_deleteIS2_EEEEMNS_19__async_assoc_stateINS_4pairIP11ggml_tensorbEENS_12__async_funcIZN18llama_model_loader13load_all_dataEP12ggml_contextRNS_13unordered_mapIjP19ggml_backend_bufferNS_4hashIjEENS_8equal_toIjEENS_9allocatorINS7_IKjSH_EEEEEEPNS_6vectorINS0_I11llama_mlockNS3_IST_EEEENSM_ISV_EEEEPFbfPvESZ_E3$_1JEEEEEFvvEPS14_EEENS3_IS18_EEED1B8ne180100Ev', symObjAddr: 0xAF8C, symBinAddr: 0x5B0A8, symSize: 0x48 }
  - { offset: 0x2D5C73, size: 0x8, addend: 0x0, symName: __ZNKSt3__16vectorINS_6futureINS_4pairIP11ggml_tensorbEEEENS_9allocatorIS6_EEE20__throw_length_errorB8ne180100Ev, symObjAddr: 0xB18C, symBinAddr: 0x5B2A8, symSize: 0x14 }
  - { offset: 0x2D5C9D, size: 0x8, addend: 0x0, symName: __ZNKSt3__16vectorINS_10unique_ptrI11llama_mlockNS_14default_deleteIS2_EEEENS_9allocatorIS5_EEE20__throw_out_of_rangeB8ne180100Ev, symObjAddr: 0xB1A0, symBinAddr: 0x5B2BC, symSize: 0x14 }
  - { offset: 0x2D5CC5, size: 0x8, addend: 0x0, symName: '__ZNSt3__119__async_assoc_stateINS_4pairIP11ggml_tensorbEENS_12__async_funcIZN18llama_model_loader13load_all_dataEP12ggml_contextRNS_13unordered_mapIjP19ggml_backend_bufferNS_4hashIjEENS_8equal_toIjEENS_9allocatorINS1_IKjSB_EEEEEEPNS_6vectorINS_10unique_ptrI11llama_mlockNS_14default_deleteISO_EEEENSG_ISR_EEEEPFbfPvESV_E3$_2JEEEED1Ev', symObjAddr: 0xB1B4, symBinAddr: 0x5B2D0, symSize: 0x4C }
  - { offset: 0x2D5D61, size: 0x8, addend: 0x0, symName: '__ZNSt3__119__async_assoc_stateINS_4pairIP11ggml_tensorbEENS_12__async_funcIZN18llama_model_loader13load_all_dataEP12ggml_contextRNS_13unordered_mapIjP19ggml_backend_bufferNS_4hashIjEENS_8equal_toIjEENS_9allocatorINS1_IKjSB_EEEEEEPNS_6vectorINS_10unique_ptrI11llama_mlockNS_14default_deleteISO_EEEENSG_ISR_EEEEPFbfPvESV_E3$_2JEEEED0Ev', symObjAddr: 0xB200, symBinAddr: 0x5B31C, symSize: 0x50 }
  - { offset: 0x2D5E03, size: 0x8, addend: 0x0, symName: '__ZNSt3__119__async_assoc_stateINS_4pairIP11ggml_tensorbEENS_12__async_funcIZN18llama_model_loader13load_all_dataEP12ggml_contextRNS_13unordered_mapIjP19ggml_backend_bufferNS_4hashIjEENS_8equal_toIjEENS_9allocatorINS1_IKjSB_EEEEEEPNS_6vectorINS_10unique_ptrI11llama_mlockNS_14default_deleteISO_EEEENSG_ISR_EEEEPFbfPvESV_E3$_2JEEEE16__on_zero_sharedEv', symObjAddr: 0xB250, symBinAddr: 0x5B36C, symSize: 0x30 }
  - { offset: 0x2D5EB4, size: 0x8, addend: 0x0, symName: '__ZNSt3__119__async_assoc_stateINS_4pairIP11ggml_tensorbEENS_12__async_funcIZN18llama_model_loader13load_all_dataEP12ggml_contextRNS_13unordered_mapIjP19ggml_backend_bufferNS_4hashIjEENS_8equal_toIjEENS_9allocatorINS1_IKjSB_EEEEEEPNS_6vectorINS_10unique_ptrI11llama_mlockNS_14default_deleteISO_EEEENSG_ISR_EEEEPFbfPvESV_E3$_2JEEEE9__executeEv', symObjAddr: 0xB280, symBinAddr: 0x5B39C, symSize: 0x118 }
  - { offset: 0x2D624C, size: 0x8, addend: 0x0, symName: '__ZNSt3__110unique_ptrINS_5tupleIJNS0_INS_15__thread_structENS_14default_deleteIS2_EEEEMNS_19__async_assoc_stateINS_4pairIP11ggml_tensorbEENS_12__async_funcIZN18llama_model_loader13load_all_dataEP12ggml_contextRNS_13unordered_mapIjP19ggml_backend_bufferNS_4hashIjEENS_8equal_toIjEENS_9allocatorINS7_IKjSH_EEEEEEPNS_6vectorINS0_I11llama_mlockNS3_IST_EEEENSM_ISV_EEEEPFbfPvESZ_E3$_2JEEEEEFvvEPS14_EEENS3_IS18_EEED1B8ne180100Ev', symObjAddr: 0xB424, symBinAddr: 0x5B540, symSize: 0x48 }
  - { offset: 0x2E8B86, size: 0x8, addend: 0x0, symName: __ZN17llama_model_saverC2ERK11llama_model, symObjAddr: 0x0, symBinAddr: 0x5B674, symSize: 0x38 }
  - { offset: 0x2E8BF7, size: 0x8, addend: 0x0, symName: __ZN17llama_model_saverC1ERK11llama_model, symObjAddr: 0x38, symBinAddr: 0x5B6AC, symSize: 0x38 }
  - { offset: 0x2E8C66, size: 0x8, addend: 0x0, symName: __ZN17llama_model_saverD2Ev, symObjAddr: 0x70, symBinAddr: 0x5B6E4, symSize: 0x2C }
  - { offset: 0x2E8CBF, size: 0x8, addend: 0x0, symName: __ZN17llama_model_saverD1Ev, symObjAddr: 0xAC, symBinAddr: 0x5B710, symSize: 0x2C }
  - { offset: 0x2E8E15, size: 0x8, addend: 0x0, symName: __ZN17llama_model_saver6add_kvE6llm_kvj, symObjAddr: 0xD8, symBinAddr: 0x5B73C, symSize: 0x98 }
  - { offset: 0x2E912E, size: 0x8, addend: 0x0, symName: __ZN17llama_model_saver6add_kvE6llm_kvi, symObjAddr: 0x170, symBinAddr: 0x5B7D4, symSize: 0x98 }
  - { offset: 0x2E9447, size: 0x8, addend: 0x0, symName: __ZN17llama_model_saver6add_kvE6llm_kvf, symObjAddr: 0x208, symBinAddr: 0x5B86C, symSize: 0x98 }
  - { offset: 0x2E975A, size: 0x8, addend: 0x0, symName: __ZN17llama_model_saver6add_kvE6llm_kvb, symObjAddr: 0x2A0, symBinAddr: 0x5B904, symSize: 0x98 }
  - { offset: 0x2E9A73, size: 0x8, addend: 0x0, symName: __ZN17llama_model_saver6add_kvE6llm_kvPKc, symObjAddr: 0x338, symBinAddr: 0x5B99C, symSize: 0x98 }
  - { offset: 0x2E9D9F, size: 0x8, addend: 0x0, symName: __ZN17llama_model_saver6add_kvE6llm_kvc, symObjAddr: 0x3D0, symBinAddr: 0x5BA34, symSize: 0x20 }
  - { offset: 0x2E9DDC, size: 0x8, addend: 0x0, symName: __ZN17llama_model_saver6add_kvE6llm_kvRKNSt3__16vectorINS1_12basic_stringIcNS1_11char_traitsIcEENS1_9allocatorIcEEEENS6_IS8_EEEE, symObjAddr: 0x3F0, symBinAddr: 0x5BA54, symSize: 0x168 }
  - { offset: 0x2EA0F1, size: 0x8, addend: 0x0, symName: __ZN17llama_model_saver6add_kvE6llm_kvRKNSt3__16vectorINS1_12basic_stringIcNS1_11char_traitsIcEENS1_9allocatorIcEEEENS6_IS8_EEEE, symObjAddr: 0x3F0, symBinAddr: 0x5BA54, symSize: 0x168 }
  - { offset: 0x2EA958, size: 0x8, addend: 0x0, symName: __ZNKSt3__16vectorIPKcNS_9allocatorIS2_EEE20__throw_length_errorB8ne180100Ev, symObjAddr: 0x2B1C, symBinAddr: 0x5E110, symSize: 0x14 }
  - { offset: 0x2EAC6D, size: 0x8, addend: 0x0, symName: __ZN17llama_model_saver10add_tensorEPK11ggml_tensor, symObjAddr: 0x558, symBinAddr: 0x5BBBC, symSize: 0x1B0 }
  - { offset: 0x2EB203, size: 0x8, addend: 0x0, symName: __ZN17llama_model_saver17add_kv_from_modelEv, symObjAddr: 0x708, symBinAddr: 0x5BD6C, symSize: 0x1CFC }
  - { offset: 0x2EBBB4, size: 0x8, addend: 0x0, symName: __ZN17llama_model_saver17add_kv_from_modelEv, symObjAddr: 0x708, symBinAddr: 0x5BD6C, symSize: 0x1CFC }
  - { offset: 0x2F6DBB, size: 0x8, addend: 0x0, symName: __ZNSt3__16vectorINS_12basic_stringIcNS_11char_traitsIcEENS_9allocatorIcEEEENS4_IS6_EEEC1Em, symObjAddr: 0x2404, symBinAddr: 0x5DA68, symSize: 0xC8 }
  - { offset: 0x2F705F, size: 0x8, addend: 0x0, symName: __ZN17llama_model_saver6add_kvINSt3__112basic_stringIcNS1_11char_traitsIcEENS1_9allocatorIcEEEEEEv6llm_kvRKT_b, symObjAddr: 0x24CC, symBinAddr: 0x5DB30, symSize: 0x14C }
  - { offset: 0x2F74F2, size: 0x8, addend: 0x0, symName: __ZN17llama_model_saver6add_kvINSt3__15arrayIjLm512EEEEEv6llm_kvRKT_b, symObjAddr: 0x2618, symBinAddr: 0x5DC7C, symSize: 0x13C }
  - { offset: 0x2F775D, size: 0x8, addend: 0x0, symName: __ZNSt3__16vectorINS_12basic_stringIcNS_11char_traitsIcEENS_9allocatorIcEEEENS4_IS6_EEEC1Em.cold.1, symObjAddr: 0x2BE0, symBinAddr: 0x1C93BC, symSize: 0x60 }
  - { offset: 0x2F7B96, size: 0x8, addend: 0x0, symName: __ZNSt3__16vectorINS_12basic_stringIcNS_11char_traitsIcEENS_9allocatorIcEEEENS4_IS6_EEEC1Em.cold.1, symObjAddr: 0x2BE0, symBinAddr: 0x1C93BC, symSize: 0x60 }
  - { offset: 0x2F7E55, size: 0x8, addend: 0x0, symName: __ZN17llama_model_saver22add_tensors_from_modelEv, symObjAddr: 0x27C4, symBinAddr: 0x5DDB8, symSize: 0x33C }
  - { offset: 0x2F8C55, size: 0x8, addend: 0x0, symName: __ZN17llama_model_saver4saveERKNSt3__112basic_stringIcNS0_11char_traitsIcEENS0_9allocatorIcEEEE, symObjAddr: 0x2B00, symBinAddr: 0x5E0F4, symSize: 0x1C }
  - { offset: 0x2FAC75, size: 0x8, addend: 0x0, symName: __ZL24LLAMA_ROPE_SCALING_TYPES, symObjAddr: 0x486AC0, symBinAddr: 0x293908, symSize: 0x0 }
  - { offset: 0x348519, size: 0x8, addend: 0x0, symName: __ZNSt3__125__throw_bad_function_callB8ne180100Ev, symObjAddr: 0x30004, symBinAddr: 0x85384, symSize: 0x34 }
  - { offset: 0x3495C4, size: 0x8, addend: 0x0, symName: __ZNSt3__111make_uniqueB8ne180100I14llm_build_phi3ILb1EEJRK11llama_modelRK16llm_graph_paramsRP11ggml_cgraphEEENS_11__unique_ifIT_E15__unique_singleEDpOT0_, symObjAddr: 0x20B80, symBinAddr: 0x7E914, symSize: 0x6C }
  - { offset: 0x34971C, size: 0x8, addend: 0x0, symName: __ZNSt3__111make_uniqueB8ne180100I18llm_build_nemotronJRK11llama_modelRK16llm_graph_paramsRP11ggml_cgraphEEENS_11__unique_ifIT_E15__unique_singleEDpOT0_, symObjAddr: 0x22BF4, symBinAddr: 0x80988, symSize: 0x6C }
  - { offset: 0x349874, size: 0x8, addend: 0x0, symName: __ZNSt3__111make_uniqueB8ne180100I15llm_build_olmo2JRK11llama_modelRK16llm_graph_paramsRP11ggml_cgraphEEENS_11__unique_ifIT_E15__unique_singleEDpOT0_, symObjAddr: 0x21E58, symBinAddr: 0x7FBEC, symSize: 0x6C }
  - { offset: 0x3499CC, size: 0x8, addend: 0x0, symName: __ZNSt3__111make_uniqueB8ne180100I18llm_build_deepseekJRK11llama_modelRK16llm_graph_paramsRP11ggml_cgraphEEENS_11__unique_ifIT_E15__unique_singleEDpOT0_, symObjAddr: 0x22394, symBinAddr: 0x80128, symSize: 0x6C }
  - { offset: 0x349B24, size: 0x8, addend: 0x0, symName: __ZNSt3__111make_uniqueB8ne180100I19llm_build_command_rJRK11llama_modelRK16llm_graph_paramsRP11ggml_cgraphEEENS_11__unique_ifIT_E15__unique_singleEDpOT0_, symObjAddr: 0x21A28, symBinAddr: 0x7F7BC, symSize: 0x6C }
  - { offset: 0x349C7C, size: 0x8, addend: 0x0, symName: __ZNSt3__111make_uniqueB8ne180100I19llm_build_deepseek2JRK11llama_modelRK16llm_graph_paramsRP11ggml_cgraphEEENS_11__unique_ifIT_E15__unique_singleEDpOT0_, symObjAddr: 0x224A0, symBinAddr: 0x80234, symSize: 0x6C }
  - { offset: 0x349DD4, size: 0x8, addend: 0x0, symName: __ZNSt3__111make_uniqueB8ne180100I15llm_build_rwkv6JRK11llama_modelRK16llm_graph_paramsRP11ggml_cgraphEEENS_11__unique_ifIT_E15__unique_singleEDpOT0_, symObjAddr: 0x22E0C, symBinAddr: 0x80BA0, symSize: 0x6C }
  - { offset: 0x349F2C, size: 0x8, addend: 0x0, symName: __ZNSt3__111make_uniqueB8ne180100I22llm_build_cohere2_iswaJRK11llama_modelRK16llm_graph_paramsRP11ggml_cgraphEEENS_11__unique_ifIT_E15__unique_singleEDpOT0_, symObjAddr: 0x21B34, symBinAddr: 0x7F8C8, symSize: 0x6C }
  - { offset: 0x34A084, size: 0x8, addend: 0x0, symName: __ZNSt3__111make_uniqueB8ne180100I15llm_build_rwkv7JRK11llama_modelRK16llm_graph_paramsRP11ggml_cgraphEEENS_11__unique_ifIT_E15__unique_singleEDpOT0_, symObjAddr: 0x23024, symBinAddr: 0x80DB8, symSize: 0x6C }
  - { offset: 0x34A1DC, size: 0x8, addend: 0x0, symName: __ZNSt3__111make_uniqueB8ne180100I13llm_build_plmJRK11llama_modelRK16llm_graph_paramsRP11ggml_cgraphEEENS_11__unique_ifIT_E15__unique_singleEDpOT0_, symObjAddr: 0x23454, symBinAddr: 0x811E8, symSize: 0x6C }
  - { offset: 0x34A334, size: 0x8, addend: 0x0, symName: __ZNSt3__111make_uniqueB8ne180100I26llm_build_wavtokenizer_decJRK11llama_modelRK16llm_graph_paramsRP11ggml_cgraphEEENS_11__unique_ifIT_E15__unique_singleEDpOT0_, symObjAddr: 0x23348, symBinAddr: 0x810DC, symSize: 0x6C }
  - { offset: 0x34A48C, size: 0x8, addend: 0x0, symName: __ZNSt3__111make_uniqueB8ne180100I19llm_build_codeshellJRK11llama_modelRK16llm_graph_paramsRP11ggml_cgraphEEENS_11__unique_ifIT_E15__unique_singleEDpOT0_, symObjAddr: 0x20FB0, symBinAddr: 0x7ED44, symSize: 0x6C }
  - { offset: 0x34A5E4, size: 0x8, addend: 0x0, symName: __ZNSt3__111make_uniqueB8ne180100I16llm_build_arwkv7JRK11llama_modelRK16llm_graph_paramsRP11ggml_cgraphEEENS_11__unique_ifIT_E15__unique_singleEDpOT0_, symObjAddr: 0x23130, symBinAddr: 0x80EC4, symSize: 0x6C }
  - { offset: 0x34A73C, size: 0x8, addend: 0x0, symName: __ZNSt3__111make_uniqueB8ne180100I20llm_build_bailingmoeJRK11llama_modelRK16llm_graph_paramsRP11ggml_cgraphEEENS_11__unique_ifIT_E15__unique_singleEDpOT0_, symObjAddr: 0x23560, symBinAddr: 0x812F4, symSize: 0x6C }
  - { offset: 0x34A894, size: 0x8, addend: 0x0, symName: __ZNSt3__111make_uniqueB8ne180100I19llm_build_chameleonJRK11llama_modelRK16llm_graph_paramsRP11ggml_cgraphEEENS_11__unique_ifIT_E15__unique_singleEDpOT0_, symObjAddr: 0x2323C, symBinAddr: 0x80FD0, symSize: 0x6C }
  - { offset: 0x34A9EC, size: 0x8, addend: 0x0, symName: __ZNSt3__111make_uniqueB8ne180100I15llm_build_olmoeJRK11llama_modelRK16llm_graph_paramsRP11ggml_cgraphEEENS_11__unique_ifIT_E15__unique_singleEDpOT0_, symObjAddr: 0x21F64, symBinAddr: 0x7FCF8, symSize: 0x6C }
  - { offset: 0x34AB44, size: 0x8, addend: 0x0, symName: __ZNSt3__111make_uniqueB8ne180100I14llm_build_qwenJRK11llama_modelRK16llm_graph_paramsRP11ggml_cgraphEEENS_11__unique_ifIT_E15__unique_singleEDpOT0_, symObjAddr: 0x2042C, symBinAddr: 0x7E1C0, symSize: 0x6C }
  - { offset: 0x34AC9C, size: 0x8, addend: 0x0, symName: __ZNSt3__111make_uniqueB8ne180100I16llm_build_xverseJRK11llama_modelRK16llm_graph_paramsRP11ggml_cgraphEEENS_11__unique_ifIT_E15__unique_singleEDpOT0_, symObjAddr: 0x2191C, symBinAddr: 0x7F6B0, symSize: 0x6C }
  - { offset: 0x34ADF4, size: 0x8, addend: 0x0, symName: __ZNSt3__111make_uniqueB8ne180100I14llm_build_dbrxJRK11llama_modelRK16llm_graph_paramsRP11ggml_cgraphEEENS_11__unique_ifIT_E15__unique_singleEDpOT0_, symObjAddr: 0x21C40, symBinAddr: 0x7F9D4, symSize: 0x6C }
  - { offset: 0x34AF4C, size: 0x8, addend: 0x0, symName: __ZNSt3__111make_uniqueB8ne180100I18llm_build_qwen3moeJRK11llama_modelRK16llm_graph_paramsRP11ggml_cgraphEEENS_11__unique_ifIT_E15__unique_singleEDpOT0_, symObjAddr: 0x20968, symBinAddr: 0x7E6FC, symSize: 0x6C }
  - { offset: 0x34B0A4, size: 0x8, addend: 0x0, symName: __ZNSt3__111make_uniqueB8ne180100I18llm_build_stablelmJRK11llama_modelRK16llm_graph_paramsRP11ggml_cgraphEEENS_11__unique_ifIT_E15__unique_singleEDpOT0_, symObjAddr: 0x20320, symBinAddr: 0x7E0B4, symSize: 0x6C }
  - { offset: 0x34B1FC, size: 0x8, addend: 0x0, symName: __ZNSt3__111make_uniqueB8ne180100I15llm_build_mambaJRK11llama_modelRK16llm_graph_paramsRP11ggml_cgraphEEENS_11__unique_ifIT_E15__unique_singleEDpOT0_, symObjAddr: 0x21810, symBinAddr: 0x7F5A4, symSize: 0x6C }
  - { offset: 0x34B354, size: 0x8, addend: 0x0, symName: __ZNSt3__111make_uniqueB8ne180100I17llm_build_gptneoxJRK11llama_modelRK16llm_graph_paramsRP11ggml_cgraphEEENS_11__unique_ifIT_E15__unique_singleEDpOT0_, symObjAddr: 0x2217C, symBinAddr: 0x7FF10, symSize: 0x6C }
  - { offset: 0x34B4AC, size: 0x8, addend: 0x0, symName: __ZNSt3__111make_uniqueB8ne180100I16llm_build_exaoneJRK11llama_modelRK16llm_graph_paramsRP11ggml_cgraphEEENS_11__unique_ifIT_E15__unique_singleEDpOT0_, symObjAddr: 0x22D00, symBinAddr: 0x80A94, symSize: 0x6C }
  - { offset: 0x34B604, size: 0x8, addend: 0x0, symName: __ZNSt3__111make_uniqueB8ne180100I20llm_build_rwkv6qwen2JRK11llama_modelRK16llm_graph_paramsRP11ggml_cgraphEEENS_11__unique_ifIT_E15__unique_singleEDpOT0_, symObjAddr: 0x22F18, symBinAddr: 0x80CAC, symSize: 0x6C }
  - { offset: 0x34B75C, size: 0x8, addend: 0x0, symName: __ZNSt3__111make_uniqueB8ne180100I15llm_build_bloomJRK11llama_modelRK16llm_graph_paramsRP11ggml_cgraphEEENS_11__unique_ifIT_E15__unique_singleEDpOT0_, symObjAddr: 0x20108, symBinAddr: 0x7DE9C, symSize: 0x6C }
  - { offset: 0x34B8B4, size: 0x8, addend: 0x0, symName: __ZNSt3__111make_uniqueB8ne180100I15llm_build_qwen2JRK11llama_modelRK16llm_graph_paramsRP11ggml_cgraphEEENS_11__unique_ifIT_E15__unique_singleEDpOT0_, symObjAddr: 0x20538, symBinAddr: 0x7E2CC, symSize: 0x6C }
  - { offset: 0x34BA0C, size: 0x8, addend: 0x0, symName: __ZNSt3__111make_uniqueB8ne180100I19llm_build_starcoderJRK11llama_modelRK16llm_graph_paramsRP11ggml_cgraphEEENS_11__unique_ifIT_E15__unique_singleEDpOT0_, symObjAddr: 0x1FEF0, symBinAddr: 0x7DC84, symSize: 0x6C }
  - { offset: 0x34BB64, size: 0x8, addend: 0x0, symName: __ZNSt3__111make_uniqueB8ne180100I14llm_build_phi2JRK11llama_modelRK16llm_graph_paramsRP11ggml_cgraphEEENS_11__unique_ifIT_E15__unique_singleEDpOT0_, symObjAddr: 0x20A74, symBinAddr: 0x7E808, symSize: 0x6C }
  - { offset: 0x34BCBC, size: 0x8, addend: 0x0, symName: __ZNSt3__111make_uniqueB8ne180100I14llm_build_grokJRK11llama_modelRK16llm_graph_paramsRP11ggml_cgraphEEENS_11__unique_ifIT_E15__unique_singleEDpOT0_, symObjAddr: 0x1FDE4, symBinAddr: 0x7DB78, symSize: 0x6C }
  - { offset: 0x34BE14, size: 0x8, addend: 0x0, symName: __ZNSt3__111make_uniqueB8ne180100I14llm_build_deciJRK11llama_modelRK16llm_graph_paramsRP11ggml_cgraphEEENS_11__unique_ifIT_E15__unique_singleEDpOT0_, symObjAddr: 0x1FAC0, symBinAddr: 0x7D854, symSize: 0x6C }
  - { offset: 0x34BF6C, size: 0x8, addend: 0x0, symName: __ZNSt3__111make_uniqueB8ne180100I16llm_build_refactJRK11llama_modelRK16llm_graph_paramsRP11ggml_cgraphEEENS_11__unique_ifIT_E15__unique_singleEDpOT0_, symObjAddr: 0x1FFFC, symBinAddr: 0x7DD90, symSize: 0x6C }
  - { offset: 0x34C0C4, size: 0x8, addend: 0x0, symName: __ZNSt3__111make_uniqueB8ne180100I20llm_build_llama_iswaJRK11llama_modelRK16llm_graph_paramsRP11ggml_cgraphEEENS_11__unique_ifIT_E15__unique_singleEDpOT0_, symObjAddr: 0x1F9B4, symBinAddr: 0x7D748, symSize: 0x6C }
  - { offset: 0x34C21C, size: 0x8, addend: 0x0, symName: __ZNSt3__111make_uniqueB8ne180100I13llm_build_mptJRK11llama_modelRK16llm_graph_paramsRP11ggml_cgraphEEENS_11__unique_ifIT_E15__unique_singleEDpOT0_, symObjAddr: 0x20214, symBinAddr: 0x7DFA8, symSize: 0x6C }
  - { offset: 0x34C374, size: 0x8, addend: 0x0, symName: __ZNSt3__111make_uniqueB8ne180100I18llm_build_baichuanJRK11llama_modelRK16llm_graph_paramsRP11ggml_cgraphEEENS_11__unique_ifIT_E15__unique_singleEDpOT0_, symObjAddr: 0x1FBCC, symBinAddr: 0x7D960, symSize: 0x6C }
  - { offset: 0x34C4CC, size: 0x8, addend: 0x0, symName: __ZNSt3__111make_uniqueB8ne180100I14llm_build_gpt2JRK11llama_modelRK16llm_graph_paramsRP11ggml_cgraphEEENS_11__unique_ifIT_E15__unique_singleEDpOT0_, symObjAddr: 0x20EA4, symBinAddr: 0x7EC38, symSize: 0x6C }
  - { offset: 0x34C624, size: 0x8, addend: 0x0, symName: __ZNSt3__111make_uniqueB8ne180100I16llm_build_falconJRK11llama_modelRK16llm_graph_paramsRP11ggml_cgraphEEENS_11__unique_ifIT_E15__unique_singleEDpOT0_, symObjAddr: 0x1FCD8, symBinAddr: 0x7DA6C, symSize: 0x6C }
  - { offset: 0x34C77C, size: 0x8, addend: 0x0, symName: __ZNSt3__111make_uniqueB8ne180100I15llm_build_llamaJRK11llama_modelRK16llm_graph_paramsRP11ggml_cgraphEEENS_11__unique_ifIT_E15__unique_singleEDpOT0_, symObjAddr: 0x1F8A8, symBinAddr: 0x7D63C, symSize: 0x6C }
  - { offset: 0x34C8D4, size: 0x8, addend: 0x0, symName: __ZNSt3__111make_uniqueB8ne180100I16llm_build_t5_encJRK11llama_modelRK16llm_graph_paramsRP11ggml_cgraphEEENS_11__unique_ifIT_E15__unique_singleEDpOT0_, symObjAddr: 0x228D0, symBinAddr: 0x80664, symSize: 0x6C }
  - { offset: 0x34CA2C, size: 0x8, addend: 0x0, symName: __ZNSt3__111make_uniqueB8ne180100I21llm_build_gemma2_iswaJRK11llama_modelRK16llm_graph_paramsRP11ggml_cgraphEEENS_11__unique_ifIT_E15__unique_singleEDpOT0_, symObjAddr: 0x214EC, symBinAddr: 0x7F280, symSize: 0x6C }
  - { offset: 0x34CB84, size: 0x8, addend: 0x0, symName: __ZNSt3__111make_uniqueB8ne180100I14llm_build_jaisJRK11llama_modelRK16llm_graph_paramsRP11ggml_cgraphEEENS_11__unique_ifIT_E15__unique_singleEDpOT0_, symObjAddr: 0x22AE8, symBinAddr: 0x8087C, symSize: 0x6C }
  - { offset: 0x34CCDC, size: 0x8, addend: 0x0, symName: __ZNSt3__111make_uniqueB8ne180100I15llm_build_gemmaJRK11llama_modelRK16llm_graph_paramsRP11ggml_cgraphEEENS_11__unique_ifIT_E15__unique_singleEDpOT0_, symObjAddr: 0x213E0, symBinAddr: 0x7F174, symSize: 0x6C }
  - { offset: 0x34CE34, size: 0x8, addend: 0x0, symName: __ZNSt3__111make_uniqueB8ne180100I17llm_build_qwen2vlJRK11llama_modelRK16llm_graph_paramsRP11ggml_cgraphEEENS_11__unique_ifIT_E15__unique_singleEDpOT0_, symObjAddr: 0x20644, symBinAddr: 0x7E3D8, symSize: 0x6C }
  - { offset: 0x34CF8C, size: 0x8, addend: 0x0, symName: __ZNSt3__111make_uniqueB8ne180100I21llm_build_gemma3_iswaJRK11llama_modelRK16llm_graph_paramsRP11ggml_cgraphEEENS_11__unique_ifIT_E15__unique_singleEDpOT0_, symObjAddr: 0x215F8, symBinAddr: 0x7F38C, symSize: 0x6C }
  - { offset: 0x34D0E4, size: 0x8, addend: 0x0, symName: __ZNSt3__111make_uniqueB8ne180100I20llm_build_starcoder2JRK11llama_modelRK16llm_graph_paramsRP11ggml_cgraphEEENS_11__unique_ifIT_E15__unique_singleEDpOT0_, symObjAddr: 0x21704, symBinAddr: 0x7F498, symSize: 0x6C }
  - { offset: 0x34D23C, size: 0x8, addend: 0x0, symName: __ZNSt3__111make_uniqueB8ne180100I17llm_build_openelmJRK11llama_modelRK16llm_graph_paramsRP11ggml_cgraphEEENS_11__unique_ifIT_E15__unique_singleEDpOT0_, symObjAddr: 0x22070, symBinAddr: 0x7FE04, symSize: 0x6C }
  - { offset: 0x34D394, size: 0x8, addend: 0x0, symName: __ZNSt3__111make_uniqueB8ne180100I18llm_build_qwen2moeJRK11llama_modelRK16llm_graph_paramsRP11ggml_cgraphEEENS_11__unique_ifIT_E15__unique_singleEDpOT0_, symObjAddr: 0x20750, symBinAddr: 0x7E4E4, symSize: 0x6C }
  - { offset: 0x34D4EC, size: 0x8, addend: 0x0, symName: __ZNSt3__111make_uniqueB8ne180100I18llm_build_minicpm3JRK11llama_modelRK16llm_graph_paramsRP11ggml_cgraphEEENS_11__unique_ifIT_E15__unique_singleEDpOT0_, symObjAddr: 0x212D4, symBinAddr: 0x7F068, symSize: 0x6C }
  - { offset: 0x34D644, size: 0x8, addend: 0x0, symName: __ZNSt3__111make_uniqueB8ne180100I16llm_build_bitnetJRK11llama_modelRK16llm_graph_paramsRP11ggml_cgraphEEENS_11__unique_ifIT_E15__unique_singleEDpOT0_, symObjAddr: 0x227C4, symBinAddr: 0x80558, symSize: 0x6C }
  - { offset: 0x34D79C, size: 0x8, addend: 0x0, symName: __ZNSt3__111make_uniqueB8ne180100I14llm_build_olmoJRK11llama_modelRK16llm_graph_paramsRP11ggml_cgraphEEENS_11__unique_ifIT_E15__unique_singleEDpOT0_, symObjAddr: 0x21D4C, symBinAddr: 0x7FAE0, symSize: 0x6C }
  - { offset: 0x34D8F4, size: 0x8, addend: 0x0, symName: __ZNSt3__111make_uniqueB8ne180100I15llm_build_qwen3JRK11llama_modelRK16llm_graph_paramsRP11ggml_cgraphEEENS_11__unique_ifIT_E15__unique_singleEDpOT0_, symObjAddr: 0x2085C, symBinAddr: 0x7E5F0, symSize: 0x6C }
  - { offset: 0x34DA4C, size: 0x8, addend: 0x0, symName: __ZNSt3__111make_uniqueB8ne180100I15llm_build_plamoJRK11llama_modelRK16llm_graph_paramsRP11ggml_cgraphEEENS_11__unique_ifIT_E15__unique_singleEDpOT0_, symObjAddr: 0x20D98, symBinAddr: 0x7EB2C, symSize: 0x6C }
  - { offset: 0x34DBA4, size: 0x8, addend: 0x0, symName: __ZNSt3__111make_uniqueB8ne180100I14llm_build_glm4JRK11llama_modelRK16llm_graph_paramsRP11ggml_cgraphEEENS_11__unique_ifIT_E15__unique_singleEDpOT0_, symObjAddr: 0x226B8, symBinAddr: 0x8044C, symSize: 0x6C }
  - { offset: 0x34DCFC, size: 0x8, addend: 0x0, symName: __ZNSt3__111make_uniqueB8ne180100I15llm_build_orionJRK11llama_modelRK16llm_graph_paramsRP11ggml_cgraphEEENS_11__unique_ifIT_E15__unique_singleEDpOT0_, symObjAddr: 0x210BC, symBinAddr: 0x7EE50, symSize: 0x6C }
  - { offset: 0x34DE54, size: 0x8, addend: 0x0, symName: __ZNSt3__111make_uniqueB8ne180100I17llm_build_chatglmJRK11llama_modelRK16llm_graph_paramsRP11ggml_cgraphEEENS_11__unique_ifIT_E15__unique_singleEDpOT0_, symObjAddr: 0x225AC, symBinAddr: 0x80340, symSize: 0x6C }
  - { offset: 0x34DFAC, size: 0x8, addend: 0x0, symName: __ZNSt3__111make_uniqueB8ne180100I19llm_build_internlm2JRK11llama_modelRK16llm_graph_paramsRP11ggml_cgraphEEENS_11__unique_ifIT_E15__unique_singleEDpOT0_, symObjAddr: 0x211C8, symBinAddr: 0x7EF5C, symSize: 0x6C }
  - { offset: 0x34E104, size: 0x8, addend: 0x0, symName: __ZNSt3__111make_uniqueB8ne180100I16llm_build_arcticJRK11llama_modelRK16llm_graph_paramsRP11ggml_cgraphEEENS_11__unique_ifIT_E15__unique_singleEDpOT0_, symObjAddr: 0x22288, symBinAddr: 0x8001C, symSize: 0x6C }
  - { offset: 0x34E25C, size: 0x8, addend: 0x0, symName: __ZNSt3__111make_uniqueB8ne180100I14llm_build_phi3ILb0EEJRK11llama_modelRK16llm_graph_paramsRP11ggml_cgraphEEENS_11__unique_ifIT_E15__unique_singleEDpOT0_, symObjAddr: 0x20C8C, symBinAddr: 0x7EA20, symSize: 0x6C }
  - { offset: 0x34E3B4, size: 0x8, addend: 0x0, symName: __ZNSt3__111make_uniqueB8ne180100I16llm_build_t5_decJRK11llama_modelRK16llm_graph_paramsRP11ggml_cgraphEEENS_11__unique_ifIT_E15__unique_singleEDpOT0_, symObjAddr: 0x229DC, symBinAddr: 0x80770, symSize: 0x6C }
  - { offset: 0x35B97D, size: 0x8, addend: 0x0, symName: __ZNK11llama_model10print_infoEv, symObjAddr: 0x1CDE0, symBinAddr: 0x7AB74, symSize: 0xF24 }
  - { offset: 0x364C35, size: 0x8, addend: 0x0, symName: __Z13llm_type_name8llm_type, symObjAddr: 0x0, symBinAddr: 0x5E124, symSize: 0x28 }
  - { offset: 0x364CD5, size: 0x8, addend: 0x0, symName: __ZNSt3__13mapI23llama_rope_scaling_typePKcNS_4lessIS1_EENS_9allocatorINS_4pairIKS1_S3_EEEEED1B8ne180100Ev, symObjAddr: 0x28, symBinAddr: 0x5E14C, symSize: 0x28 }
  - { offset: 0x364D89, size: 0x8, addend: 0x0, symName: __ZNSt3__16__treeINS_12__value_typeI23llama_rope_scaling_typePKcEENS_19__map_value_compareIS2_S5_NS_4lessIS2_EELb1EEENS_9allocatorIS5_EEE7destroyEPNS_11__tree_nodeIS5_PvEE, symObjAddr: 0x305F8, symBinAddr: 0x85670, symSize: 0x40 }
  - { offset: 0x365222, size: 0x8, addend: 0x0, symName: __Z28llama_rope_scaling_type_name23llama_rope_scaling_type, symObjAddr: 0x50, symBinAddr: 0x5E174, symSize: 0xEC }
  - { offset: 0x3656A0, size: 0x8, addend: 0x0, symName: __ZN11llama_modelC2ERK18llama_model_params, symObjAddr: 0x13C, symBinAddr: 0x5E260, symSize: 0x238 }
  - { offset: 0x365E27, size: 0x8, addend: 0x0, symName: __ZN11llama_modelC2ERK18llama_model_params, symObjAddr: 0x13C, symBinAddr: 0x5E260, symSize: 0x238 }
  - { offset: 0x366779, size: 0x8, addend: 0x0, symName: __ZNSt3__16vectorINS_4pairINS_12basic_stringIcNS_11char_traitsIcEENS_9allocatorIcEEEEP11ggml_tensorEENS5_ISA_EEED1B8ne180100Ev, symObjAddr: 0x374, symBinAddr: 0x5E498, symSize: 0x70 }
  - { offset: 0x366A19, size: 0x8, addend: 0x0, symName: __ZNSt3__113unordered_mapINS_12basic_stringIcNS_11char_traitsIcEENS_9allocatorIcEEEES6_NS_4hashIS6_EENS_8equal_toIS6_EENS4_INS_4pairIKS6_S6_EEEEED1B8ne180100Ev, symObjAddr: 0x3E4, symBinAddr: 0x5E508, symSize: 0x84 }
  - { offset: 0x3675A6, size: 0x8, addend: 0x0, symName: __ZN11llama_modelC1ERK18llama_model_params, symObjAddr: 0x4D8, symBinAddr: 0x5E58C, symSize: 0x4 }
  - { offset: 0x3675E4, size: 0x8, addend: 0x0, symName: __ZN11llama_modelC1ERK18llama_model_params, symObjAddr: 0x4D8, symBinAddr: 0x5E58C, symSize: 0x4 }
  - { offset: 0x3676EE, size: 0x8, addend: 0x0, symName: __ZN11llama_modelD2Ev, symObjAddr: 0x4DC, symBinAddr: 0x5E590, symSize: 0x178 }
  - { offset: 0x3685B2, size: 0x8, addend: 0x0, symName: __ZN11llama_model4implD2Ev, symObjAddr: 0x30638, symBinAddr: 0x856B0, symSize: 0x1E0 }
  - { offset: 0x3693D1, size: 0x8, addend: 0x0, symName: __ZN11llama_modelD1Ev, symObjAddr: 0x654, symBinAddr: 0x5E708, symSize: 0x4 }
  - { offset: 0x3693F4, size: 0x8, addend: 0x0, symName: __ZN11llama_modelD1Ev, symObjAddr: 0x654, symBinAddr: 0x5E708, symSize: 0x4 }
  - { offset: 0x369422, size: 0x8, addend: 0x0, symName: __ZN11llama_model10load_statsER18llama_model_loader, symObjAddr: 0x658, symBinAddr: 0x5E70C, symSize: 0x10 }
  - { offset: 0x36945B, size: 0x8, addend: 0x0, symName: __ZN11llama_model10load_statsER18llama_model_loader, symObjAddr: 0x658, symBinAddr: 0x5E70C, symSize: 0x10 }
  - { offset: 0x3694CA, size: 0x8, addend: 0x0, symName: __ZN11llama_model9load_archER18llama_model_loader, symObjAddr: 0x668, symBinAddr: 0x5E71C, symSize: 0x174 }
  - { offset: 0x36A1B4, size: 0x8, addend: 0x0, symName: __ZN11llama_model12load_hparamsER18llama_model_loader, symObjAddr: 0x7DC, symBinAddr: 0x5E890, symSize: 0x2918 }
  - { offset: 0x36D3C6, size: 0x8, addend: 0x0, symName: __ZNSt3__14pairIKNS_12basic_stringIcNS_11char_traitsIcEENS_9allocatorIcEEEES6_EC2B8ne180100IRPKcRS7_Li0EEEOT_OT0_, symObjAddr: 0x308D0, symBinAddr: 0x85948, symSize: 0x118 }
  - { offset: 0x36DF6C, size: 0x8, addend: 0x0, symName: __ZNSt3__112__hash_tableINS_17__hash_value_typeINS_12basic_stringIcNS_11char_traitsIcEENS_9allocatorIcEEEES7_EENS_22__unordered_map_hasherIS7_S8_NS_4hashIS7_EENS_8equal_toIS7_EELb1EEENS_21__unordered_map_equalIS7_S8_SD_SB_Lb1EEENS5_IS8_EEE28__node_insert_unique_prepareB8ne180100EmRS8_, symObjAddr: 0x30E34, symBinAddr: 0x85A60, symSize: 0x2E0 }
  - { offset: 0x36E2FB, size: 0x8, addend: 0x0, symName: _llama_model_rope_type, symObjAddr: 0x325C, symBinAddr: 0x61310, symSize: 0x6C }
  - { offset: 0x36E32A, size: 0x8, addend: 0x0, symName: __ZN11llama_model10load_vocabER18llama_model_loader, symObjAddr: 0x32C8, symBinAddr: 0x6137C, symSize: 0x4C }
  - { offset: 0x36E37B, size: 0x8, addend: 0x0, symName: __ZNSt3__110unique_ptrINS_11__hash_nodeINS_17__hash_value_typeINS_12basic_stringIcNS_11char_traitsIcEENS_9allocatorIcEEEES8_EEPvEENS_22__hash_node_destructorINS6_ISB_EEEEED1B8ne180100Ev, symObjAddr: 0x30868, symBinAddr: 0x858E0, symSize: 0x68 }
  - { offset: 0x36E746, size: 0x8, addend: 0x0, symName: __ZNK11llama_model9arch_nameEv, symObjAddr: 0x30F4, symBinAddr: 0x611A8, symSize: 0xB4 }
  - { offset: 0x36EAFA, size: 0x8, addend: 0x0, symName: __ZNK11llama_model9type_nameEv, symObjAddr: 0x31A8, symBinAddr: 0x6125C, symSize: 0xB4 }
  - { offset: 0x36EB0C, size: 0x8, addend: 0x0, symName: __ZNK11llama_model9type_nameEv, symObjAddr: 0x31A8, symBinAddr: 0x6125C, symSize: 0xB4 }
  - { offset: 0x36EEC0, size: 0x8, addend: 0x0, symName: _llama_model_rope_type, symObjAddr: 0x325C, symBinAddr: 0x61310, symSize: 0x6C }
  - { offset: 0x36EED2, size: 0x8, addend: 0x0, symName: __ZN11llama_model10load_vocabER18llama_model_loader, symObjAddr: 0x32C8, symBinAddr: 0x6137C, symSize: 0x4C }
  - { offset: 0x36FED7, size: 0x8, addend: 0x0, symName: __ZN11llama_model12load_tensorsER18llama_model_loader, symObjAddr: 0x3314, symBinAddr: 0x613C8, symSize: 0x18220 }
  - { offset: 0x394019, size: 0x8, addend: 0x0, symName: __ZNSt3__16vectorINS_4pairIP19ggml_backend_deviceP24ggml_backend_buffer_typeEENS_9allocatorIS6_EEE18__insert_with_sizeB8ne180100INS_11__wrap_iterIPS6_EESD_EESD_NSB_IPKS6_EET_T0_l, symObjAddr: 0x3134C, symBinAddr: 0x85EEC, symSize: 0x390 }
  - { offset: 0x394AAD, size: 0x8, addend: 0x0, symName: __ZNSt3__16vectorIN11llama_model4impl9layer_devENS_9allocatorIS3_EEE8__appendEm, symObjAddr: 0x316F0, symBinAddr: 0x8627C, symSize: 0x128 }
  - { offset: 0x394F70, size: 0x8, addend: 0x0, symName: __ZNKSt3__16vectorIN11llama_model4impl9layer_devENS_9allocatorIS3_EEE20__throw_length_errorB8ne180100Ev, symObjAddr: 0x31818, symBinAddr: 0x863A4, symSize: 0x14 }
  - { offset: 0x394F8A, size: 0x8, addend: 0x0, symName: '__ZZN11llama_model12load_tensorsER18llama_model_loaderENK3$_1clEi', symObjAddr: 0x1B548, symBinAddr: 0x795FC, symSize: 0x1C4 }
  - { offset: 0x39531F, size: 0x8, addend: 0x0, symName: '__ZZN11llama_model12load_tensorsER18llama_model_loaderENK3$_3clERK11LLM_TN_IMPLRKSt16initializer_listIxEi', symObjAddr: 0x1B70C, symBinAddr: 0x797C0, symSize: 0x10FC }
  - { offset: 0x395337, size: 0x8, addend: 0x0, symName: __ZNSt3__16vectorI11llama_layerNS_9allocatorIS1_EEE8__appendEm, symObjAddr: 0x31880, symBinAddr: 0x863CC, symSize: 0x1CC }
  - { offset: 0x395860, size: 0x8, addend: 0x0, symName: __ZNKSt3__16vectorI11llama_layerNS_9allocatorIS1_EEE20__throw_length_errorB8ne180100Ev, symObjAddr: 0x31A4C, symBinAddr: 0x86598, symSize: 0x14 }
  - { offset: 0x395893, size: 0x8, addend: 0x0, symName: '__ZZN11llama_model12load_tensorsER18llama_model_loaderENK3$_3clERK11LLM_TN_IMPLRKSt16initializer_listIxEi', symObjAddr: 0x1B70C, symBinAddr: 0x797C0, symSize: 0x10FC }
  - { offset: 0x398A5F, size: 0x8, addend: 0x0, symName: __ZNSt3__16vectorINS_4pairIP12ggml_contextNS_13unordered_mapIjP19ggml_backend_bufferNS_4hashIjEENS_8equal_toIjEENS_9allocatorINS1_IKjS6_EEEEEEEENSB_ISG_EEE7reserveEm, symObjAddr: 0x1C9A0, symBinAddr: 0x7A8BC, symSize: 0x190 }
  - { offset: 0x398A70, size: 0x8, addend: 0x0, symName: __ZNSt3__16vectorINS_4pairIP12ggml_contextNS_13unordered_mapIjP19ggml_backend_bufferNS_4hashIjEENS_8equal_toIjEENS_9allocatorINS1_IKjS6_EEEEEEEENSB_ISG_EEE7reserveEm, symObjAddr: 0x1C9A0, symBinAddr: 0x7A8BC, symSize: 0x190 }
  - { offset: 0x39964B, size: 0x8, addend: 0x0, symName: __ZNSt3__112__hash_tableINS_17__hash_value_typeIjP19ggml_backend_bufferEENS_22__unordered_map_hasherIjS4_NS_4hashIjEENS_8equal_toIjEELb1EEENS_21__unordered_map_equalIjS4_S9_S7_Lb1EEENS_9allocatorIS4_EEE11__do_rehashILb1EEEvm, symObjAddr: 0x31B60, symBinAddr: 0x86684, symSize: 0x1AC }
  - { offset: 0x399AE7, size: 0x8, addend: 0x0, symName: __ZNSt3__112__hash_tableINS_17__hash_value_typeIjP19ggml_backend_bufferEENS_22__unordered_map_hasherIjS4_NS_4hashIjEENS_8equal_toIjEELb1EEENS_21__unordered_map_equalIjS4_S9_S7_Lb1EEENS_9allocatorIS4_EEE25__emplace_unique_key_argsIjJRjRS3_EEENS_4pairINS_15__hash_iteratorIPNS_11__hash_nodeIS4_PvEEEEbEERKT_DpOT0_, symObjAddr: 0x31EC8, symBinAddr: 0x86830, symSize: 0x300 }
  - { offset: 0x39A67C, size: 0x8, addend: 0x0, symName: __ZNSt3__16vectorINS_10unique_ptrI11llama_mlockNS_14default_deleteIS2_EEEENS_9allocatorIS5_EEE24__emplace_back_slow_pathIJPS2_EEEPS5_DpOT_, symObjAddr: 0x321C8, symBinAddr: 0x86B30, symSize: 0x1BC }
  - { offset: 0x39AC92, size: 0x8, addend: 0x0, symName: __ZNSt3__113unordered_mapIjP19ggml_backend_bufferNS_4hashIjEENS_8equal_toIjEENS_9allocatorINS_4pairIKjS2_EEEEEC2ERKSC_, symObjAddr: 0x325D0, symBinAddr: 0x86F24, symSize: 0x140 }
  - { offset: 0x39B08A, size: 0x8, addend: 0x0, symName: __ZNSt3__16vectorINS_4pairIP12ggml_contextNS_13unordered_mapIjP19ggml_backend_bufferNS_4hashIjEENS_8equal_toIjEENS_9allocatorINS1_IKjS6_EEEEEEEENSB_ISG_EEE24__emplace_back_slow_pathIJRS3_RSF_EEEPSG_DpOT_, symObjAddr: 0x32398, symBinAddr: 0x86CEC, symSize: 0x238 }
  - { offset: 0x39BD08, size: 0x8, addend: 0x0, symName: __ZNSt3__16vectorINS_4pairINS_12basic_stringIcNS_11char_traitsIcEENS_9allocatorIcEEEEP11ggml_tensorEENS5_ISA_EEE24__emplace_back_slow_pathIJPKcRS9_EEEPSA_DpOT_, symObjAddr: 0x32A10, symBinAddr: 0x87364, symSize: 0x218 }
  - { offset: 0x39CB61, size: 0x8, addend: 0x0, symName: '__ZNSt3__110__function6__funcIZNK11llama_model10print_infoEvE3$_1NS_9allocatorIS3_EEFjjEED1Ev', symObjAddr: 0x32E5C, symBinAddr: 0x875F4, symSize: 0x4 }
  - { offset: 0x39CC68, size: 0x8, addend: 0x0, symName: __ZNSt3__112__hash_tableINS_17__hash_value_typeIjP19ggml_backend_bufferEENS_22__unordered_map_hasherIjS4_NS_4hashIjEENS_8equal_toIjEELb1EEENS_21__unordered_map_equalIjS4_S9_S7_Lb1EEENS_9allocatorIS4_EEED1Ev, symObjAddr: 0x31B18, symBinAddr: 0x8663C, symSize: 0x48 }
  - { offset: 0x39CC73, size: 0x8, addend: 0x0, symName: __ZNKSt3__16vectorINS_4pairIP19ggml_backend_deviceP24ggml_backend_buffer_typeEENS_9allocatorIS6_EEE20__throw_length_errorB8ne180100Ev, symObjAddr: 0x23D08, symBinAddr: 0x81A14, symSize: 0x14 }
  - { offset: 0x39CCC0, size: 0x8, addend: 0x0, symName: __ZNSt3__16vectorIN11llama_model4impl9layer_devENS_9allocatorIS3_EEE8__appendEm, symObjAddr: 0x316F0, symBinAddr: 0x8627C, symSize: 0x128 }
  - { offset: 0x39CCCB, size: 0x8, addend: 0x0, symName: __ZNSt3__113unordered_mapIjP19ggml_backend_bufferNS_4hashIjEENS_8equal_toIjEENS_9allocatorINS_4pairIKjS2_EEEEED1B8ne180100Ev, symObjAddr: 0x1CCB8, symBinAddr: 0x7AA4C, symSize: 0x48 }
  - { offset: 0x39CFA0, size: 0x8, addend: 0x0, symName: __ZNSt3__16vectorINS_4pairIP12ggml_contextNS_13unordered_mapIjP19ggml_backend_bufferNS_4hashIjEENS_8equal_toIjEENS_9allocatorINS1_IKjS6_EEEEEEEENSB_ISG_EEED1B8ne180100Ev, symObjAddr: 0x1CD00, symBinAddr: 0x7AA94, symSize: 0x88 }
  - { offset: 0x39D42B, size: 0x8, addend: 0x0, symName: __ZNK11llama_model9n_devicesEv, symObjAddr: 0x1B534, symBinAddr: 0x795E8, symSize: 0x14 }
  - { offset: 0x39D44F, size: 0x8, addend: 0x0, symName: __ZNK11llama_model9n_devicesEv, symObjAddr: 0x1B534, symBinAddr: 0x795E8, symSize: 0x14 }
  - { offset: 0x39D589, size: 0x8, addend: 0x0, symName: __ZNKSt3__16vectorIP19ggml_backend_deviceNS_9allocatorIS2_EEE20__throw_out_of_rangeB8ne180100Ev, symObjAddr: 0x23DB8, symBinAddr: 0x81A28, symSize: 0x14 }
  - { offset: 0x39E559, size: 0x8, addend: 0x0, symName: __ZNSt3__111basic_regexIcNS_12regex_traitsIcEEE7__parseIPKcEET_S7_S7_, symObjAddr: 0x23E8C, symBinAddr: 0x81A3C, symSize: 0x35C }
  - { offset: 0x39F8A1, size: 0x8, addend: 0x0, symName: __ZNKSt3__16vectorIN11llama_model4impl9layer_devENS_9allocatorIS3_EEE20__throw_out_of_rangeB8ne180100Ev, symObjAddr: 0x3186C, symBinAddr: 0x863B8, symSize: 0x14 }
  - { offset: 0x39F8CB, size: 0x8, addend: 0x0, symName: __ZNSt3__16vectorI11llama_layerNS_9allocatorIS1_EEE8__appendEm, symObjAddr: 0x31880, symBinAddr: 0x863CC, symSize: 0x1CC }
  - { offset: 0x39FD0B, size: 0x8, addend: 0x0, symName: __ZNKSt3__16vectorINS_4pairIP12ggml_contextNS_13unordered_mapIjP19ggml_backend_bufferNS_4hashIjEENS_8equal_toIjEENS_9allocatorINS1_IKjS6_EEEEEEEENSB_ISG_EEE20__throw_length_errorB8ne180100Ev, symObjAddr: 0x31A74, symBinAddr: 0x865AC, symSize: 0x14 }
  - { offset: 0x3A01FF, size: 0x8, addend: 0x0, symName: __ZNKSt3__16vectorINS_4pairIP12ggml_contextNS_13unordered_mapIjP19ggml_backend_bufferNS_4hashIjEENS_8equal_toIjEENS_9allocatorINS1_IKjS6_EEEEEEEENSB_ISG_EEE20__throw_length_errorB8ne180100Ev, symObjAddr: 0x31A74, symBinAddr: 0x865AC, symSize: 0x14 }
  - { offset: 0x3A0229, size: 0x8, addend: 0x0, symName: __ZNSt3__114__split_bufferINS_4pairIP12ggml_contextNS_13unordered_mapIjP19ggml_backend_bufferNS_4hashIjEENS_8equal_toIjEENS_9allocatorINS1_IKjS6_EEEEEEEERNSB_ISG_EEED1Ev, symObjAddr: 0x31A88, symBinAddr: 0x865C0, symSize: 0x7C }
  - { offset: 0x3A0296, size: 0x8, addend: 0x0, symName: __ZNK11llama_model4descEv, symObjAddr: 0x1CD88, symBinAddr: 0x7AB1C, symSize: 0x2C }
  - { offset: 0x3A02BA, size: 0x8, addend: 0x0, symName: __ZNK11llama_model4descEv, symObjAddr: 0x1CD88, symBinAddr: 0x7AB1C, symSize: 0x2C }
  - { offset: 0x3A0553, size: 0x8, addend: 0x0, symName: __ZNSt3__16vectorINS_4pairIP19ggml_backend_deviceP24ggml_backend_buffer_typeEENS_9allocatorIS6_EEE18__insert_with_sizeB8ne180100INS_11__wrap_iterIPS6_EESD_EESD_NSB_IPKS6_EET_T0_l, symObjAddr: 0x3134C, symBinAddr: 0x85EEC, symSize: 0x390 }
  - { offset: 0x3A0564, size: 0x8, addend: 0x0, symName: __ZNK11llama_model4sizeEv, symObjAddr: 0x1CDB4, symBinAddr: 0x7AB48, symSize: 0xC }
  - { offset: 0x3A0588, size: 0x8, addend: 0x0, symName: __ZNK11llama_model4sizeEv, symObjAddr: 0x1CDB4, symBinAddr: 0x7AB48, symSize: 0xC }
  - { offset: 0x3A05C1, size: 0x8, addend: 0x0, symName: __ZNK11llama_model9n_tensorsEv, symObjAddr: 0x1CDC0, symBinAddr: 0x7AB54, symSize: 0x14 }
  - { offset: 0x3A05ED, size: 0x8, addend: 0x0, symName: __ZNK11llama_model9n_tensorsEv, symObjAddr: 0x1CDC0, symBinAddr: 0x7AB54, symSize: 0x14 }
  - { offset: 0x3A060B, size: 0x8, addend: 0x0, symName: __ZNK11llama_model10n_elementsEv, symObjAddr: 0x1CDD4, symBinAddr: 0x7AB68, symSize: 0xC }
  - { offset: 0x3A062F, size: 0x8, addend: 0x0, symName: __ZNK11llama_model10n_elementsEv, symObjAddr: 0x1CDD4, symBinAddr: 0x7AB68, symSize: 0xC }
  - { offset: 0x3A12E0, size: 0x8, addend: 0x0, symName: '__ZZNK11llama_model10print_infoEvENK3$_0clERKNSt3__18functionIFjjEEEj', symObjAddr: 0x1DD04, symBinAddr: 0x7BA98, symSize: 0x3B0 }
  - { offset: 0x3A2371, size: 0x8, addend: 0x0, symName: __ZNSt3__125__throw_bad_function_callB8ne180100Ev, symObjAddr: 0x30004, symBinAddr: 0x85384, symSize: 0x34 }
  - { offset: 0x3A2471, size: 0x8, addend: 0x0, symName: __ZNK11llama_model9dev_layerEi, symObjAddr: 0x1E0B4, symBinAddr: 0x7BE48, symSize: 0x34 }
  - { offset: 0x3A2506, size: 0x8, addend: 0x0, symName: __ZNK11llama_model10dev_outputEv, symObjAddr: 0x1E0E8, symBinAddr: 0x7BE7C, symSize: 0xC }
  - { offset: 0x3A2511, size: 0x8, addend: 0x0, symName: __ZNK11llama_model10dev_outputEv, symObjAddr: 0x1E0E8, symBinAddr: 0x7BE7C, symSize: 0xC }
  - { offset: 0x3A253D, size: 0x8, addend: 0x0, symName: __ZNK11llama_model10dev_outputEv, symObjAddr: 0x1E0E8, symBinAddr: 0x7BE7C, symSize: 0xC }
  - { offset: 0x3A25D7, size: 0x8, addend: 0x0, symName: __ZNK11llama_model11select_buftEi, symObjAddr: 0x1E0F4, symBinAddr: 0x7BE88, symSize: 0x2AC }
  - { offset: 0x3A2BEB, size: 0x8, addend: 0x0, symName: __ZNK11llama_model20has_tensor_overridesEv, symObjAddr: 0x1E3A0, symBinAddr: 0x7C134, symSize: 0xC }
  - { offset: 0x3A2C17, size: 0x8, addend: 0x0, symName: __ZNK11llama_model20has_tensor_overridesEv, symObjAddr: 0x1E3A0, symBinAddr: 0x7C134, symSize: 0xC }
  - { offset: 0x3A2C65, size: 0x8, addend: 0x0, symName: __ZNK11llama_model10get_tensorEPKc, symObjAddr: 0x1E3AC, symBinAddr: 0x7C140, symSize: 0xE8 }
  - { offset: 0x3A2F4C, size: 0x8, addend: 0x0, symName: __ZNK11llama_model18get_rope_freq_baseERK13llama_cparamsi, symObjAddr: 0x1E494, symBinAddr: 0x7C228, symSize: 0x44 }
  - { offset: 0x3A2F80, size: 0x8, addend: 0x0, symName: __ZNK11llama_model19get_rope_freq_scaleERK13llama_cparamsi, symObjAddr: 0x1E4D8, symBinAddr: 0x7C26C, symSize: 0x44 }
  - { offset: 0x3A2FD8, size: 0x8, addend: 0x0, symName: __ZNK11llama_model16get_rope_factorsERK13llama_cparamsi, symObjAddr: 0x1E51C, symBinAddr: 0x7C2B0, symSize: 0x5C }
  - { offset: 0x3A3013, size: 0x8, addend: 0x0, symName: __ZNK11llama_model16get_rope_factorsERK13llama_cparamsi, symObjAddr: 0x1E51C, symBinAddr: 0x7C2B0, symSize: 0x5C }
  - { offset: 0x3A315D, size: 0x8, addend: 0x0, symName: __ZNK11llama_model13create_memoryERK19llama_memory_paramsR13llama_cparams, symObjAddr: 0x1E578, symBinAddr: 0x7C30C, symSize: 0x2A4 }
  - { offset: 0x3A3737, size: 0x8, addend: 0x0, symName: __ZNK11llama_model11build_graphERK16llm_graph_paramsP11ggml_cgraph14llm_graph_type, symObjAddr: 0x1E81C, symBinAddr: 0x7C5B0, symSize: 0x108C }
  - { offset: 0x3A52ED, size: 0x8, addend: 0x0, symName: __ZN14llm_build_bertC2ERK11llama_modelRK16llm_graph_paramsP11ggml_cgraph, symObjAddr: 0x3669C, symBinAddr: 0x8AE34, symSize: 0x870 }
  - { offset: 0x3A5A76, size: 0x8, addend: 0x0, symName: __ZN17llm_build_graniteC2ERK11llama_modelRK16llm_graph_paramsP11ggml_cgraphb, symObjAddr: 0x4A87C, symBinAddr: 0x9F014, symSize: 0x820 }
  - { offset: 0x3A60B8, size: 0x8, addend: 0x0, symName: __ZNSt3__110unique_ptrI17llm_graph_contextNS_14default_deleteIS1_EEEaSB8ne180100I14llm_build_phi3ILb1EENS2_IS7_EEvvEERS4_ONS0_IT_T0_EE, symObjAddr: 0x20BEC, symBinAddr: 0x7E980, symSize: 0x54 }
  - { offset: 0x3A624F, size: 0x8, addend: 0x0, symName: __ZNSt3__110unique_ptrI14llm_build_phi3ILb1EENS_14default_deleteIS2_EEED1B8ne180100Ev, symObjAddr: 0x20C40, symBinAddr: 0x7E9D4, symSize: 0x4C }
  - { offset: 0x3A63D9, size: 0x8, addend: 0x0, symName: __ZNSt3__110unique_ptrI17llm_graph_contextNS_14default_deleteIS1_EEEaSB8ne180100I18llm_build_nemotronNS2_IS6_EEvvEERS4_ONS0_IT_T0_EE, symObjAddr: 0x22C60, symBinAddr: 0x809F4, symSize: 0x54 }
  - { offset: 0x3A6570, size: 0x8, addend: 0x0, symName: __ZNSt3__110unique_ptrI18llm_build_nemotronNS_14default_deleteIS1_EEED1B8ne180100Ev, symObjAddr: 0x22CB4, symBinAddr: 0x80A48, symSize: 0x4C }
  - { offset: 0x3A66FA, size: 0x8, addend: 0x0, symName: __ZNSt3__110unique_ptrI17llm_graph_contextNS_14default_deleteIS1_EEEaSB8ne180100I15llm_build_olmo2NS2_IS6_EEvvEERS4_ONS0_IT_T0_EE, symObjAddr: 0x21EC4, symBinAddr: 0x7FC58, symSize: 0x54 }
  - { offset: 0x3A6891, size: 0x8, addend: 0x0, symName: __ZNSt3__110unique_ptrI15llm_build_olmo2NS_14default_deleteIS1_EEED1B8ne180100Ev, symObjAddr: 0x21F18, symBinAddr: 0x7FCAC, symSize: 0x4C }
  - { offset: 0x3A6A1B, size: 0x8, addend: 0x0, symName: __ZNSt3__110unique_ptrI17llm_graph_contextNS_14default_deleteIS1_EEEaSB8ne180100I18llm_build_deepseekNS2_IS6_EEvvEERS4_ONS0_IT_T0_EE, symObjAddr: 0x22400, symBinAddr: 0x80194, symSize: 0x54 }
  - { offset: 0x3A6BB2, size: 0x8, addend: 0x0, symName: __ZNSt3__110unique_ptrI18llm_build_deepseekNS_14default_deleteIS1_EEED1B8ne180100Ev, symObjAddr: 0x22454, symBinAddr: 0x801E8, symSize: 0x4C }
  - { offset: 0x3A6D3C, size: 0x8, addend: 0x0, symName: __ZNSt3__110unique_ptrI17llm_graph_contextNS_14default_deleteIS1_EEEaSB8ne180100I19llm_build_command_rNS2_IS6_EEvvEERS4_ONS0_IT_T0_EE, symObjAddr: 0x21A94, symBinAddr: 0x7F828, symSize: 0x54 }
  - { offset: 0x3A6ED3, size: 0x8, addend: 0x0, symName: __ZNSt3__110unique_ptrI19llm_build_command_rNS_14default_deleteIS1_EEED1B8ne180100Ev, symObjAddr: 0x21AE8, symBinAddr: 0x7F87C, symSize: 0x4C }
  - { offset: 0x3A705D, size: 0x8, addend: 0x0, symName: __ZNSt3__110unique_ptrI17llm_graph_contextNS_14default_deleteIS1_EEEaSB8ne180100I19llm_build_deepseek2NS2_IS6_EEvvEERS4_ONS0_IT_T0_EE, symObjAddr: 0x2250C, symBinAddr: 0x802A0, symSize: 0x54 }
  - { offset: 0x3A71F4, size: 0x8, addend: 0x0, symName: __ZNSt3__110unique_ptrI19llm_build_deepseek2NS_14default_deleteIS1_EEED1B8ne180100Ev, symObjAddr: 0x22560, symBinAddr: 0x802F4, symSize: 0x4C }
  - { offset: 0x3A737E, size: 0x8, addend: 0x0, symName: __ZNSt3__110unique_ptrI17llm_graph_contextNS_14default_deleteIS1_EEEaSB8ne180100I15llm_build_rwkv6NS2_IS6_EEvvEERS4_ONS0_IT_T0_EE, symObjAddr: 0x22E78, symBinAddr: 0x80C0C, symSize: 0x54 }
  - { offset: 0x3A7515, size: 0x8, addend: 0x0, symName: __ZNSt3__110unique_ptrI15llm_build_rwkv6NS_14default_deleteIS1_EEED1B8ne180100Ev, symObjAddr: 0x22ECC, symBinAddr: 0x80C60, symSize: 0x4C }
  - { offset: 0x3A76BC, size: 0x8, addend: 0x0, symName: __ZNSt3__110unique_ptrI17llm_graph_contextNS_14default_deleteIS1_EEEaSB8ne180100I22llm_build_cohere2_iswaNS2_IS6_EEvvEERS4_ONS0_IT_T0_EE, symObjAddr: 0x21BA0, symBinAddr: 0x7F934, symSize: 0x54 }
  - { offset: 0x3A7853, size: 0x8, addend: 0x0, symName: __ZNSt3__110unique_ptrI22llm_build_cohere2_iswaNS_14default_deleteIS1_EEED1B8ne180100Ev, symObjAddr: 0x21BF4, symBinAddr: 0x7F988, symSize: 0x4C }
  - { offset: 0x3A79DD, size: 0x8, addend: 0x0, symName: __ZNSt3__110unique_ptrI17llm_graph_contextNS_14default_deleteIS1_EEEaSB8ne180100I15llm_build_rwkv7NS2_IS6_EEvvEERS4_ONS0_IT_T0_EE, symObjAddr: 0x23090, symBinAddr: 0x80E24, symSize: 0x54 }
  - { offset: 0x3A7B74, size: 0x8, addend: 0x0, symName: __ZNSt3__110unique_ptrI15llm_build_rwkv7NS_14default_deleteIS1_EEED1B8ne180100Ev, symObjAddr: 0x230E4, symBinAddr: 0x80E78, symSize: 0x4C }
  - { offset: 0x3A7D1B, size: 0x8, addend: 0x0, symName: __ZNSt3__110unique_ptrI17llm_graph_contextNS_14default_deleteIS1_EEEaSB8ne180100I13llm_build_plmNS2_IS6_EEvvEERS4_ONS0_IT_T0_EE, symObjAddr: 0x234C0, symBinAddr: 0x81254, symSize: 0x54 }
  - { offset: 0x3A7EB2, size: 0x8, addend: 0x0, symName: __ZNSt3__110unique_ptrI13llm_build_plmNS_14default_deleteIS1_EEED1B8ne180100Ev, symObjAddr: 0x23514, symBinAddr: 0x812A8, symSize: 0x4C }
  - { offset: 0x3A803C, size: 0x8, addend: 0x0, symName: __ZNSt3__110unique_ptrI17llm_graph_contextNS_14default_deleteIS1_EEEaSB8ne180100I26llm_build_wavtokenizer_decNS2_IS6_EEvvEERS4_ONS0_IT_T0_EE, symObjAddr: 0x233B4, symBinAddr: 0x81148, symSize: 0x54 }
  - { offset: 0x3A81D3, size: 0x8, addend: 0x0, symName: __ZNSt3__110unique_ptrI26llm_build_wavtokenizer_decNS_14default_deleteIS1_EEED1B8ne180100Ev, symObjAddr: 0x23408, symBinAddr: 0x8119C, symSize: 0x4C }
  - { offset: 0x3A835D, size: 0x8, addend: 0x0, symName: __ZNSt3__110unique_ptrI17llm_graph_contextNS_14default_deleteIS1_EEEaSB8ne180100I19llm_build_codeshellNS2_IS6_EEvvEERS4_ONS0_IT_T0_EE, symObjAddr: 0x2101C, symBinAddr: 0x7EDB0, symSize: 0x54 }
  - { offset: 0x3A84F4, size: 0x8, addend: 0x0, symName: __ZNSt3__110unique_ptrI19llm_build_codeshellNS_14default_deleteIS1_EEED1B8ne180100Ev, symObjAddr: 0x21070, symBinAddr: 0x7EE04, symSize: 0x4C }
  - { offset: 0x3A867E, size: 0x8, addend: 0x0, symName: __ZNSt3__110unique_ptrI17llm_graph_contextNS_14default_deleteIS1_EEEaSB8ne180100I16llm_build_arwkv7NS2_IS6_EEvvEERS4_ONS0_IT_T0_EE, symObjAddr: 0x2319C, symBinAddr: 0x80F30, symSize: 0x54 }
  - { offset: 0x3A8815, size: 0x8, addend: 0x0, symName: __ZNSt3__110unique_ptrI16llm_build_arwkv7NS_14default_deleteIS1_EEED1B8ne180100Ev, symObjAddr: 0x231F0, symBinAddr: 0x80F84, symSize: 0x4C }
  - { offset: 0x3A89BC, size: 0x8, addend: 0x0, symName: __ZNSt3__110unique_ptrI17llm_graph_contextNS_14default_deleteIS1_EEEaSB8ne180100I20llm_build_bailingmoeNS2_IS6_EEvvEERS4_ONS0_IT_T0_EE, symObjAddr: 0x235CC, symBinAddr: 0x81360, symSize: 0x54 }
  - { offset: 0x3A8B53, size: 0x8, addend: 0x0, symName: __ZNSt3__110unique_ptrI20llm_build_bailingmoeNS_14default_deleteIS1_EEED1B8ne180100Ev, symObjAddr: 0x23620, symBinAddr: 0x813B4, symSize: 0x4C }
  - { offset: 0x3A8CDD, size: 0x8, addend: 0x0, symName: __ZNSt3__110unique_ptrI17llm_graph_contextNS_14default_deleteIS1_EEEaSB8ne180100I19llm_build_chameleonNS2_IS6_EEvvEERS4_ONS0_IT_T0_EE, symObjAddr: 0x232A8, symBinAddr: 0x8103C, symSize: 0x54 }
  - { offset: 0x3A8E74, size: 0x8, addend: 0x0, symName: __ZNSt3__110unique_ptrI19llm_build_chameleonNS_14default_deleteIS1_EEED1B8ne180100Ev, symObjAddr: 0x232FC, symBinAddr: 0x81090, symSize: 0x4C }
  - { offset: 0x3A8FFE, size: 0x8, addend: 0x0, symName: __ZNSt3__110unique_ptrI17llm_graph_contextNS_14default_deleteIS1_EEEaSB8ne180100I15llm_build_olmoeNS2_IS6_EEvvEERS4_ONS0_IT_T0_EE, symObjAddr: 0x21FD0, symBinAddr: 0x7FD64, symSize: 0x54 }
  - { offset: 0x3A9195, size: 0x8, addend: 0x0, symName: __ZNSt3__110unique_ptrI15llm_build_olmoeNS_14default_deleteIS1_EEED1B8ne180100Ev, symObjAddr: 0x22024, symBinAddr: 0x7FDB8, symSize: 0x4C }
  - { offset: 0x3A931F, size: 0x8, addend: 0x0, symName: __ZNSt3__110unique_ptrI17llm_graph_contextNS_14default_deleteIS1_EEEaSB8ne180100I14llm_build_qwenNS2_IS6_EEvvEERS4_ONS0_IT_T0_EE, symObjAddr: 0x20498, symBinAddr: 0x7E22C, symSize: 0x54 }
  - { offset: 0x3A94B6, size: 0x8, addend: 0x0, symName: __ZNSt3__110unique_ptrI14llm_build_qwenNS_14default_deleteIS1_EEED1B8ne180100Ev, symObjAddr: 0x204EC, symBinAddr: 0x7E280, symSize: 0x4C }
  - { offset: 0x3A9640, size: 0x8, addend: 0x0, symName: __ZNSt3__110unique_ptrI17llm_graph_contextNS_14default_deleteIS1_EEEaSB8ne180100I16llm_build_xverseNS2_IS6_EEvvEERS4_ONS0_IT_T0_EE, symObjAddr: 0x21988, symBinAddr: 0x7F71C, symSize: 0x54 }
  - { offset: 0x3A97D7, size: 0x8, addend: 0x0, symName: __ZNSt3__110unique_ptrI16llm_build_xverseNS_14default_deleteIS1_EEED1B8ne180100Ev, symObjAddr: 0x219DC, symBinAddr: 0x7F770, symSize: 0x4C }
  - { offset: 0x3A9961, size: 0x8, addend: 0x0, symName: __ZNSt3__110unique_ptrI17llm_graph_contextNS_14default_deleteIS1_EEEaSB8ne180100I14llm_build_dbrxNS2_IS6_EEvvEERS4_ONS0_IT_T0_EE, symObjAddr: 0x21CAC, symBinAddr: 0x7FA40, symSize: 0x54 }
  - { offset: 0x3A9AF8, size: 0x8, addend: 0x0, symName: __ZNSt3__110unique_ptrI14llm_build_dbrxNS_14default_deleteIS1_EEED1B8ne180100Ev, symObjAddr: 0x21D00, symBinAddr: 0x7FA94, symSize: 0x4C }
  - { offset: 0x3A9C82, size: 0x8, addend: 0x0, symName: __ZNSt3__110unique_ptrI17llm_graph_contextNS_14default_deleteIS1_EEEaSB8ne180100I18llm_build_qwen3moeNS2_IS6_EEvvEERS4_ONS0_IT_T0_EE, symObjAddr: 0x209D4, symBinAddr: 0x7E768, symSize: 0x54 }
  - { offset: 0x3A9E19, size: 0x8, addend: 0x0, symName: __ZNSt3__110unique_ptrI18llm_build_qwen3moeNS_14default_deleteIS1_EEED1B8ne180100Ev, symObjAddr: 0x20A28, symBinAddr: 0x7E7BC, symSize: 0x4C }
  - { offset: 0x3A9FA3, size: 0x8, addend: 0x0, symName: __ZNSt3__110unique_ptrI17llm_graph_contextNS_14default_deleteIS1_EEEaSB8ne180100I18llm_build_stablelmNS2_IS6_EEvvEERS4_ONS0_IT_T0_EE, symObjAddr: 0x2038C, symBinAddr: 0x7E120, symSize: 0x54 }
  - { offset: 0x3AA13A, size: 0x8, addend: 0x0, symName: __ZNSt3__110unique_ptrI18llm_build_stablelmNS_14default_deleteIS1_EEED1B8ne180100Ev, symObjAddr: 0x203E0, symBinAddr: 0x7E174, symSize: 0x4C }
  - { offset: 0x3AA2C4, size: 0x8, addend: 0x0, symName: __ZNSt3__110unique_ptrI17llm_graph_contextNS_14default_deleteIS1_EEEaSB8ne180100I15llm_build_mambaNS2_IS6_EEvvEERS4_ONS0_IT_T0_EE, symObjAddr: 0x2187C, symBinAddr: 0x7F610, symSize: 0x54 }
  - { offset: 0x3AA45B, size: 0x8, addend: 0x0, symName: __ZNSt3__110unique_ptrI15llm_build_mambaNS_14default_deleteIS1_EEED1B8ne180100Ev, symObjAddr: 0x218D0, symBinAddr: 0x7F664, symSize: 0x4C }
  - { offset: 0x3AA5E5, size: 0x8, addend: 0x0, symName: __ZNSt3__110unique_ptrI17llm_graph_contextNS_14default_deleteIS1_EEEaSB8ne180100I17llm_build_gptneoxNS2_IS6_EEvvEERS4_ONS0_IT_T0_EE, symObjAddr: 0x221E8, symBinAddr: 0x7FF7C, symSize: 0x54 }
  - { offset: 0x3AA77C, size: 0x8, addend: 0x0, symName: __ZNSt3__110unique_ptrI17llm_build_gptneoxNS_14default_deleteIS1_EEED1B8ne180100Ev, symObjAddr: 0x2223C, symBinAddr: 0x7FFD0, symSize: 0x4C }
  - { offset: 0x3AA906, size: 0x8, addend: 0x0, symName: __ZNSt3__110unique_ptrI17llm_graph_contextNS_14default_deleteIS1_EEEaSB8ne180100I16llm_build_exaoneNS2_IS6_EEvvEERS4_ONS0_IT_T0_EE, symObjAddr: 0x22D6C, symBinAddr: 0x80B00, symSize: 0x54 }
  - { offset: 0x3AAA9D, size: 0x8, addend: 0x0, symName: __ZNSt3__110unique_ptrI16llm_build_exaoneNS_14default_deleteIS1_EEED1B8ne180100Ev, symObjAddr: 0x22DC0, symBinAddr: 0x80B54, symSize: 0x4C }
  - { offset: 0x3AAC27, size: 0x8, addend: 0x0, symName: __ZNSt3__110unique_ptrI17llm_graph_contextNS_14default_deleteIS1_EEEaSB8ne180100I20llm_build_rwkv6qwen2NS2_IS6_EEvvEERS4_ONS0_IT_T0_EE, symObjAddr: 0x22F84, symBinAddr: 0x80D18, symSize: 0x54 }
  - { offset: 0x3AADBE, size: 0x8, addend: 0x0, symName: __ZNSt3__110unique_ptrI20llm_build_rwkv6qwen2NS_14default_deleteIS1_EEED1B8ne180100Ev, symObjAddr: 0x22FD8, symBinAddr: 0x80D6C, symSize: 0x4C }
  - { offset: 0x3AAF65, size: 0x8, addend: 0x0, symName: __ZNSt3__110unique_ptrI17llm_graph_contextNS_14default_deleteIS1_EEEaSB8ne180100I15llm_build_bloomNS2_IS6_EEvvEERS4_ONS0_IT_T0_EE, symObjAddr: 0x20174, symBinAddr: 0x7DF08, symSize: 0x54 }
  - { offset: 0x3AB0FC, size: 0x8, addend: 0x0, symName: __ZNSt3__110unique_ptrI15llm_build_bloomNS_14default_deleteIS1_EEED1B8ne180100Ev, symObjAddr: 0x201C8, symBinAddr: 0x7DF5C, symSize: 0x4C }
  - { offset: 0x3AB286, size: 0x8, addend: 0x0, symName: __ZNSt3__110unique_ptrI17llm_graph_contextNS_14default_deleteIS1_EEEaSB8ne180100I15llm_build_qwen2NS2_IS6_EEvvEERS4_ONS0_IT_T0_EE, symObjAddr: 0x205A4, symBinAddr: 0x7E338, symSize: 0x54 }
  - { offset: 0x3AB41D, size: 0x8, addend: 0x0, symName: __ZNSt3__110unique_ptrI15llm_build_qwen2NS_14default_deleteIS1_EEED1B8ne180100Ev, symObjAddr: 0x205F8, symBinAddr: 0x7E38C, symSize: 0x4C }
  - { offset: 0x3AB5A7, size: 0x8, addend: 0x0, symName: __ZNSt3__110unique_ptrI17llm_graph_contextNS_14default_deleteIS1_EEEaSB8ne180100I19llm_build_starcoderNS2_IS6_EEvvEERS4_ONS0_IT_T0_EE, symObjAddr: 0x1FF5C, symBinAddr: 0x7DCF0, symSize: 0x54 }
  - { offset: 0x3AB73E, size: 0x8, addend: 0x0, symName: __ZNSt3__110unique_ptrI19llm_build_starcoderNS_14default_deleteIS1_EEED1B8ne180100Ev, symObjAddr: 0x1FFB0, symBinAddr: 0x7DD44, symSize: 0x4C }
  - { offset: 0x3AB8C8, size: 0x8, addend: 0x0, symName: __ZNSt3__110unique_ptrI17llm_graph_contextNS_14default_deleteIS1_EEEaSB8ne180100I14llm_build_phi2NS2_IS6_EEvvEERS4_ONS0_IT_T0_EE, symObjAddr: 0x20AE0, symBinAddr: 0x7E874, symSize: 0x54 }
  - { offset: 0x3ABA5F, size: 0x8, addend: 0x0, symName: __ZNSt3__110unique_ptrI14llm_build_phi2NS_14default_deleteIS1_EEED1B8ne180100Ev, symObjAddr: 0x20B34, symBinAddr: 0x7E8C8, symSize: 0x4C }
  - { offset: 0x3ABBE9, size: 0x8, addend: 0x0, symName: __ZNSt3__110unique_ptrI17llm_graph_contextNS_14default_deleteIS1_EEEaSB8ne180100I14llm_build_grokNS2_IS6_EEvvEERS4_ONS0_IT_T0_EE, symObjAddr: 0x1FE50, symBinAddr: 0x7DBE4, symSize: 0x54 }
  - { offset: 0x3ABD80, size: 0x8, addend: 0x0, symName: __ZNSt3__110unique_ptrI14llm_build_grokNS_14default_deleteIS1_EEED1B8ne180100Ev, symObjAddr: 0x1FEA4, symBinAddr: 0x7DC38, symSize: 0x4C }
  - { offset: 0x3ABF0A, size: 0x8, addend: 0x0, symName: __ZNSt3__110unique_ptrI17llm_graph_contextNS_14default_deleteIS1_EEEaSB8ne180100I14llm_build_deciNS2_IS6_EEvvEERS4_ONS0_IT_T0_EE, symObjAddr: 0x1FB2C, symBinAddr: 0x7D8C0, symSize: 0x54 }
  - { offset: 0x3AC0A1, size: 0x8, addend: 0x0, symName: __ZNSt3__110unique_ptrI14llm_build_deciNS_14default_deleteIS1_EEED1B8ne180100Ev, symObjAddr: 0x1FB80, symBinAddr: 0x7D914, symSize: 0x4C }
  - { offset: 0x3AC22B, size: 0x8, addend: 0x0, symName: __ZNSt3__110unique_ptrI17llm_graph_contextNS_14default_deleteIS1_EEEaSB8ne180100I16llm_build_refactNS2_IS6_EEvvEERS4_ONS0_IT_T0_EE, symObjAddr: 0x20068, symBinAddr: 0x7DDFC, symSize: 0x54 }
  - { offset: 0x3AC3C2, size: 0x8, addend: 0x0, symName: __ZNSt3__110unique_ptrI16llm_build_refactNS_14default_deleteIS1_EEED1B8ne180100Ev, symObjAddr: 0x200BC, symBinAddr: 0x7DE50, symSize: 0x4C }
  - { offset: 0x3AC54C, size: 0x8, addend: 0x0, symName: __ZNSt3__110unique_ptrI17llm_graph_contextNS_14default_deleteIS1_EEEaSB8ne180100I20llm_build_llama_iswaNS2_IS6_EEvvEERS4_ONS0_IT_T0_EE, symObjAddr: 0x1FA20, symBinAddr: 0x7D7B4, symSize: 0x54 }
  - { offset: 0x3AC6E3, size: 0x8, addend: 0x0, symName: __ZNSt3__110unique_ptrI20llm_build_llama_iswaNS_14default_deleteIS1_EEED1B8ne180100Ev, symObjAddr: 0x1FA74, symBinAddr: 0x7D808, symSize: 0x4C }
  - { offset: 0x3AC86D, size: 0x8, addend: 0x0, symName: __ZNSt3__110unique_ptrI17llm_graph_contextNS_14default_deleteIS1_EEEaSB8ne180100I13llm_build_mptNS2_IS6_EEvvEERS4_ONS0_IT_T0_EE, symObjAddr: 0x20280, symBinAddr: 0x7E014, symSize: 0x54 }
  - { offset: 0x3ACA04, size: 0x8, addend: 0x0, symName: __ZNSt3__110unique_ptrI13llm_build_mptNS_14default_deleteIS1_EEED1B8ne180100Ev, symObjAddr: 0x202D4, symBinAddr: 0x7E068, symSize: 0x4C }
  - { offset: 0x3ACB8E, size: 0x8, addend: 0x0, symName: __ZNSt3__110unique_ptrI17llm_graph_contextNS_14default_deleteIS1_EEEaSB8ne180100I18llm_build_baichuanNS2_IS6_EEvvEERS4_ONS0_IT_T0_EE, symObjAddr: 0x1FC38, symBinAddr: 0x7D9CC, symSize: 0x54 }
  - { offset: 0x3ACD25, size: 0x8, addend: 0x0, symName: __ZNSt3__110unique_ptrI18llm_build_baichuanNS_14default_deleteIS1_EEED1B8ne180100Ev, symObjAddr: 0x1FC8C, symBinAddr: 0x7DA20, symSize: 0x4C }
  - { offset: 0x3ACEAF, size: 0x8, addend: 0x0, symName: __ZNSt3__110unique_ptrI17llm_graph_contextNS_14default_deleteIS1_EEEaSB8ne180100I14llm_build_gpt2NS2_IS6_EEvvEERS4_ONS0_IT_T0_EE, symObjAddr: 0x20F10, symBinAddr: 0x7ECA4, symSize: 0x54 }
  - { offset: 0x3AD046, size: 0x8, addend: 0x0, symName: __ZNSt3__110unique_ptrI14llm_build_gpt2NS_14default_deleteIS1_EEED1B8ne180100Ev, symObjAddr: 0x20F64, symBinAddr: 0x7ECF8, symSize: 0x4C }
  - { offset: 0x3AD1D0, size: 0x8, addend: 0x0, symName: __ZNSt3__110unique_ptrI17llm_graph_contextNS_14default_deleteIS1_EEEaSB8ne180100I16llm_build_falconNS2_IS6_EEvvEERS4_ONS0_IT_T0_EE, symObjAddr: 0x1FD44, symBinAddr: 0x7DAD8, symSize: 0x54 }
  - { offset: 0x3AD367, size: 0x8, addend: 0x0, symName: __ZNSt3__110unique_ptrI16llm_build_falconNS_14default_deleteIS1_EEED1B8ne180100Ev, symObjAddr: 0x1FD98, symBinAddr: 0x7DB2C, symSize: 0x4C }
  - { offset: 0x3AD4F1, size: 0x8, addend: 0x0, symName: __ZNSt3__110unique_ptrI17llm_graph_contextNS_14default_deleteIS1_EEEaSB8ne180100I15llm_build_llamaNS2_IS6_EEvvEERS4_ONS0_IT_T0_EE, symObjAddr: 0x1F914, symBinAddr: 0x7D6A8, symSize: 0x54 }
  - { offset: 0x3AD688, size: 0x8, addend: 0x0, symName: __ZNSt3__110unique_ptrI15llm_build_llamaNS_14default_deleteIS1_EEED1B8ne180100Ev, symObjAddr: 0x1F968, symBinAddr: 0x7D6FC, symSize: 0x4C }
  - { offset: 0x3AD812, size: 0x8, addend: 0x0, symName: __ZNSt3__110unique_ptrI17llm_graph_contextNS_14default_deleteIS1_EEEaSB8ne180100I21llm_build_gemma2_iswaNS2_IS6_EEvvEERS4_ONS0_IT_T0_EE, symObjAddr: 0x21558, symBinAddr: 0x7F2EC, symSize: 0x54 }
  - { offset: 0x3AD9A9, size: 0x8, addend: 0x0, symName: __ZNSt3__110unique_ptrI21llm_build_gemma2_iswaNS_14default_deleteIS1_EEED1B8ne180100Ev, symObjAddr: 0x215AC, symBinAddr: 0x7F340, symSize: 0x4C }
  - { offset: 0x3ADB33, size: 0x8, addend: 0x0, symName: __ZNSt3__110unique_ptrI17llm_graph_contextNS_14default_deleteIS1_EEEaSB8ne180100I14llm_build_jaisNS2_IS6_EEvvEERS4_ONS0_IT_T0_EE, symObjAddr: 0x22B54, symBinAddr: 0x808E8, symSize: 0x54 }
  - { offset: 0x3ADCCA, size: 0x8, addend: 0x0, symName: __ZNSt3__110unique_ptrI14llm_build_jaisNS_14default_deleteIS1_EEED1B8ne180100Ev, symObjAddr: 0x22BA8, symBinAddr: 0x8093C, symSize: 0x4C }
  - { offset: 0x3ADE54, size: 0x8, addend: 0x0, symName: __ZNSt3__110unique_ptrI17llm_graph_contextNS_14default_deleteIS1_EEEaSB8ne180100I15llm_build_gemmaNS2_IS6_EEvvEERS4_ONS0_IT_T0_EE, symObjAddr: 0x2144C, symBinAddr: 0x7F1E0, symSize: 0x54 }
  - { offset: 0x3ADFEB, size: 0x8, addend: 0x0, symName: __ZNSt3__110unique_ptrI15llm_build_gemmaNS_14default_deleteIS1_EEED1B8ne180100Ev, symObjAddr: 0x214A0, symBinAddr: 0x7F234, symSize: 0x4C }
  - { offset: 0x3AE175, size: 0x8, addend: 0x0, symName: __ZNSt3__110unique_ptrI17llm_graph_contextNS_14default_deleteIS1_EEEaSB8ne180100I17llm_build_qwen2vlNS2_IS6_EEvvEERS4_ONS0_IT_T0_EE, symObjAddr: 0x206B0, symBinAddr: 0x7E444, symSize: 0x54 }
  - { offset: 0x3AE30C, size: 0x8, addend: 0x0, symName: __ZNSt3__110unique_ptrI17llm_build_qwen2vlNS_14default_deleteIS1_EEED1B8ne180100Ev, symObjAddr: 0x20704, symBinAddr: 0x7E498, symSize: 0x4C }
  - { offset: 0x3AE496, size: 0x8, addend: 0x0, symName: __ZNSt3__110unique_ptrI17llm_graph_contextNS_14default_deleteIS1_EEEaSB8ne180100I21llm_build_gemma3_iswaNS2_IS6_EEvvEERS4_ONS0_IT_T0_EE, symObjAddr: 0x21664, symBinAddr: 0x7F3F8, symSize: 0x54 }
  - { offset: 0x3AE62D, size: 0x8, addend: 0x0, symName: __ZNSt3__110unique_ptrI21llm_build_gemma3_iswaNS_14default_deleteIS1_EEED1B8ne180100Ev, symObjAddr: 0x216B8, symBinAddr: 0x7F44C, symSize: 0x4C }
  - { offset: 0x3AE7B7, size: 0x8, addend: 0x0, symName: __ZNSt3__110unique_ptrI17llm_graph_contextNS_14default_deleteIS1_EEEaSB8ne180100I20llm_build_starcoder2NS2_IS6_EEvvEERS4_ONS0_IT_T0_EE, symObjAddr: 0x21770, symBinAddr: 0x7F504, symSize: 0x54 }
  - { offset: 0x3AE94E, size: 0x8, addend: 0x0, symName: __ZNSt3__110unique_ptrI20llm_build_starcoder2NS_14default_deleteIS1_EEED1B8ne180100Ev, symObjAddr: 0x217C4, symBinAddr: 0x7F558, symSize: 0x4C }
  - { offset: 0x3AEAD8, size: 0x8, addend: 0x0, symName: __ZNSt3__110unique_ptrI17llm_graph_contextNS_14default_deleteIS1_EEEaSB8ne180100I17llm_build_openelmNS2_IS6_EEvvEERS4_ONS0_IT_T0_EE, symObjAddr: 0x220DC, symBinAddr: 0x7FE70, symSize: 0x54 }
  - { offset: 0x3AEC6F, size: 0x8, addend: 0x0, symName: __ZNSt3__110unique_ptrI17llm_build_openelmNS_14default_deleteIS1_EEED1B8ne180100Ev, symObjAddr: 0x22130, symBinAddr: 0x7FEC4, symSize: 0x4C }
  - { offset: 0x3AEDF9, size: 0x8, addend: 0x0, symName: __ZNSt3__110unique_ptrI17llm_graph_contextNS_14default_deleteIS1_EEEaSB8ne180100I18llm_build_qwen2moeNS2_IS6_EEvvEERS4_ONS0_IT_T0_EE, symObjAddr: 0x207BC, symBinAddr: 0x7E550, symSize: 0x54 }
  - { offset: 0x3AEF90, size: 0x8, addend: 0x0, symName: __ZNSt3__110unique_ptrI18llm_build_qwen2moeNS_14default_deleteIS1_EEED1B8ne180100Ev, symObjAddr: 0x20810, symBinAddr: 0x7E5A4, symSize: 0x4C }
  - { offset: 0x3AF11A, size: 0x8, addend: 0x0, symName: __ZNSt3__110unique_ptrI17llm_graph_contextNS_14default_deleteIS1_EEEaSB8ne180100I18llm_build_minicpm3NS2_IS6_EEvvEERS4_ONS0_IT_T0_EE, symObjAddr: 0x21340, symBinAddr: 0x7F0D4, symSize: 0x54 }
  - { offset: 0x3AF2B1, size: 0x8, addend: 0x0, symName: __ZNSt3__110unique_ptrI18llm_build_minicpm3NS_14default_deleteIS1_EEED1B8ne180100Ev, symObjAddr: 0x21394, symBinAddr: 0x7F128, symSize: 0x4C }
  - { offset: 0x3AF43B, size: 0x8, addend: 0x0, symName: __ZNSt3__110unique_ptrI17llm_graph_contextNS_14default_deleteIS1_EEEaSB8ne180100I16llm_build_bitnetNS2_IS6_EEvvEERS4_ONS0_IT_T0_EE, symObjAddr: 0x22830, symBinAddr: 0x805C4, symSize: 0x54 }
  - { offset: 0x3AF5D2, size: 0x8, addend: 0x0, symName: __ZNSt3__110unique_ptrI16llm_build_bitnetNS_14default_deleteIS1_EEED1B8ne180100Ev, symObjAddr: 0x22884, symBinAddr: 0x80618, symSize: 0x4C }
  - { offset: 0x3AF75C, size: 0x8, addend: 0x0, symName: __ZNSt3__110unique_ptrI17llm_graph_contextNS_14default_deleteIS1_EEEaSB8ne180100I14llm_build_olmoNS2_IS6_EEvvEERS4_ONS0_IT_T0_EE, symObjAddr: 0x21DB8, symBinAddr: 0x7FB4C, symSize: 0x54 }
  - { offset: 0x3AF8F3, size: 0x8, addend: 0x0, symName: __ZNSt3__110unique_ptrI14llm_build_olmoNS_14default_deleteIS1_EEED1B8ne180100Ev, symObjAddr: 0x21E0C, symBinAddr: 0x7FBA0, symSize: 0x4C }
  - { offset: 0x3AFA7D, size: 0x8, addend: 0x0, symName: __ZNSt3__110unique_ptrI17llm_graph_contextNS_14default_deleteIS1_EEEaSB8ne180100I15llm_build_qwen3NS2_IS6_EEvvEERS4_ONS0_IT_T0_EE, symObjAddr: 0x208C8, symBinAddr: 0x7E65C, symSize: 0x54 }
  - { offset: 0x3AFC14, size: 0x8, addend: 0x0, symName: __ZNSt3__110unique_ptrI15llm_build_qwen3NS_14default_deleteIS1_EEED1B8ne180100Ev, symObjAddr: 0x2091C, symBinAddr: 0x7E6B0, symSize: 0x4C }
  - { offset: 0x3AFD9E, size: 0x8, addend: 0x0, symName: __ZNSt3__110unique_ptrI17llm_graph_contextNS_14default_deleteIS1_EEEaSB8ne180100I15llm_build_plamoNS2_IS6_EEvvEERS4_ONS0_IT_T0_EE, symObjAddr: 0x20E04, symBinAddr: 0x7EB98, symSize: 0x54 }
  - { offset: 0x3AFF35, size: 0x8, addend: 0x0, symName: __ZNSt3__110unique_ptrI15llm_build_plamoNS_14default_deleteIS1_EEED1B8ne180100Ev, symObjAddr: 0x20E58, symBinAddr: 0x7EBEC, symSize: 0x4C }
  - { offset: 0x3B00BF, size: 0x8, addend: 0x0, symName: __ZNSt3__110unique_ptrI17llm_graph_contextNS_14default_deleteIS1_EEEaSB8ne180100I14llm_build_glm4NS2_IS6_EEvvEERS4_ONS0_IT_T0_EE, symObjAddr: 0x22724, symBinAddr: 0x804B8, symSize: 0x54 }
  - { offset: 0x3B0256, size: 0x8, addend: 0x0, symName: __ZNSt3__110unique_ptrI14llm_build_glm4NS_14default_deleteIS1_EEED1B8ne180100Ev, symObjAddr: 0x22778, symBinAddr: 0x8050C, symSize: 0x4C }
  - { offset: 0x3B03E0, size: 0x8, addend: 0x0, symName: __ZNSt3__110unique_ptrI17llm_graph_contextNS_14default_deleteIS1_EEEaSB8ne180100I15llm_build_orionNS2_IS6_EEvvEERS4_ONS0_IT_T0_EE, symObjAddr: 0x21128, symBinAddr: 0x7EEBC, symSize: 0x54 }
  - { offset: 0x3B0577, size: 0x8, addend: 0x0, symName: __ZNSt3__110unique_ptrI15llm_build_orionNS_14default_deleteIS1_EEED1B8ne180100Ev, symObjAddr: 0x2117C, symBinAddr: 0x7EF10, symSize: 0x4C }
  - { offset: 0x3B0701, size: 0x8, addend: 0x0, symName: __ZNSt3__110unique_ptrI17llm_graph_contextNS_14default_deleteIS1_EEEaSB8ne180100I17llm_build_chatglmNS2_IS6_EEvvEERS4_ONS0_IT_T0_EE, symObjAddr: 0x22618, symBinAddr: 0x803AC, symSize: 0x54 }
  - { offset: 0x3B0898, size: 0x8, addend: 0x0, symName: __ZNSt3__110unique_ptrI17llm_build_chatglmNS_14default_deleteIS1_EEED1B8ne180100Ev, symObjAddr: 0x2266C, symBinAddr: 0x80400, symSize: 0x4C }
  - { offset: 0x3B0A22, size: 0x8, addend: 0x0, symName: __ZNSt3__110unique_ptrI17llm_graph_contextNS_14default_deleteIS1_EEEaSB8ne180100I19llm_build_internlm2NS2_IS6_EEvvEERS4_ONS0_IT_T0_EE, symObjAddr: 0x21234, symBinAddr: 0x7EFC8, symSize: 0x54 }
  - { offset: 0x3B0BB9, size: 0x8, addend: 0x0, symName: __ZNSt3__110unique_ptrI19llm_build_internlm2NS_14default_deleteIS1_EEED1B8ne180100Ev, symObjAddr: 0x21288, symBinAddr: 0x7F01C, symSize: 0x4C }
  - { offset: 0x3B0D43, size: 0x8, addend: 0x0, symName: __ZNSt3__110unique_ptrI17llm_graph_contextNS_14default_deleteIS1_EEEaSB8ne180100I16llm_build_arcticNS2_IS6_EEvvEERS4_ONS0_IT_T0_EE, symObjAddr: 0x222F4, symBinAddr: 0x80088, symSize: 0x54 }
  - { offset: 0x3B0EDA, size: 0x8, addend: 0x0, symName: __ZNSt3__110unique_ptrI16llm_build_arcticNS_14default_deleteIS1_EEED1B8ne180100Ev, symObjAddr: 0x22348, symBinAddr: 0x800DC, symSize: 0x4C }
  - { offset: 0x3B1064, size: 0x8, addend: 0x0, symName: __ZNSt3__110unique_ptrI17llm_graph_contextNS_14default_deleteIS1_EEEaSB8ne180100I16llm_build_t5_encNS2_IS6_EEvvEERS4_ONS0_IT_T0_EE, symObjAddr: 0x2293C, symBinAddr: 0x806D0, symSize: 0x54 }
  - { offset: 0x3B11FB, size: 0x8, addend: 0x0, symName: __ZNSt3__110unique_ptrI16llm_build_t5_encNS_14default_deleteIS1_EEED1B8ne180100Ev, symObjAddr: 0x22990, symBinAddr: 0x80724, symSize: 0x4C }
  - { offset: 0x3B1385, size: 0x8, addend: 0x0, symName: __ZNSt3__110unique_ptrI17llm_graph_contextNS_14default_deleteIS1_EEEaSB8ne180100I14llm_build_phi3ILb0EENS2_IS7_EEvvEERS4_ONS0_IT_T0_EE, symObjAddr: 0x20CF8, symBinAddr: 0x7EA8C, symSize: 0x54 }
  - { offset: 0x3B151C, size: 0x8, addend: 0x0, symName: __ZNSt3__110unique_ptrI14llm_build_phi3ILb0EENS_14default_deleteIS2_EEED1B8ne180100Ev, symObjAddr: 0x20D4C, symBinAddr: 0x7EAE0, symSize: 0x4C }
  - { offset: 0x3B16A6, size: 0x8, addend: 0x0, symName: __ZNSt3__110unique_ptrI17llm_graph_contextNS_14default_deleteIS1_EEEaSB8ne180100I16llm_build_t5_decNS2_IS6_EEvvEERS4_ONS0_IT_T0_EE, symObjAddr: 0x22A48, symBinAddr: 0x807DC, symSize: 0x54 }
  - { offset: 0x3B183D, size: 0x8, addend: 0x0, symName: __ZNSt3__110unique_ptrI16llm_build_t5_decNS_14default_deleteIS1_EEED1B8ne180100Ev, symObjAddr: 0x22A9C, symBinAddr: 0x80830, symSize: 0x4C }
  - { offset: 0x3B19C7, size: 0x8, addend: 0x0, symName: __ZNSt3__110unique_ptrI17llm_graph_contextNS_14default_deleteIS1_EEED1B8ne180100Ev, symObjAddr: 0x2366C, symBinAddr: 0x81400, symSize: 0x4C }
  - { offset: 0x3B1C81, size: 0x8, addend: 0x0, symName: __ZN15llm_build_llamaC2ERK11llama_modelRK16llm_graph_paramsP11ggml_cgraph, symObjAddr: 0x3339C, symBinAddr: 0x87B34, symSize: 0x708 }
  - { offset: 0x3B24DC, size: 0x8, addend: 0x0, symName: __ZN20llm_build_llama_iswaC2ERK11llama_modelRK16llm_graph_paramsP11ggml_cgraph, symObjAddr: 0x33AA4, symBinAddr: 0x8823C, symSize: 0x8CC }
  - { offset: 0x3B2D67, size: 0x8, addend: 0x0, symName: __ZN14llm_build_deciC2ERK11llama_modelRK16llm_graph_paramsP11ggml_cgraph, symObjAddr: 0x34370, symBinAddr: 0x88B08, symSize: 0x740 }
  - { offset: 0x3B34D4, size: 0x8, addend: 0x0, symName: __ZN18llm_build_baichuanC2ERK11llama_modelRK16llm_graph_paramsP11ggml_cgraph, symObjAddr: 0x34AB0, symBinAddr: 0x89248, symSize: 0x580 }
  - { offset: 0x3B3B6B, size: 0x8, addend: 0x0, symName: __ZN16llm_build_falconC2ERK11llama_modelRK16llm_graph_paramsP11ggml_cgraph, symObjAddr: 0x35030, symBinAddr: 0x897C8, symSize: 0x59C }
  - { offset: 0x3B425C, size: 0x8, addend: 0x0, symName: __ZN14llm_build_grokC2ERK11llama_modelRK16llm_graph_paramsP11ggml_cgraph, symObjAddr: 0x355CC, symBinAddr: 0x89D64, symSize: 0x690 }
  - { offset: 0x3B49DB, size: 0x8, addend: 0x0, symName: __ZN19llm_build_starcoderC2ERK11llama_modelRK16llm_graph_paramsP11ggml_cgraph, symObjAddr: 0x35C5C, symBinAddr: 0x8A3F4, symSize: 0x59C }
  - { offset: 0x3B50F2, size: 0x8, addend: 0x0, symName: __ZN16llm_build_refactC2ERK11llama_modelRK16llm_graph_paramsP11ggml_cgraph, symObjAddr: 0x361F8, symBinAddr: 0x8A990, symSize: 0x4A4 }
  - { offset: 0x3B572E, size: 0x8, addend: 0x0, symName: __ZN15llm_build_bloomC2ERK11llama_modelRK16llm_graph_paramsP11ggml_cgraph, symObjAddr: 0x36F0C, symBinAddr: 0x8B6A4, symSize: 0x568 }
  - { offset: 0x3B5DF5, size: 0x8, addend: 0x0, symName: __ZN13llm_build_mptC2ERK11llama_modelRK16llm_graph_paramsP11ggml_cgraph, symObjAddr: 0x37474, symBinAddr: 0x8BC0C, symSize: 0x6A8 }
  - { offset: 0x3B657F, size: 0x8, addend: 0x0, symName: __ZN18llm_build_stablelmC2ERK11llama_modelRK16llm_graph_paramsP11ggml_cgraph, symObjAddr: 0x37B1C, symBinAddr: 0x8C2B4, symSize: 0x664 }
  - { offset: 0x3B6CEA, size: 0x8, addend: 0x0, symName: __ZN14llm_build_qwenC2ERK11llama_modelRK16llm_graph_paramsP11ggml_cgraph, symObjAddr: 0x38180, symBinAddr: 0x8C918, symSize: 0x570 }
  - { offset: 0x3B73EF, size: 0x8, addend: 0x0, symName: __ZN15llm_build_qwen2C2ERK11llama_modelRK16llm_graph_paramsP11ggml_cgraph, symObjAddr: 0x386F0, symBinAddr: 0x8CE88, symSize: 0x578 }
  - { offset: 0x3B7B12, size: 0x8, addend: 0x0, symName: __ZN17llm_build_qwen2vlC2ERK11llama_modelRK16llm_graph_paramsP11ggml_cgraph, symObjAddr: 0x38C68, symBinAddr: 0x8D400, symSize: 0x5C0 }
  - { offset: 0x3B83E5, size: 0x8, addend: 0x0, symName: __ZN18llm_build_qwen2moeC2ERK11llama_modelRK16llm_graph_paramsP11ggml_cgraph, symObjAddr: 0x39228, symBinAddr: 0x8D9C0, symSize: 0x70C }
  - { offset: 0x3B8C0E, size: 0x8, addend: 0x0, symName: __ZN15llm_build_qwen3C2ERK11llama_modelRK16llm_graph_paramsP11ggml_cgraph, symObjAddr: 0x39934, symBinAddr: 0x8E0CC, symSize: 0x5B0 }
  - { offset: 0x3B92E7, size: 0x8, addend: 0x0, symName: __ZN18llm_build_qwen3moeC2ERK11llama_modelRK16llm_graph_paramsP11ggml_cgraph, symObjAddr: 0x39EE4, symBinAddr: 0x8E67C, symSize: 0x5B0 }
  - { offset: 0x3B99CE, size: 0x8, addend: 0x0, symName: __ZN14llm_build_phi2C2ERK11llama_modelRK16llm_graph_paramsP11ggml_cgraph, symObjAddr: 0x3A494, symBinAddr: 0x8EC2C, symSize: 0x6B0 }
  - { offset: 0x3BA20C, size: 0x8, addend: 0x0, symName: __ZN14llm_build_phi3ILb1EEC2ERK11llama_modelRK16llm_graph_paramsP11ggml_cgraph, symObjAddr: 0x3AB44, symBinAddr: 0x8F2DC, symSize: 0x738 }
  - { offset: 0x3BAA7F, size: 0x8, addend: 0x0, symName: __ZN14llm_build_phi3ILb0EEC2ERK11llama_modelRK16llm_graph_paramsP11ggml_cgraph, symObjAddr: 0x3B27C, symBinAddr: 0x8FA14, symSize: 0x738 }
  - { offset: 0x3BB2F2, size: 0x8, addend: 0x0, symName: __ZN15llm_build_plamoC2ERK11llama_modelRK16llm_graph_paramsP11ggml_cgraph, symObjAddr: 0x3B9B4, symBinAddr: 0x9014C, symSize: 0x4E8 }
  - { offset: 0x3BB976, size: 0x8, addend: 0x0, symName: __ZN14llm_build_gpt2C2ERK11llama_modelRK16llm_graph_paramsP11ggml_cgraph, symObjAddr: 0x3BE9C, symBinAddr: 0x90634, symSize: 0x594 }
  - { offset: 0x3BC08D, size: 0x8, addend: 0x0, symName: __ZN19llm_build_codeshellC2ERK11llama_modelRK16llm_graph_paramsP11ggml_cgraph, symObjAddr: 0x3C430, symBinAddr: 0x90BC8, symSize: 0x5BC }
  - { offset: 0x3BC79C, size: 0x8, addend: 0x0, symName: __ZN15llm_build_orionC2ERK11llama_modelRK16llm_graph_paramsP11ggml_cgraph, symObjAddr: 0x3C9EC, symBinAddr: 0x91184, symSize: 0x52C }
  - { offset: 0x3BCE20, size: 0x8, addend: 0x0, symName: __ZN19llm_build_internlm2C2ERK11llama_modelRK16llm_graph_paramsP11ggml_cgraph, symObjAddr: 0x3CF18, symBinAddr: 0x916B0, symSize: 0x5D8 }
  - { offset: 0x3BD538, size: 0x8, addend: 0x0, symName: __ZN18llm_build_minicpm3C2ERK11llama_modelRK16llm_graph_paramsP11ggml_cgraph, symObjAddr: 0x3D4F0, symBinAddr: 0x91C88, symSize: 0xAA8 }
  - { offset: 0x3BE0B1, size: 0x8, addend: 0x0, symName: __ZN15llm_build_gemmaC2ERK11llama_modelRK16llm_graph_paramsP11ggml_cgraph, symObjAddr: 0x3DF98, symBinAddr: 0x92730, symSize: 0x538 }
  - { offset: 0x3BE73F, size: 0x8, addend: 0x0, symName: __ZN21llm_build_gemma2_iswaC2ERK11llama_modelRK16llm_graph_paramsP11ggml_cgraph, symObjAddr: 0x3E4D0, symBinAddr: 0x92C68, symSize: 0x5C4 }
  - { offset: 0x3BEE4D, size: 0x8, addend: 0x0, symName: __ZN21llm_build_gemma3_iswaC2ERK11llama_modelRK16llm_graph_paramsP11ggml_cgraph, symObjAddr: 0x3EA94, symBinAddr: 0x9322C, symSize: 0x694 }
  - { offset: 0x3BF5FE, size: 0x8, addend: 0x0, symName: __ZN20llm_build_starcoder2C2ERK11llama_modelRK16llm_graph_paramsP11ggml_cgraph, symObjAddr: 0x3F128, symBinAddr: 0x938C0, symSize: 0x5D8 }
  - { offset: 0x3BFD16, size: 0x8, addend: 0x0, symName: __ZN15llm_build_mambaC2ERK11llama_modelRK16llm_graph_paramsP11ggml_cgraph, symObjAddr: 0x3F700, symBinAddr: 0x93E98, symSize: 0x234 }
  - { offset: 0x3C01B1, size: 0x8, addend: 0x0, symName: __ZN16llm_build_xverseC2ERK11llama_modelRK16llm_graph_paramsP11ggml_cgraph, symObjAddr: 0x3FFA8, symBinAddr: 0x94740, symSize: 0x530 }
  - { offset: 0x3C0835, size: 0x8, addend: 0x0, symName: __ZN19llm_build_command_rC2ERK11llama_modelRK16llm_graph_paramsP11ggml_cgraph, symObjAddr: 0x404D8, symBinAddr: 0x94C70, symSize: 0x624 }
  - { offset: 0x3C0FBC, size: 0x8, addend: 0x0, symName: __ZN22llm_build_cohere2_iswaC2ERK11llama_modelRK16llm_graph_paramsP11ggml_cgraph, symObjAddr: 0x40AFC, symBinAddr: 0x95294, symSize: 0x62C }
  - { offset: 0x3C1752, size: 0x8, addend: 0x0, symName: __ZN14llm_build_dbrxC2ERK11llama_modelRK16llm_graph_paramsP11ggml_cgraph, symObjAddr: 0x41128, symBinAddr: 0x958C0, symSize: 0x5CC }
  - { offset: 0x3C1E47, size: 0x8, addend: 0x0, symName: __ZN14llm_build_olmoC2ERK11llama_modelRK16llm_graph_paramsP11ggml_cgraph, symObjAddr: 0x416F4, symBinAddr: 0x95E8C, symSize: 0x604 }
  - { offset: 0x3C24C0, size: 0x8, addend: 0x0, symName: __ZN15llm_build_olmo2C2ERK11llama_modelRK16llm_graph_paramsP11ggml_cgraph, symObjAddr: 0x41CF8, symBinAddr: 0x96490, symSize: 0x5D0 }
  - { offset: 0x3C2BA1, size: 0x8, addend: 0x0, symName: __ZN15llm_build_olmoeC2ERK11llama_modelRK16llm_graph_paramsP11ggml_cgraph, symObjAddr: 0x422C8, symBinAddr: 0x96A60, symSize: 0x5AC }
  - { offset: 0x3C3277, size: 0x8, addend: 0x0, symName: __ZN17llm_build_openelmC2ERK11llama_modelRK16llm_graph_paramsP11ggml_cgraph, symObjAddr: 0x42874, symBinAddr: 0x9700C, symSize: 0x628 }
  - { offset: 0x3C39AF, size: 0x8, addend: 0x0, symName: __ZN17llm_build_gptneoxC2ERK11llama_modelRK16llm_graph_paramsP11ggml_cgraph, symObjAddr: 0x42E9C, symBinAddr: 0x97634, symSize: 0x6C0 }
  - { offset: 0x3C415C, size: 0x8, addend: 0x0, symName: __ZN16llm_build_arcticC2ERK11llama_modelRK16llm_graph_paramsP11ggml_cgraph, symObjAddr: 0x4355C, symBinAddr: 0x97CF4, symSize: 0x614 }
  - { offset: 0x3C4868, size: 0x8, addend: 0x0, symName: __ZN18llm_build_deepseekC2ERK11llama_modelRK16llm_graph_paramsP11ggml_cgraph, symObjAddr: 0x43B70, symBinAddr: 0x98308, symSize: 0x730 }
  - { offset: 0x3C503F, size: 0x8, addend: 0x0, symName: __ZN19llm_build_deepseek2C2ERK11llama_modelRK16llm_graph_paramsP11ggml_cgraph, symObjAddr: 0x442A0, symBinAddr: 0x98A38, symSize: 0xC80 }
  - { offset: 0x3C5D32, size: 0x8, addend: 0x0, symName: __ZN17llm_build_chatglmC2ERK11llama_modelRK16llm_graph_paramsP11ggml_cgraph, symObjAddr: 0x44F20, symBinAddr: 0x996B8, symSize: 0x634 }
  - { offset: 0x3C6534, size: 0x8, addend: 0x0, symName: __ZN14llm_build_glm4C2ERK11llama_modelRK16llm_graph_paramsP11ggml_cgraph, symObjAddr: 0x45554, symBinAddr: 0x99CEC, symSize: 0x6B4 }
  - { offset: 0x3C6D84, size: 0x8, addend: 0x0, symName: __ZN16llm_build_bitnetC2ERK11llama_modelRK16llm_graph_paramsP11ggml_cgraph, symObjAddr: 0x45C08, symBinAddr: 0x9A3A0, symSize: 0x748 }
  - { offset: 0x3C765F, size: 0x8, addend: 0x0, symName: __ZN16llm_build_t5_encC2ERK11llama_modelRK16llm_graph_paramsP11ggml_cgraph, symObjAddr: 0x46350, symBinAddr: 0x9AAE8, symSize: 0x4B4 }
  - { offset: 0x3C7CE1, size: 0x8, addend: 0x0, symName: __ZN16llm_build_t5_decC2ERK11llama_modelRK16llm_graph_paramsP11ggml_cgraph, symObjAddr: 0x46804, symBinAddr: 0x9AF9C, symSize: 0x6D8 }
  - { offset: 0x3C8543, size: 0x8, addend: 0x0, symName: __ZN14llm_build_jaisC2ERK11llama_modelRK16llm_graph_paramsP11ggml_cgraph, symObjAddr: 0x46EDC, symBinAddr: 0x9B674, symSize: 0x510 }
  - { offset: 0x3C8C08, size: 0x8, addend: 0x0, symName: __ZN18llm_build_nemotronC2ERK11llama_modelRK16llm_graph_paramsP11ggml_cgraph, symObjAddr: 0x473EC, symBinAddr: 0x9BB84, symSize: 0x5BC }
  - { offset: 0x3C9321, size: 0x8, addend: 0x0, symName: __ZN16llm_build_exaoneC2ERK11llama_modelRK16llm_graph_paramsP11ggml_cgraph, symObjAddr: 0x479A8, symBinAddr: 0x9C140, symSize: 0x640 }
  - { offset: 0x3C9A86, size: 0x8, addend: 0x0, symName: __ZN15llm_build_rwkv6C2ERK11llama_modelRK16llm_graph_paramsP11ggml_cgraph, symObjAddr: 0x47FE8, symBinAddr: 0x9C780, symSize: 0x5E4 }
  - { offset: 0x3CA398, size: 0x8, addend: 0x0, symName: __ZN20llm_build_rwkv6qwen2C2ERK11llama_modelRK16llm_graph_paramsP11ggml_cgraph, symObjAddr: 0x49104, symBinAddr: 0x9D89C, symSize: 0x47C }
  - { offset: 0x3CAAC0, size: 0x8, addend: 0x0, symName: __ZN15llm_build_rwkv7C2ERK11llama_modelRK16llm_graph_paramsP11ggml_cgraph, symObjAddr: 0x49580, symBinAddr: 0x9DD18, symSize: 0x5FC }
  - { offset: 0x3CB3BE, size: 0x8, addend: 0x0, symName: __ZN16llm_build_arwkv7C2ERK11llama_modelRK16llm_graph_paramsP11ggml_cgraph, symObjAddr: 0x4A3F8, symBinAddr: 0x9EB90, symSize: 0x484 }
  - { offset: 0x3CBAF9, size: 0x8, addend: 0x0, symName: __ZN19llm_build_chameleonC2ERK11llama_modelRK16llm_graph_paramsP11ggml_cgraph, symObjAddr: 0x4B09C, symBinAddr: 0x9F834, symSize: 0x818 }
  - { offset: 0x3CC3B9, size: 0x8, addend: 0x0, symName: __ZN26llm_build_wavtokenizer_decC2ERK11llama_modelRK16llm_graph_paramsP11ggml_cgraph, symObjAddr: 0x4B8B4, symBinAddr: 0xA004C, symSize: 0x618 }
  - { offset: 0x3CCBE7, size: 0x8, addend: 0x0, symName: __ZN13llm_build_plmC2ERK11llama_modelRK16llm_graph_paramsP11ggml_cgraph, symObjAddr: 0x4BECC, symBinAddr: 0xA0664, symSize: 0x8C0 }
  - { offset: 0x3CD5E4, size: 0x8, addend: 0x0, symName: __ZN20llm_build_bailingmoeC2ERK11llama_modelRK16llm_graph_paramsP11ggml_cgraph, symObjAddr: 0x4C78C, symBinAddr: 0xA0F24, symSize: 0x660 }
  - { offset: 0x3CDC23, size: 0x8, addend: 0x0, symName: _llama_model_default_params, symObjAddr: 0x236B8, symBinAddr: 0x8144C, symSize: 0x28 }
  - { offset: 0x3CDC4F, size: 0x8, addend: 0x0, symName: _llama_model_get_vocab, symObjAddr: 0x236E0, symBinAddr: 0x81474, symSize: 0xC }
  - { offset: 0x3CDCB0, size: 0x8, addend: 0x0, symName: _llama_free_model, symObjAddr: 0x236EC, symBinAddr: 0x81480, symSize: 0x1C }
  - { offset: 0x3CDCD9, size: 0x8, addend: 0x0, symName: _llama_free_model, symObjAddr: 0x236EC, symBinAddr: 0x81480, symSize: 0x1C }
  - { offset: 0x3CDD1F, size: 0x8, addend: 0x0, symName: _llama_model_free, symObjAddr: 0x23708, symBinAddr: 0x8149C, symSize: 0x1C }
  - { offset: 0x3CDD65, size: 0x8, addend: 0x0, symName: _llama_model_n_ctx_train, symObjAddr: 0x23724, symBinAddr: 0x814B8, symSize: 0x8 }
  - { offset: 0x3CDD82, size: 0x8, addend: 0x0, symName: _llama_model_n_embd, symObjAddr: 0x2372C, symBinAddr: 0x814C0, symSize: 0x8 }
  - { offset: 0x3CDD9F, size: 0x8, addend: 0x0, symName: _llama_model_n_layer, symObjAddr: 0x23734, symBinAddr: 0x814C8, symSize: 0x8 }
  - { offset: 0x3CDDBC, size: 0x8, addend: 0x0, symName: _llama_model_n_head, symObjAddr: 0x2373C, symBinAddr: 0x814D0, symSize: 0xC }
  - { offset: 0x3CDDDA, size: 0x8, addend: 0x0, symName: _llama_model_n_head_kv, symObjAddr: 0x23748, symBinAddr: 0x814DC, symSize: 0xC }
  - { offset: 0x3CDE07, size: 0x8, addend: 0x0, symName: _llama_model_n_swa, symObjAddr: 0x23754, symBinAddr: 0x814E8, symSize: 0x8 }
  - { offset: 0x3CDE34, size: 0x8, addend: 0x0, symName: _llama_model_n_cls_out, symObjAddr: 0x2375C, symBinAddr: 0x814F0, symSize: 0x8 }
  - { offset: 0x3CDE85, size: 0x8, addend: 0x0, symName: _llama_model_cls_label, symObjAddr: 0x23764, symBinAddr: 0x814F8, symSize: 0x4C }
  - { offset: 0x3CDF98, size: 0x8, addend: 0x0, symName: _llama_n_ctx_train, symObjAddr: 0x237B0, symBinAddr: 0x81544, symSize: 0x8 }
  - { offset: 0x3CDFC7, size: 0x8, addend: 0x0, symName: _llama_n_ctx_train, symObjAddr: 0x237B0, symBinAddr: 0x81544, symSize: 0x8 }
  - { offset: 0x3CDFFD, size: 0x8, addend: 0x0, symName: _llama_n_embd, symObjAddr: 0x237B8, symBinAddr: 0x8154C, symSize: 0x8 }
  - { offset: 0x3CE02C, size: 0x8, addend: 0x0, symName: _llama_n_embd, symObjAddr: 0x237B8, symBinAddr: 0x8154C, symSize: 0x8 }
  - { offset: 0x3CE062, size: 0x8, addend: 0x0, symName: _llama_n_layer, symObjAddr: 0x237C0, symBinAddr: 0x81554, symSize: 0x8 }
  - { offset: 0x3CE091, size: 0x8, addend: 0x0, symName: _llama_n_layer, symObjAddr: 0x237C0, symBinAddr: 0x81554, symSize: 0x8 }
  - { offset: 0x3CE0C7, size: 0x8, addend: 0x0, symName: _llama_n_head, symObjAddr: 0x237C8, symBinAddr: 0x8155C, symSize: 0xC }
  - { offset: 0x3CE0F6, size: 0x8, addend: 0x0, symName: _llama_n_head, symObjAddr: 0x237C8, symBinAddr: 0x8155C, symSize: 0xC }
  - { offset: 0x3CE113, size: 0x8, addend: 0x0, symName: _llama_model_rope_freq_scale_train, symObjAddr: 0x237D4, symBinAddr: 0x81568, symSize: 0x8 }
  - { offset: 0x3CE165, size: 0x8, addend: 0x0, symName: _llama_model_meta_val_str, symObjAddr: 0x237DC, symBinAddr: 0x81570, symSize: 0x148 }
  - { offset: 0x3CE8BD, size: 0x8, addend: 0x0, symName: __ZNKSt3__112__hash_tableINS_17__hash_value_typeINS_12basic_stringIcNS_11char_traitsIcEENS_9allocatorIcEEEES7_EENS_22__unordered_map_hasherIS7_S8_NS_4hashIS7_EENS_8equal_toIS7_EELb1EEENS_21__unordered_map_equalIS7_S8_SD_SB_Lb1EEENS5_IS8_EEE4findIS7_EENS_21__hash_const_iteratorIPNS_11__hash_nodeIS8_PvEEEERKT_, symObjAddr: 0x4CDEC, symBinAddr: 0xA1584, symSize: 0x22C }
  - { offset: 0x3CEBD4, size: 0x8, addend: 0x0, symName: _llama_model_meta_count, symObjAddr: 0x23924, symBinAddr: 0x816B8, symSize: 0x8 }
  - { offset: 0x3CEC03, size: 0x8, addend: 0x0, symName: _llama_model_meta_count, symObjAddr: 0x23924, symBinAddr: 0x816B8, symSize: 0x8 }
  - { offset: 0x3CEC22, size: 0x8, addend: 0x0, symName: _llama_model_meta_count, symObjAddr: 0x23924, symBinAddr: 0x816B8, symSize: 0x8 }
  - { offset: 0x3CECDB, size: 0x8, addend: 0x0, symName: _llama_model_meta_key_by_index, symObjAddr: 0x2392C, symBinAddr: 0x816C0, symSize: 0x8C }
  - { offset: 0x3CEF1B, size: 0x8, addend: 0x0, symName: _llama_model_meta_val_str_by_index, symObjAddr: 0x239B8, symBinAddr: 0x8174C, symSize: 0x8C }
  - { offset: 0x3CF12B, size: 0x8, addend: 0x0, symName: _llama_model_desc, symObjAddr: 0x23A44, symBinAddr: 0x817D8, symSize: 0xAC }
  - { offset: 0x3CF40B, size: 0x8, addend: 0x0, symName: _llama_model_size, symObjAddr: 0x23AF0, symBinAddr: 0x81884, symSize: 0xC }
  - { offset: 0x3CF43A, size: 0x8, addend: 0x0, symName: _llama_model_size, symObjAddr: 0x23AF0, symBinAddr: 0x81884, symSize: 0xC }
  - { offset: 0x3CF456, size: 0x8, addend: 0x0, symName: _llama_model_size, symObjAddr: 0x23AF0, symBinAddr: 0x81884, symSize: 0xC }
  - { offset: 0x3CF475, size: 0x8, addend: 0x0, symName: _llama_model_chat_template, symObjAddr: 0x23AFC, symBinAddr: 0x81890, symSize: 0x120 }
  - { offset: 0x3CF813, size: 0x8, addend: 0x0, symName: _llama_model_n_params, symObjAddr: 0x23C1C, symBinAddr: 0x819B0, symSize: 0xC }
  - { offset: 0x3CF842, size: 0x8, addend: 0x0, symName: _llama_model_n_params, symObjAddr: 0x23C1C, symBinAddr: 0x819B0, symSize: 0xC }
  - { offset: 0x3CF85E, size: 0x8, addend: 0x0, symName: _llama_model_n_params, symObjAddr: 0x23C1C, symBinAddr: 0x819B0, symSize: 0xC }
  - { offset: 0x3CF87D, size: 0x8, addend: 0x0, symName: _llama_model_has_encoder, symObjAddr: 0x23C28, symBinAddr: 0x819BC, symSize: 0x14 }
  - { offset: 0x3CF8AA, size: 0x8, addend: 0x0, symName: _llama_model_has_decoder, symObjAddr: 0x23C3C, symBinAddr: 0x819D0, symSize: 0x10 }
  - { offset: 0x3CF8D7, size: 0x8, addend: 0x0, symName: _llama_model_decoder_start_token, symObjAddr: 0x23C4C, symBinAddr: 0x819E0, symSize: 0x8 }
  - { offset: 0x3CF904, size: 0x8, addend: 0x0, symName: _llama_model_is_recurrent, symObjAddr: 0x23C54, symBinAddr: 0x819E8, symSize: 0x20 }
  - { offset: 0x3CF931, size: 0x8, addend: 0x0, symName: __Z29llama_internal_get_tensor_mapPK11llama_model, symObjAddr: 0x23C74, symBinAddr: 0x81A08, symSize: 0xC }
  - { offset: 0x3D002C, size: 0x8, addend: 0x0, symName: __ZNSt3__111basic_regexIcNS_12regex_traitsIcEEE13__parse_egrepIPKcEET_S7_S7_, symObjAddr: 0x24870, symBinAddr: 0x823D4, symSize: 0x1B8 }
  - { offset: 0x3D0572, size: 0x8, addend: 0x0, symName: __ZNSt3__111basic_regexIcNS_12regex_traitsIcEEE24__parse_extended_reg_expIPKcEET_S7_S7_, symObjAddr: 0x2454C, symBinAddr: 0x820B0, symSize: 0x16C }
  - { offset: 0x3D0899, size: 0x8, addend: 0x0, symName: __ZNSt3__111basic_regexIcNS_12regex_traitsIcEEE12__parse_grepIPKcEET_S7_S7_, symObjAddr: 0x246B8, symBinAddr: 0x8221C, symSize: 0x1B8 }
  - { offset: 0x3D08AD, size: 0x8, addend: 0x0, symName: __ZNSt3__111basic_regexIcNS_12regex_traitsIcEEE19__parse_alternativeIPKcEET_S7_S7_, symObjAddr: 0x24C64, symBinAddr: 0x8258C, symSize: 0xA0 }
  - { offset: 0x3D09AB, size: 0x8, addend: 0x0, symName: __ZNSt3__111basic_regexIcNS_12regex_traitsIcEEE21__parse_basic_reg_expIPKcEET_S7_S7_, symObjAddr: 0x243D4, symBinAddr: 0x81F38, symSize: 0x178 }
  - { offset: 0x3D0D0C, size: 0x8, addend: 0x0, symName: __ZNSt3__111basic_regexIcNS_12regex_traitsIcEEE24__parse_extended_reg_expIPKcEET_S7_S7_, symObjAddr: 0x2454C, symBinAddr: 0x820B0, symSize: 0x16C }
  - { offset: 0x3D0D20, size: 0x8, addend: 0x0, symName: __ZNSt3__111basic_regexIcNS_12regex_traitsIcEEE12__parse_grepIPKcEET_S7_S7_, symObjAddr: 0x246B8, symBinAddr: 0x8221C, symSize: 0x1B8 }
  - { offset: 0x3D12AD, size: 0x8, addend: 0x0, symName: __ZNSt3__111basic_regexIcNS_12regex_traitsIcEEE16__parse_ecma_expIPKcEET_S7_S7_, symObjAddr: 0x24234, symBinAddr: 0x81D98, symSize: 0x1A0 }
  - { offset: 0x3D16C7, size: 0x8, addend: 0x0, symName: __ZNSt3__111basic_regexIcNS_12regex_traitsIcEEE12__parse_termIPKcEET_S7_S7_, symObjAddr: 0x24D04, symBinAddr: 0x8262C, symSize: 0x94 }
  - { offset: 0x3D1961, size: 0x8, addend: 0x0, symName: __ZNSt3__111basic_regexIcNS_12regex_traitsIcEEE18__parse_nondupl_REIPKcEET_S7_S7_, symObjAddr: 0x2C8B0, symBinAddr: 0x849F0, symSize: 0x224 }
  - { offset: 0x3D1E8C, size: 0x8, addend: 0x0, symName: __ZNSt3__111basic_regexIcNS_12regex_traitsIcEEE22__parse_RE_dupl_symbolIPKcEET_S7_S7_PNS_16__owns_one_stateIcEEjj, symObjAddr: 0x2CAD4, symBinAddr: 0x84C14, symSize: 0x274 }
  - { offset: 0x3D1EA0, size: 0x8, addend: 0x0, symName: __ZNSt3__111basic_regexIcNS_12regex_traitsIcEEE22__parse_RE_dupl_symbolIPKcEET_S7_S7_PNS_16__owns_one_stateIcEEjj, symObjAddr: 0x2CAD4, symBinAddr: 0x84C14, symSize: 0x274 }
  - { offset: 0x3D2402, size: 0x8, addend: 0x0, symName: __ZNSt3__111basic_regexIcNS_12regex_traitsIcEEE32__parse_one_char_or_coll_elem_REIPKcEET_S7_S7_, symObjAddr: 0x2CD48, symBinAddr: 0x84E88, symSize: 0x140 }
  - { offset: 0x3D245B, size: 0x8, addend: 0x0, symName: __ZNSt3__111basic_regexIcNS_12regex_traitsIcEEE22__parse_ERE_expressionIPKcEET_S7_S7_, symObjAddr: 0x2CFB0, symBinAddr: 0x84FC8, symSize: 0x284 }
  - { offset: 0x3D28EE, size: 0x8, addend: 0x0, symName: __ZNSt3__111basic_regexIcNS_12regex_traitsIcEEE20__parse_ORD_CHAR_EREIPKcEET_S7_S7_, symObjAddr: 0x2D234, symBinAddr: 0x8524C, symSize: 0x78 }
  - { offset: 0x3D29DA, size: 0x8, addend: 0x0, symName: __ZNSt3__111basic_regexIcNS_12regex_traitsIcEEE23__parse_ERE_dupl_symbolIPKcEET_S7_S7_PNS_16__owns_one_stateIcEEjj, symObjAddr: 0x25318, symBinAddr: 0x82C40, symSize: 0x3F4 }
  - { offset: 0x3D2F88, size: 0x8, addend: 0x0, symName: __ZNSt3__111basic_regexIcNS_12regex_traitsIcEEE17__parse_assertionIPKcEET_S7_S7_, symObjAddr: 0x24D98, symBinAddr: 0x826C0, symSize: 0x334 }
  - { offset: 0x3D35C2, size: 0x8, addend: 0x0, symName: __ZNSt3__111basic_regexIcNS_12regex_traitsIcEEE12__parse_atomIPKcEET_S7_S7_, symObjAddr: 0x250CC, symBinAddr: 0x829F4, symSize: 0x24C }
  - { offset: 0x3D3945, size: 0x8, addend: 0x0, symName: __ZNSt3__111basic_regexIcNS_12regex_traitsIcEEE23__parse_ERE_dupl_symbolIPKcEET_S7_S7_PNS_16__owns_one_stateIcEEjj, symObjAddr: 0x25318, symBinAddr: 0x82C40, symSize: 0x3F4 }
  - { offset: 0x3D3DE6, size: 0x8, addend: 0x0, symName: __ZNSt3__111basic_regexIcNS_12regex_traitsIcEEE26__parse_bracket_expressionIPKcEET_S7_S7_, symObjAddr: 0x26E2C, symBinAddr: 0x831AC, symSize: 0x150 }
  - { offset: 0x3D3FC0, size: 0x8, addend: 0x0, symName: __ZNSt3__111basic_regexIcNS_12regex_traitsIcEEE19__parse_atom_escapeIPKcEET_S7_S7_, symObjAddr: 0x26CB4, symBinAddr: 0x83034, symSize: 0x178 }
  - { offset: 0x3D416B, size: 0x8, addend: 0x0, symName: __ZNSt3__111basic_regexIcNS_12regex_traitsIcEEE26__parse_bracket_expressionIPKcEET_S7_S7_, symObjAddr: 0x26E2C, symBinAddr: 0x831AC, symSize: 0x150 }
  - { offset: 0x3D417F, size: 0x8, addend: 0x0, symName: __ZNSt3__111basic_regexIcNS_12regex_traitsIcEEE25__parse_pattern_characterIPKcEET_S7_S7_, symObjAddr: 0x26FC8, symBinAddr: 0x832FC, symSize: 0x70 }
  - { offset: 0x3D83C9, size: 0x8, addend: 0x0, symName: __ZNSt3__111basic_regexIcNS_12regex_traitsIcEEE30__parse_character_class_escapeIPKcEET_S7_S7_, symObjAddr: 0x2710C, symBinAddr: 0x8336C, symSize: 0x248 }
  - { offset: 0x3D8829, size: 0x8, addend: 0x0, symName: __ZNSt3__111basic_regexIcNS_12regex_traitsIcEEE24__parse_character_escapeIPKcEET_S7_S7_PNS_12basic_stringIcNS_11char_traitsIcEENS_9allocatorIcEEEE, symObjAddr: 0x27354, symBinAddr: 0x835B4, symSize: 0x3D0 }
  - { offset: 0x3D96F8, size: 0x8, addend: 0x0, symName: __ZNSt3__111basic_regexIcNS_12regex_traitsIcEEE23__parse_expression_termIPKcEET_S7_S7_PNS_20__bracket_expressionIcS2_EE, symObjAddr: 0x298D4, symBinAddr: 0x83984, symSize: 0x538 }
  - { offset: 0x3DBD1A, size: 0x8, addend: 0x0, symName: __ZNSt3__111basic_regexIcNS_12regex_traitsIcEEE25__parse_equivalence_classIPKcEET_S7_S7_PNS_20__bracket_expressionIcS2_EE, symObjAddr: 0x29E0C, symBinAddr: 0x83EBC, symSize: 0x26C }
  - { offset: 0x3DC7E2, size: 0x8, addend: 0x0, symName: __ZNSt3__111basic_regexIcNS_12regex_traitsIcEEE18__parse_awk_escapeIPKcEET_S7_S7_PNS_12basic_stringIcNS_11char_traitsIcEENS_9allocatorIcEEEE, symObjAddr: 0x2A2D0, symBinAddr: 0x84380, symSize: 0x2EC }
  - { offset: 0x3DC90D, size: 0x8, addend: 0x0, symName: __ZNSt3__111basic_regexIcNS_12regex_traitsIcEEE24__parse_collating_symbolIPKcEET_S7_S7_RNS_12basic_stringIcNS_11char_traitsIcEENS_9allocatorIcEEEE, symObjAddr: 0x2A078, symBinAddr: 0x84128, symSize: 0xFC }
  - { offset: 0x3DCC64, size: 0x8, addend: 0x0, symName: __ZNSt3__111basic_regexIcNS_12regex_traitsIcEEE20__parse_class_escapeIPKcEET_S7_S7_RNS_12basic_stringIcNS_11char_traitsIcEENS_9allocatorIcEEEEPNS_20__bracket_expressionIcS2_EE, symObjAddr: 0x2A174, symBinAddr: 0x84224, symSize: 0x15C }
  - { offset: 0x3DCC6F, size: 0x8, addend: 0x0, symName: __ZNKSt3__112regex_traitsIcE18__lookup_classnameIPKcEEjT_S5_bc, symObjAddr: 0x2B5DC, symBinAddr: 0x848A8, symSize: 0x148 }
  - { offset: 0x3DD2FB, size: 0x8, addend: 0x0, symName: __ZNKSt3__112regex_traitsIcE20__lookup_collatenameIPKcEENS_12basic_stringIcNS_11char_traitsIcEENS_9allocatorIcEEEET_SB_c, symObjAddr: 0x2AF14, symBinAddr: 0x8466C, symSize: 0x23C }
  - { offset: 0x3DE525, size: 0x8, addend: 0x0, symName: __ZNSt3__111basic_regexIcNS_12regex_traitsIcEEE20__parse_class_escapeIPKcEET_S7_S7_RNS_12basic_stringIcNS_11char_traitsIcEENS_9allocatorIcEEEEPNS_20__bracket_expressionIcS2_EE, symObjAddr: 0x2A174, symBinAddr: 0x84224, symSize: 0x15C }
  - { offset: 0x3DE6C3, size: 0x8, addend: 0x0, symName: __ZNSt3__111basic_regexIcNS_12regex_traitsIcEEE18__parse_awk_escapeIPKcEET_S7_S7_PNS_12basic_stringIcNS_11char_traitsIcEENS_9allocatorIcEEEE, symObjAddr: 0x2A2D0, symBinAddr: 0x84380, symSize: 0x2EC }
  - { offset: 0x3E1FA5, size: 0x8, addend: 0x0, symName: __ZNSt3__111basic_regexIcNS_12regex_traitsIcEEE32__parse_one_char_or_coll_elem_REIPKcEET_S7_S7_, symObjAddr: 0x2CD48, symBinAddr: 0x84E88, symSize: 0x140 }
  - { offset: 0x3E236A, size: 0x8, addend: 0x0, symName: __ZNSt3__111basic_regexIcNS_12regex_traitsIcEEE22__parse_ERE_expressionIPKcEET_S7_S7_, symObjAddr: 0x2CFB0, symBinAddr: 0x84FC8, symSize: 0x284 }
  - { offset: 0x3E23BA, size: 0x8, addend: 0x0, symName: __ZNSt3__111basic_regexIcNS_12regex_traitsIcEEE20__parse_ORD_CHAR_EREIPKcEET_S7_S7_, symObjAddr: 0x2D234, symBinAddr: 0x8524C, symSize: 0x78 }
  - { offset: 0x3E241C, size: 0x8, addend: 0x0, symName: __ZNSt3__111basic_regexIcNS_12regex_traitsIcEEE23__parse_QUOTED_CHAR_EREIPKcEET_S7_S7_, symObjAddr: 0x2D2AC, symBinAddr: 0x852C4, symSize: 0xC0 }
  - { offset: 0x3E890A, size: 0x8, addend: 0x0, symName: __ZNSt3__117bad_function_callD1Ev, symObjAddr: 0x30038, symBinAddr: 0x853B8, symSize: 0x4 }
  - { offset: 0x3E892C, size: 0x8, addend: 0x0, symName: __ZNSt3__117bad_function_callD1Ev, symObjAddr: 0x30038, symBinAddr: 0x853B8, symSize: 0x4 }
  - { offset: 0x3E8960, size: 0x8, addend: 0x0, symName: __ZNSt3__117bad_function_callD0Ev, symObjAddr: 0x3003C, symBinAddr: 0x853BC, symSize: 0x14 }
  - { offset: 0x3E8F0A, size: 0x8, addend: 0x0, symName: __ZNSt3__13mapI23llama_rope_scaling_typePKcNS_4lessIS1_EENS_9allocatorINS_4pairIKS1_S3_EEEEEC2B8ne180100ESt16initializer_listIS9_ERKS5_, symObjAddr: 0x30358, symBinAddr: 0x853D0, symSize: 0xF0 }
  - { offset: 0x3E92E5, size: 0x8, addend: 0x0, symName: __ZNSt3__16__treeINS_12__value_typeI23llama_rope_scaling_typePKcEENS_19__map_value_compareIS2_S5_NS_4lessIS2_EELb1EEENS_9allocatorIS5_EEE12__find_equalIS2_EERPNS_16__tree_node_baseIPvEENS_21__tree_const_iteratorIS5_PNS_11__tree_nodeIS5_SF_EElEERPNS_15__tree_end_nodeISH_EESI_RKT_, symObjAddr: 0x30448, symBinAddr: 0x854C0, symSize: 0x1B0 }
  - { offset: 0x3E934E, size: 0x8, addend: 0x0, symName: __ZNSt3__16__treeINS_12__value_typeI23llama_rope_scaling_typePKcEENS_19__map_value_compareIS2_S5_NS_4lessIS2_EELb1EEENS_9allocatorIS5_EEE12__find_equalIS2_EERPNS_16__tree_node_baseIPvEENS_21__tree_const_iteratorIS5_PNS_11__tree_nodeIS5_SF_EElEERPNS_15__tree_end_nodeISH_EESI_RKT_, symObjAddr: 0x30448, symBinAddr: 0x854C0, symSize: 0x1B0 }
  - { offset: 0x3E936A, size: 0x8, addend: 0x0, symName: __ZNSt3__16__treeINS_12__value_typeI23llama_rope_scaling_typePKcEENS_19__map_value_compareIS2_S5_NS_4lessIS2_EELb1EEENS_9allocatorIS5_EEE12__find_equalIS2_EERPNS_16__tree_node_baseIPvEENS_21__tree_const_iteratorIS5_PNS_11__tree_nodeIS5_SF_EElEERPNS_15__tree_end_nodeISH_EESI_RKT_, symObjAddr: 0x30448, symBinAddr: 0x854C0, symSize: 0x1B0 }
  - { offset: 0x3E9C2F, size: 0x8, addend: 0x0, symName: __ZNSt3__16__treeINS_12__value_typeIP19ggml_backend_deviceNS_6vectorINS_4pairIS3_P24ggml_backend_buffer_typeEENS_9allocatorIS8_EEEEEENS_19__map_value_compareIS3_SC_NS_4lessIS3_EELb1EEENS9_ISC_EEE7destroyEPNS_11__tree_nodeISC_PvEE, symObjAddr: 0x30818, symBinAddr: 0x85890, symSize: 0x50 }
  - { offset: 0x3EA2E8, size: 0x8, addend: 0x0, symName: __ZNSt3__112__hash_tableINS_17__hash_value_typeINS_12basic_stringIcNS_11char_traitsIcEENS_9allocatorIcEEEES7_EENS_22__unordered_map_hasherIS7_S8_NS_4hashIS7_EENS_8equal_toIS7_EELb1EEENS_21__unordered_map_equalIS7_S8_SD_SB_Lb1EEENS5_IS8_EEE11__do_rehashILb1EEEvm, symObjAddr: 0x31114, symBinAddr: 0x85D40, symSize: 0x1AC }
  - { offset: 0x3EAF06, size: 0x8, addend: 0x0, symName: __ZNKSt3__16vectorIN11llama_model4impl9layer_devENS_9allocatorIS3_EEE20__throw_length_errorB8ne180100Ev, symObjAddr: 0x31818, symBinAddr: 0x863A4, symSize: 0x14 }
  - { offset: 0x3EB31A, size: 0x8, addend: 0x0, symName: __ZNKSt3__16vectorI11llama_layerNS_9allocatorIS1_EEE20__throw_length_errorB8ne180100Ev, symObjAddr: 0x31A4C, symBinAddr: 0x86598, symSize: 0x14 }
  - { offset: 0x3EB34F, size: 0x8, addend: 0x0, symName: __ZNSt3__114__split_bufferINS_4pairIP12ggml_contextNS_13unordered_mapIjP19ggml_backend_bufferNS_4hashIjEENS_8equal_toIjEENS_9allocatorINS1_IKjS6_EEEEEEEERNSB_ISG_EEED1Ev, symObjAddr: 0x31A88, symBinAddr: 0x865C0, symSize: 0x7C }
  - { offset: 0x3EB7B4, size: 0x8, addend: 0x0, symName: __ZNSt3__112__hash_tableINS_17__hash_value_typeIjP19ggml_backend_bufferEENS_22__unordered_map_hasherIjS4_NS_4hashIjEENS_8equal_toIjEELb1EEENS_21__unordered_map_equalIjS4_S9_S7_Lb1EEENS_9allocatorIS4_EEED1Ev, symObjAddr: 0x31B18, symBinAddr: 0x8663C, symSize: 0x48 }
  - { offset: 0x3EC20A, size: 0x8, addend: 0x0, symName: __ZNSt3__16vectorINS_4pairIP12ggml_contextNS_13unordered_mapIjP19ggml_backend_bufferNS_4hashIjEENS_8equal_toIjEENS_9allocatorINS1_IKjS6_EEEEEEEENSB_ISG_EEE24__emplace_back_slow_pathIJRS3_RSF_EEEPSG_DpOT_, symObjAddr: 0x32398, symBinAddr: 0x86CEC, symSize: 0x238 }
  - { offset: 0x3EC575, size: 0x8, addend: 0x0, symName: __ZNSt3__112__hash_tableINS_17__hash_value_typeIjP19ggml_backend_bufferEENS_22__unordered_map_hasherIjS4_NS_4hashIjEENS_8equal_toIjEELb1EEENS_21__unordered_map_equalIjS4_S9_S7_Lb1EEENS_9allocatorIS4_EEE25__emplace_unique_key_argsIjJRKNS_4pairIKjS3_EEEEENSH_INS_15__hash_iteratorIPNS_11__hash_nodeIS4_PvEEEEbEERKT_DpOT0_, symObjAddr: 0x32710, symBinAddr: 0x87064, symSize: 0x300 }
  - { offset: 0x3ED0C6, size: 0x8, addend: 0x0, symName: __ZNKSt3__16vectorINS_4pairINS_12basic_stringIcNS_11char_traitsIcEENS_9allocatorIcEEEEP11ggml_tensorEENS5_ISA_EEE20__throw_length_errorB8ne180100Ev, symObjAddr: 0x32C8C, symBinAddr: 0x875E0, symSize: 0x14 }
  - { offset: 0x3ED0FB, size: 0x8, addend: 0x0, symName: __ZNSt3__114__split_bufferINS_4pairINS_12basic_stringIcNS_11char_traitsIcEENS_9allocatorIcEEEEP11ggml_tensorEERNS5_ISA_EEED1Ev, symObjAddr: 0x32C28, symBinAddr: 0x8757C, symSize: 0x64 }
  - { offset: 0x3ED3AD, size: 0x8, addend: 0x0, symName: '__ZNSt3__110__function6__funcIZNK11llama_model10print_infoEvE3$_1NS_9allocatorIS3_EEFjjEED1Ev', symObjAddr: 0x32E5C, symBinAddr: 0x875F4, symSize: 0x4 }
  - { offset: 0x3ED3D8, size: 0x8, addend: 0x0, symName: '__ZNSt3__110__function6__funcIZNK11llama_model10print_infoEvE3$_1NS_9allocatorIS3_EEFjjEED0Ev', symObjAddr: 0x32E60, symBinAddr: 0x875F8, symSize: 0x4 }
  - { offset: 0x3ED48D, size: 0x8, addend: 0x0, symName: '__ZNKSt3__110__function6__funcIZNK11llama_model10print_infoEvE3$_1NS_9allocatorIS3_EEFjjEE7__cloneEv', symObjAddr: 0x32E64, symBinAddr: 0x875FC, symSize: 0x34 }
  - { offset: 0x3ED5DA, size: 0x8, addend: 0x0, symName: '__ZNKSt3__110__function6__funcIZNK11llama_model10print_infoEvE3$_1NS_9allocatorIS3_EEFjjEE7__cloneEPNS0_6__baseIS6_EE', symObjAddr: 0x32E98, symBinAddr: 0x87630, symSize: 0x14 }
  - { offset: 0x3ED64A, size: 0x8, addend: 0x0, symName: '__ZNSt3__110__function6__funcIZNK11llama_model10print_infoEvE3$_1NS_9allocatorIS3_EEFjjEE7destroyEv', symObjAddr: 0x32EAC, symBinAddr: 0x87644, symSize: 0x4 }
  - { offset: 0x3ED69B, size: 0x8, addend: 0x0, symName: '__ZNSt3__110__function6__funcIZNK11llama_model10print_infoEvE3$_1NS_9allocatorIS3_EEFjjEE18destroy_deallocateEv', symObjAddr: 0x32EB0, symBinAddr: 0x87648, symSize: 0x4 }
  - { offset: 0x3ED6D0, size: 0x8, addend: 0x0, symName: '__ZNSt3__110__function6__funcIZNK11llama_model10print_infoEvE3$_1NS_9allocatorIS3_EEFjjEE18destroy_deallocateEv', symObjAddr: 0x32EB0, symBinAddr: 0x87648, symSize: 0x4 }
  - { offset: 0x3ED6F3, size: 0x8, addend: 0x0, symName: '__ZNSt3__110__function6__funcIZNK11llama_model10print_infoEvE3$_1NS_9allocatorIS3_EEFjjEE18destroy_deallocateEv', symObjAddr: 0x32EB0, symBinAddr: 0x87648, symSize: 0x4 }
  - { offset: 0x3ED71F, size: 0x8, addend: 0x0, symName: '__ZNSt3__110__function6__funcIZNK11llama_model10print_infoEvE3$_1NS_9allocatorIS3_EEFjjEE18destroy_deallocateEv', symObjAddr: 0x32EB0, symBinAddr: 0x87648, symSize: 0x4 }
  - { offset: 0x3ED745, size: 0x8, addend: 0x0, symName: '__ZNSt3__110__function6__funcIZNK11llama_model10print_infoEvE3$_1NS_9allocatorIS3_EEFjjEE18destroy_deallocateEv', symObjAddr: 0x32EB0, symBinAddr: 0x87648, symSize: 0x4 }
  - { offset: 0x3ED7EB, size: 0x8, addend: 0x0, symName: '__ZNSt3__110__function6__funcIZNK11llama_model10print_infoEvE3$_1NS_9allocatorIS3_EEFjjEEclEOj', symObjAddr: 0x32EB4, symBinAddr: 0x8764C, symSize: 0x10 }
  - { offset: 0x3ED883, size: 0x8, addend: 0x0, symName: '__ZNKSt3__110__function6__funcIZNK11llama_model10print_infoEvE3$_1NS_9allocatorIS3_EEFjjEE6targetERKSt9type_info', symObjAddr: 0x32EC4, symBinAddr: 0x8765C, symSize: 0x6C }
  - { offset: 0x3ED91E, size: 0x8, addend: 0x0, symName: '__ZNKSt3__110__function6__funcIZNK11llama_model10print_infoEvE3$_1NS_9allocatorIS3_EEFjjEE11target_typeEv', symObjAddr: 0x32F30, symBinAddr: 0x876C8, symSize: 0xC }
  - { offset: 0x3ED943, size: 0x8, addend: 0x0, symName: '__ZNSt3__110__function6__funcIZNK11llama_model10print_infoEvE3$_2NS_9allocatorIS3_EEFjjEED1Ev', symObjAddr: 0x32F3C, symBinAddr: 0x876D4, symSize: 0x4 }
  - { offset: 0x3ED96E, size: 0x8, addend: 0x0, symName: '__ZNSt3__110__function6__funcIZNK11llama_model10print_infoEvE3$_2NS_9allocatorIS3_EEFjjEED0Ev', symObjAddr: 0x32F40, symBinAddr: 0x876D8, symSize: 0x4 }
  - { offset: 0x3EDA23, size: 0x8, addend: 0x0, symName: '__ZNKSt3__110__function6__funcIZNK11llama_model10print_infoEvE3$_2NS_9allocatorIS3_EEFjjEE7__cloneEv', symObjAddr: 0x32F44, symBinAddr: 0x876DC, symSize: 0x34 }
  - { offset: 0x3EDB70, size: 0x8, addend: 0x0, symName: '__ZNKSt3__110__function6__funcIZNK11llama_model10print_infoEvE3$_2NS_9allocatorIS3_EEFjjEE7__cloneEPNS0_6__baseIS6_EE', symObjAddr: 0x32F78, symBinAddr: 0x87710, symSize: 0x14 }
  - { offset: 0x3EDBE0, size: 0x8, addend: 0x0, symName: '__ZNSt3__110__function6__funcIZNK11llama_model10print_infoEvE3$_2NS_9allocatorIS3_EEFjjEE7destroyEv', symObjAddr: 0x32F8C, symBinAddr: 0x87724, symSize: 0x4 }
  - { offset: 0x3EDC31, size: 0x8, addend: 0x0, symName: '__ZNSt3__110__function6__funcIZNK11llama_model10print_infoEvE3$_2NS_9allocatorIS3_EEFjjEE18destroy_deallocateEv', symObjAddr: 0x32F90, symBinAddr: 0x87728, symSize: 0x4 }
  - { offset: 0x3EDC66, size: 0x8, addend: 0x0, symName: '__ZNSt3__110__function6__funcIZNK11llama_model10print_infoEvE3$_2NS_9allocatorIS3_EEFjjEE18destroy_deallocateEv', symObjAddr: 0x32F90, symBinAddr: 0x87728, symSize: 0x4 }
  - { offset: 0x3EDC89, size: 0x8, addend: 0x0, symName: '__ZNSt3__110__function6__funcIZNK11llama_model10print_infoEvE3$_2NS_9allocatorIS3_EEFjjEE18destroy_deallocateEv', symObjAddr: 0x32F90, symBinAddr: 0x87728, symSize: 0x4 }
  - { offset: 0x3EDCB5, size: 0x8, addend: 0x0, symName: '__ZNSt3__110__function6__funcIZNK11llama_model10print_infoEvE3$_2NS_9allocatorIS3_EEFjjEE18destroy_deallocateEv', symObjAddr: 0x32F90, symBinAddr: 0x87728, symSize: 0x4 }
  - { offset: 0x3EDCDB, size: 0x8, addend: 0x0, symName: '__ZNSt3__110__function6__funcIZNK11llama_model10print_infoEvE3$_2NS_9allocatorIS3_EEFjjEE18destroy_deallocateEv', symObjAddr: 0x32F90, symBinAddr: 0x87728, symSize: 0x4 }
  - { offset: 0x3EDD81, size: 0x8, addend: 0x0, symName: '__ZNSt3__110__function6__funcIZNK11llama_model10print_infoEvE3$_2NS_9allocatorIS3_EEFjjEEclEOj', symObjAddr: 0x32F94, symBinAddr: 0x8772C, symSize: 0x10 }
  - { offset: 0x3EDE19, size: 0x8, addend: 0x0, symName: '__ZNKSt3__110__function6__funcIZNK11llama_model10print_infoEvE3$_2NS_9allocatorIS3_EEFjjEE6targetERKSt9type_info', symObjAddr: 0x32FA4, symBinAddr: 0x8773C, symSize: 0x6C }
  - { offset: 0x3EDEB4, size: 0x8, addend: 0x0, symName: '__ZNKSt3__110__function6__funcIZNK11llama_model10print_infoEvE3$_2NS_9allocatorIS3_EEFjjEE11target_typeEv', symObjAddr: 0x33010, symBinAddr: 0x877A8, symSize: 0xC }
  - { offset: 0x3EDED9, size: 0x8, addend: 0x0, symName: '__ZNSt3__110__function6__funcIZNK11llama_model10print_infoEvE3$_3NS_9allocatorIS3_EEFjjEED1Ev', symObjAddr: 0x3301C, symBinAddr: 0x877B4, symSize: 0x4 }
  - { offset: 0x3EDF04, size: 0x8, addend: 0x0, symName: '__ZNSt3__110__function6__funcIZNK11llama_model10print_infoEvE3$_3NS_9allocatorIS3_EEFjjEED0Ev', symObjAddr: 0x33020, symBinAddr: 0x877B8, symSize: 0x4 }
  - { offset: 0x3EDFB9, size: 0x8, addend: 0x0, symName: '__ZNKSt3__110__function6__funcIZNK11llama_model10print_infoEvE3$_3NS_9allocatorIS3_EEFjjEE7__cloneEv', symObjAddr: 0x33024, symBinAddr: 0x877BC, symSize: 0x34 }
  - { offset: 0x3EE106, size: 0x8, addend: 0x0, symName: '__ZNKSt3__110__function6__funcIZNK11llama_model10print_infoEvE3$_3NS_9allocatorIS3_EEFjjEE7__cloneEPNS0_6__baseIS6_EE', symObjAddr: 0x33058, symBinAddr: 0x877F0, symSize: 0x14 }
  - { offset: 0x3EE176, size: 0x8, addend: 0x0, symName: '__ZNSt3__110__function6__funcIZNK11llama_model10print_infoEvE3$_3NS_9allocatorIS3_EEFjjEE7destroyEv', symObjAddr: 0x3306C, symBinAddr: 0x87804, symSize: 0x4 }
  - { offset: 0x3EE1C7, size: 0x8, addend: 0x0, symName: '__ZNSt3__110__function6__funcIZNK11llama_model10print_infoEvE3$_3NS_9allocatorIS3_EEFjjEE18destroy_deallocateEv', symObjAddr: 0x33070, symBinAddr: 0x87808, symSize: 0x4 }
  - { offset: 0x3EE1FC, size: 0x8, addend: 0x0, symName: '__ZNSt3__110__function6__funcIZNK11llama_model10print_infoEvE3$_3NS_9allocatorIS3_EEFjjEE18destroy_deallocateEv', symObjAddr: 0x33070, symBinAddr: 0x87808, symSize: 0x4 }
  - { offset: 0x3EE21F, size: 0x8, addend: 0x0, symName: '__ZNSt3__110__function6__funcIZNK11llama_model10print_infoEvE3$_3NS_9allocatorIS3_EEFjjEE18destroy_deallocateEv', symObjAddr: 0x33070, symBinAddr: 0x87808, symSize: 0x4 }
  - { offset: 0x3EE24B, size: 0x8, addend: 0x0, symName: '__ZNSt3__110__function6__funcIZNK11llama_model10print_infoEvE3$_3NS_9allocatorIS3_EEFjjEE18destroy_deallocateEv', symObjAddr: 0x33070, symBinAddr: 0x87808, symSize: 0x4 }
  - { offset: 0x3EE271, size: 0x8, addend: 0x0, symName: '__ZNSt3__110__function6__funcIZNK11llama_model10print_infoEvE3$_3NS_9allocatorIS3_EEFjjEE18destroy_deallocateEv', symObjAddr: 0x33070, symBinAddr: 0x87808, symSize: 0x4 }
  - { offset: 0x3EE317, size: 0x8, addend: 0x0, symName: '__ZNSt3__110__function6__funcIZNK11llama_model10print_infoEvE3$_3NS_9allocatorIS3_EEFjjEEclEOj', symObjAddr: 0x33074, symBinAddr: 0x8780C, symSize: 0x10 }
  - { offset: 0x3EE3AF, size: 0x8, addend: 0x0, symName: '__ZNKSt3__110__function6__funcIZNK11llama_model10print_infoEvE3$_3NS_9allocatorIS3_EEFjjEE6targetERKSt9type_info', symObjAddr: 0x33084, symBinAddr: 0x8781C, symSize: 0x6C }
  - { offset: 0x3EE44A, size: 0x8, addend: 0x0, symName: '__ZNKSt3__110__function6__funcIZNK11llama_model10print_infoEvE3$_3NS_9allocatorIS3_EEFjjEE11target_typeEv', symObjAddr: 0x330F0, symBinAddr: 0x87888, symSize: 0xC }
  - { offset: 0x3EE46F, size: 0x8, addend: 0x0, symName: '__ZNSt3__110__function6__funcIZNK11llama_model10print_infoEvE3$_4NS_9allocatorIS3_EEFjjEED1Ev', symObjAddr: 0x330FC, symBinAddr: 0x87894, symSize: 0x4 }
  - { offset: 0x3EE49A, size: 0x8, addend: 0x0, symName: '__ZNSt3__110__function6__funcIZNK11llama_model10print_infoEvE3$_4NS_9allocatorIS3_EEFjjEED0Ev', symObjAddr: 0x33100, symBinAddr: 0x87898, symSize: 0x4 }
  - { offset: 0x3EE54F, size: 0x8, addend: 0x0, symName: '__ZNKSt3__110__function6__funcIZNK11llama_model10print_infoEvE3$_4NS_9allocatorIS3_EEFjjEE7__cloneEv', symObjAddr: 0x33104, symBinAddr: 0x8789C, symSize: 0x34 }
  - { offset: 0x3EE69C, size: 0x8, addend: 0x0, symName: '__ZNKSt3__110__function6__funcIZNK11llama_model10print_infoEvE3$_4NS_9allocatorIS3_EEFjjEE7__cloneEPNS0_6__baseIS6_EE', symObjAddr: 0x33138, symBinAddr: 0x878D0, symSize: 0x14 }
  - { offset: 0x3EE70C, size: 0x8, addend: 0x0, symName: '__ZNSt3__110__function6__funcIZNK11llama_model10print_infoEvE3$_4NS_9allocatorIS3_EEFjjEE7destroyEv', symObjAddr: 0x3314C, symBinAddr: 0x878E4, symSize: 0x4 }
  - { offset: 0x3EE75D, size: 0x8, addend: 0x0, symName: '__ZNSt3__110__function6__funcIZNK11llama_model10print_infoEvE3$_4NS_9allocatorIS3_EEFjjEE18destroy_deallocateEv', symObjAddr: 0x33150, symBinAddr: 0x878E8, symSize: 0x4 }
  - { offset: 0x3EE792, size: 0x8, addend: 0x0, symName: '__ZNSt3__110__function6__funcIZNK11llama_model10print_infoEvE3$_4NS_9allocatorIS3_EEFjjEE18destroy_deallocateEv', symObjAddr: 0x33150, symBinAddr: 0x878E8, symSize: 0x4 }
  - { offset: 0x3EE7B5, size: 0x8, addend: 0x0, symName: '__ZNSt3__110__function6__funcIZNK11llama_model10print_infoEvE3$_4NS_9allocatorIS3_EEFjjEE18destroy_deallocateEv', symObjAddr: 0x33150, symBinAddr: 0x878E8, symSize: 0x4 }
  - { offset: 0x3EE7E1, size: 0x8, addend: 0x0, symName: '__ZNSt3__110__function6__funcIZNK11llama_model10print_infoEvE3$_4NS_9allocatorIS3_EEFjjEE18destroy_deallocateEv', symObjAddr: 0x33150, symBinAddr: 0x878E8, symSize: 0x4 }
  - { offset: 0x3EE807, size: 0x8, addend: 0x0, symName: '__ZNSt3__110__function6__funcIZNK11llama_model10print_infoEvE3$_4NS_9allocatorIS3_EEFjjEE18destroy_deallocateEv', symObjAddr: 0x33150, symBinAddr: 0x878E8, symSize: 0x4 }
  - { offset: 0x3EE8AD, size: 0x8, addend: 0x0, symName: '__ZNSt3__110__function6__funcIZNK11llama_model10print_infoEvE3$_4NS_9allocatorIS3_EEFjjEEclEOj', symObjAddr: 0x33154, symBinAddr: 0x878EC, symSize: 0x10 }
  - { offset: 0x3EE945, size: 0x8, addend: 0x0, symName: '__ZNKSt3__110__function6__funcIZNK11llama_model10print_infoEvE3$_4NS_9allocatorIS3_EEFjjEE6targetERKSt9type_info', symObjAddr: 0x33164, symBinAddr: 0x878FC, symSize: 0x6C }
  - { offset: 0x3EE9E0, size: 0x8, addend: 0x0, symName: '__ZNKSt3__110__function6__funcIZNK11llama_model10print_infoEvE3$_4NS_9allocatorIS3_EEFjjEE11target_typeEv', symObjAddr: 0x331D0, symBinAddr: 0x87968, symSize: 0xC }
  - { offset: 0x3EEA05, size: 0x8, addend: 0x0, symName: '__ZNSt3__110__function6__funcIZNK11llama_model10print_infoEvE3$_5NS_9allocatorIS3_EEFjjEED1Ev', symObjAddr: 0x331DC, symBinAddr: 0x87974, symSize: 0x4 }
  - { offset: 0x3EEA30, size: 0x8, addend: 0x0, symName: '__ZNSt3__110__function6__funcIZNK11llama_model10print_infoEvE3$_5NS_9allocatorIS3_EEFjjEED0Ev', symObjAddr: 0x331E0, symBinAddr: 0x87978, symSize: 0x4 }
  - { offset: 0x3EEAE5, size: 0x8, addend: 0x0, symName: '__ZNKSt3__110__function6__funcIZNK11llama_model10print_infoEvE3$_5NS_9allocatorIS3_EEFjjEE7__cloneEv', symObjAddr: 0x331E4, symBinAddr: 0x8797C, symSize: 0x34 }
  - { offset: 0x3EEC32, size: 0x8, addend: 0x0, symName: '__ZNKSt3__110__function6__funcIZNK11llama_model10print_infoEvE3$_5NS_9allocatorIS3_EEFjjEE7__cloneEPNS0_6__baseIS6_EE', symObjAddr: 0x33218, symBinAddr: 0x879B0, symSize: 0x14 }
  - { offset: 0x3EECA2, size: 0x8, addend: 0x0, symName: '__ZNSt3__110__function6__funcIZNK11llama_model10print_infoEvE3$_5NS_9allocatorIS3_EEFjjEE7destroyEv', symObjAddr: 0x3322C, symBinAddr: 0x879C4, symSize: 0x4 }
  - { offset: 0x3EECF3, size: 0x8, addend: 0x0, symName: '__ZNSt3__110__function6__funcIZNK11llama_model10print_infoEvE3$_5NS_9allocatorIS3_EEFjjEE18destroy_deallocateEv', symObjAddr: 0x33230, symBinAddr: 0x879C8, symSize: 0x4 }
  - { offset: 0x3EED28, size: 0x8, addend: 0x0, symName: '__ZNSt3__110__function6__funcIZNK11llama_model10print_infoEvE3$_5NS_9allocatorIS3_EEFjjEE18destroy_deallocateEv', symObjAddr: 0x33230, symBinAddr: 0x879C8, symSize: 0x4 }
  - { offset: 0x3EED4B, size: 0x8, addend: 0x0, symName: '__ZNSt3__110__function6__funcIZNK11llama_model10print_infoEvE3$_5NS_9allocatorIS3_EEFjjEE18destroy_deallocateEv', symObjAddr: 0x33230, symBinAddr: 0x879C8, symSize: 0x4 }
  - { offset: 0x3EED77, size: 0x8, addend: 0x0, symName: '__ZNSt3__110__function6__funcIZNK11llama_model10print_infoEvE3$_5NS_9allocatorIS3_EEFjjEE18destroy_deallocateEv', symObjAddr: 0x33230, symBinAddr: 0x879C8, symSize: 0x4 }
  - { offset: 0x3EED9D, size: 0x8, addend: 0x0, symName: '__ZNSt3__110__function6__funcIZNK11llama_model10print_infoEvE3$_5NS_9allocatorIS3_EEFjjEE18destroy_deallocateEv', symObjAddr: 0x33230, symBinAddr: 0x879C8, symSize: 0x4 }
  - { offset: 0x3EEE43, size: 0x8, addend: 0x0, symName: '__ZNSt3__110__function6__funcIZNK11llama_model10print_infoEvE3$_5NS_9allocatorIS3_EEFjjEEclEOj', symObjAddr: 0x33234, symBinAddr: 0x879CC, symSize: 0x10 }
  - { offset: 0x3EEEDB, size: 0x8, addend: 0x0, symName: '__ZNKSt3__110__function6__funcIZNK11llama_model10print_infoEvE3$_5NS_9allocatorIS3_EEFjjEE6targetERKSt9type_info', symObjAddr: 0x33244, symBinAddr: 0x879DC, symSize: 0x6C }
  - { offset: 0x3EEF76, size: 0x8, addend: 0x0, symName: '__ZNKSt3__110__function6__funcIZNK11llama_model10print_infoEvE3$_5NS_9allocatorIS3_EEFjjEE11target_typeEv', symObjAddr: 0x332B0, symBinAddr: 0x87A48, symSize: 0xC }
  - { offset: 0x3EEF9B, size: 0x8, addend: 0x0, symName: '__ZNSt3__110__function6__funcIZNK11llama_model10print_infoEvE3$_6NS_9allocatorIS3_EEFjjEED1Ev', symObjAddr: 0x332BC, symBinAddr: 0x87A54, symSize: 0x4 }
  - { offset: 0x3EEFC6, size: 0x8, addend: 0x0, symName: '__ZNSt3__110__function6__funcIZNK11llama_model10print_infoEvE3$_6NS_9allocatorIS3_EEFjjEED0Ev', symObjAddr: 0x332C0, symBinAddr: 0x87A58, symSize: 0x4 }
  - { offset: 0x3EF07B, size: 0x8, addend: 0x0, symName: '__ZNKSt3__110__function6__funcIZNK11llama_model10print_infoEvE3$_6NS_9allocatorIS3_EEFjjEE7__cloneEv', symObjAddr: 0x332C4, symBinAddr: 0x87A5C, symSize: 0x34 }
  - { offset: 0x3EF1C8, size: 0x8, addend: 0x0, symName: '__ZNKSt3__110__function6__funcIZNK11llama_model10print_infoEvE3$_6NS_9allocatorIS3_EEFjjEE7__cloneEPNS0_6__baseIS6_EE', symObjAddr: 0x332F8, symBinAddr: 0x87A90, symSize: 0x14 }
  - { offset: 0x3EF238, size: 0x8, addend: 0x0, symName: '__ZNSt3__110__function6__funcIZNK11llama_model10print_infoEvE3$_6NS_9allocatorIS3_EEFjjEE7destroyEv', symObjAddr: 0x3330C, symBinAddr: 0x87AA4, symSize: 0x4 }
  - { offset: 0x3EF289, size: 0x8, addend: 0x0, symName: '__ZNSt3__110__function6__funcIZNK11llama_model10print_infoEvE3$_6NS_9allocatorIS3_EEFjjEE18destroy_deallocateEv', symObjAddr: 0x33310, symBinAddr: 0x87AA8, symSize: 0x4 }
  - { offset: 0x3EF2BE, size: 0x8, addend: 0x0, symName: '__ZNSt3__110__function6__funcIZNK11llama_model10print_infoEvE3$_6NS_9allocatorIS3_EEFjjEE18destroy_deallocateEv', symObjAddr: 0x33310, symBinAddr: 0x87AA8, symSize: 0x4 }
  - { offset: 0x3EF2E1, size: 0x8, addend: 0x0, symName: '__ZNSt3__110__function6__funcIZNK11llama_model10print_infoEvE3$_6NS_9allocatorIS3_EEFjjEE18destroy_deallocateEv', symObjAddr: 0x33310, symBinAddr: 0x87AA8, symSize: 0x4 }
  - { offset: 0x3EF30D, size: 0x8, addend: 0x0, symName: '__ZNSt3__110__function6__funcIZNK11llama_model10print_infoEvE3$_6NS_9allocatorIS3_EEFjjEE18destroy_deallocateEv', symObjAddr: 0x33310, symBinAddr: 0x87AA8, symSize: 0x4 }
  - { offset: 0x3EF333, size: 0x8, addend: 0x0, symName: '__ZNSt3__110__function6__funcIZNK11llama_model10print_infoEvE3$_6NS_9allocatorIS3_EEFjjEE18destroy_deallocateEv', symObjAddr: 0x33310, symBinAddr: 0x87AA8, symSize: 0x4 }
  - { offset: 0x3EF3D9, size: 0x8, addend: 0x0, symName: '__ZNSt3__110__function6__funcIZNK11llama_model10print_infoEvE3$_6NS_9allocatorIS3_EEFjjEEclEOj', symObjAddr: 0x33314, symBinAddr: 0x87AAC, symSize: 0x10 }
  - { offset: 0x3EF471, size: 0x8, addend: 0x0, symName: '__ZNKSt3__110__function6__funcIZNK11llama_model10print_infoEvE3$_6NS_9allocatorIS3_EEFjjEE6targetERKSt9type_info', symObjAddr: 0x33324, symBinAddr: 0x87ABC, symSize: 0x6C }
  - { offset: 0x3EF50C, size: 0x8, addend: 0x0, symName: '__ZNKSt3__110__function6__funcIZNK11llama_model10print_infoEvE3$_6NS_9allocatorIS3_EEFjjEE11target_typeEv', symObjAddr: 0x33390, symBinAddr: 0x87B28, symSize: 0xC }
  - { offset: 0x3EF847, size: 0x8, addend: 0x0, symName: __ZNK15llm_build_mamba17build_mamba_layerEP11ggml_cgraphP11ggml_tensorS3_S3_RK12llama_ubatchi, symObjAddr: 0x3F934, symBinAddr: 0x940CC, symSize: 0x674 }
  - { offset: 0x3F0034, size: 0x8, addend: 0x0, symName: __ZN16llm_build_xverseC2ERK11llama_modelRK16llm_graph_paramsP11ggml_cgraph, symObjAddr: 0x3FFA8, symBinAddr: 0x94740, symSize: 0x530 }
  - { offset: 0x3F010F, size: 0x8, addend: 0x0, symName: __ZNK20llm_build_rwkv6_base20build_rwkv6_time_mixEP11ggml_cgraphP11ggml_tensorS3_S3_S3_RK12llama_ubatchi, symObjAddr: 0x485CC, symBinAddr: 0x9CD64, symSize: 0xA14 }
  - { offset: 0x3F0CA5, size: 0x8, addend: 0x0, symName: __ZNK20llm_build_rwkv6_base23build_rwkv6_channel_mixEPK11llama_layerP11ggml_tensorS4_8llm_arch, symObjAddr: 0x48FE0, symBinAddr: 0x9D778, symSize: 0x124 }
  - { offset: 0x3F0CB8, size: 0x8, addend: 0x0, symName: __ZNK20llm_build_rwkv6_base23build_rwkv6_channel_mixEPK11llama_layerP11ggml_tensorS4_8llm_arch, symObjAddr: 0x48FE0, symBinAddr: 0x9D778, symSize: 0x124 }
  - { offset: 0x3F0E57, size: 0x8, addend: 0x0, symName: __ZN20llm_build_rwkv6qwen2C2ERK11llama_modelRK16llm_graph_paramsP11ggml_cgraph, symObjAddr: 0x49104, symBinAddr: 0x9D89C, symSize: 0x47C }
  - { offset: 0x3F101C, size: 0x8, addend: 0x0, symName: __ZNK20llm_build_rwkv7_base20build_rwkv7_time_mixEP11ggml_cgraphP11ggml_tensorS3_S3_S3_RS3_RK12llama_ubatchi, symObjAddr: 0x49B7C, symBinAddr: 0x9E314, symSize: 0x87C }
  - { offset: 0x3F3DF2, size: 0x8, addend: 0x0, symName: __ZL25llama_model_quantize_implRKNSt3__112basic_stringIcNS_11char_traitsIcEENS_9allocatorIcEEEES7_PK27llama_model_quantize_params, symObjAddr: 0x268, symBinAddr: 0xA1AB0, symSize: 0x4F44 }
  - { offset: 0x41C534, size: 0x8, addend: 0x0, symName: '__ZNSt3__111__introsortINS_17_ClassicAlgPolicyERZL25llama_model_quantize_implRKNS_12basic_stringIcNS_11char_traitsIcEENS_9allocatorIcEEEES9_PK27llama_model_quantize_paramsE3$_0PPKN18llama_model_loader19llama_tensor_weightELb0EEEvT1_SK_T0_NS_15iterator_traitsISK_E15difference_typeEb', symObjAddr: 0x5DA0, symBinAddr: 0xA7344, symSize: 0x9C0 }
  - { offset: 0x41D159, size: 0x8, addend: 0x0, symName: '__ZNSt3__127__insertion_sort_incompleteB8ne180100INS_17_ClassicAlgPolicyERZL25llama_model_quantize_implRKNS_12basic_stringIcNS_11char_traitsIcEENS_9allocatorIcEEEES9_PK27llama_model_quantize_paramsE3$_0PPKN18llama_model_loader19llama_tensor_weightEEEbT1_SK_T0_', symObjAddr: 0x69D0, symBinAddr: 0xA7F74, symSize: 0x294 }
  - { offset: 0x434CDA, size: 0x8, addend: 0x0, symName: '__ZNSt3__17__sort3B8ne180100INS_17_ClassicAlgPolicyERZL25llama_model_quantize_implRKNS_12basic_stringIcNS_11char_traitsIcEENS_9allocatorIcEEEES9_PK27llama_model_quantize_paramsE3$_0PPKN18llama_model_loader19llama_tensor_weightEEEjT1_SK_SK_T0_', symObjAddr: 0x68F0, symBinAddr: 0xA7E94, symSize: 0xE0 }
  - { offset: 0x435038, size: 0x8, addend: 0x0, symName: '__ZNSt3__124__sort5_maybe_branchlessB8ne180100INS_17_ClassicAlgPolicyERZL25llama_model_quantize_implRKNS_12basic_stringIcNS_11char_traitsIcEENS_9allocatorIcEEEES9_PK27llama_model_quantize_paramsE3$_0PPKN18llama_model_loader19llama_tensor_weightELi0EEEvT1_SK_SK_SK_SK_T0_', symObjAddr: 0x6760, symBinAddr: 0xA7D04, symSize: 0x190 }
  - { offset: 0x438BC2, size: 0x8, addend: 0x0, symName: '__ZNSt3__114__thread_proxyB8ne180100INS_5tupleIJNS_10unique_ptrINS_15__thread_structENS_14default_deleteIS3_EEEEZL28llama_tensor_dequantize_implP11ggml_tensorRNS_6vectorI7no_initIfENS_9allocatorISB_EEEERNS9_INS_6threadENSC_ISG_EEEEmiE3$_09ggml_typePhPfmEEEEEPvSP_', symObjAddr: 0x13408, symBinAddr: 0xA8878, symSize: 0xB4 }
  - { offset: 0x439009, size: 0x8, addend: 0x0, symName: '__ZNSt3__114__thread_proxyB8ne180100INS_5tupleIJNS_10unique_ptrINS_15__thread_structENS_14default_deleteIS3_EEEEZL26llama_tensor_quantize_impl9ggml_typePKfPvxxxS9_RNS_6vectorINS_6threadENS_9allocatorISC_EEEEiE3$_0EEEEESA_SA_', symObjAddr: 0x13604, symBinAddr: 0xA8A74, symSize: 0x78 }
  - { offset: 0x43D570, size: 0x8, addend: 0x0, symName: _llama_model_quantize_default_params, symObjAddr: 0x0, symBinAddr: 0xA1848, symSize: 0x2C }
  - { offset: 0x43D87D, size: 0x8, addend: 0x0, symName: _llama_model_quantize, symObjAddr: 0x2C, symBinAddr: 0xA1874, symSize: 0x23C }
  - { offset: 0x443EA0, size: 0x8, addend: 0x0, symName: __ZNSt3__16vectorINS_6threadENS_9allocatorIS1_EEE7reserveEm, symObjAddr: 0x52B0, symBinAddr: 0xA69F4, symSize: 0x174 }
  - { offset: 0x44425D, size: 0x8, addend: 0x0, symName: __ZNSt3__16vectorINS_10unique_ptrI12gguf_context20gguf_context_deleterEENS_9allocatorIS4_EEEC1Em, symObjAddr: 0x5424, symBinAddr: 0xA6B68, symSize: 0xCC }
  - { offset: 0x44426F, size: 0x8, addend: 0x0, symName: __ZNSt3__16vectorINS_10unique_ptrI12gguf_context20gguf_context_deleterEENS_9allocatorIS4_EEEC1Em, symObjAddr: 0x5424, symBinAddr: 0xA6B68, symSize: 0xCC }
  - { offset: 0x4446CE, size: 0x8, addend: 0x0, symName: '__ZZL25llama_model_quantize_implRKNSt3__112basic_stringIcNS_11char_traitsIcEENS_9allocatorIcEEEES7_PK27llama_model_quantize_paramsENK3$_2clEi', symObjAddr: 0x54F0, symBinAddr: 0xA6C34, symSize: 0x3C8 }
  - { offset: 0x4456BC, size: 0x8, addend: 0x0, symName: '__ZZL25llama_model_quantize_implRKNSt3__112basic_stringIcNS_11char_traitsIcEENS_9allocatorIcEEEES7_PK27llama_model_quantize_paramsENK3$_1clEv', symObjAddr: 0x58B8, symBinAddr: 0xA6FFC, symSize: 0x214 }
  - { offset: 0x445EF4, size: 0x8, addend: 0x0, symName: __ZNKSt3__112__hash_tableINS_17__hash_value_typeINS_12basic_stringIcNS_11char_traitsIcEENS_9allocatorIcEEEENS_6vectorIfNS5_IfEEEEEENS_22__unordered_map_hasherIS7_SB_NS_4hashIS7_EENS_8equal_toIS7_EELb1EEENS_21__unordered_map_equalIS7_SB_SG_SE_Lb1EEENS5_ISB_EEE4findIS7_EENS_21__hash_const_iteratorIPNS_11__hash_nodeISB_PvEEEERKT_, symObjAddr: 0x12BF8, symBinAddr: 0xA84B4, symSize: 0x22C }
  - { offset: 0x4461C0, size: 0x8, addend: 0x0, symName: __ZNSt3__16vectorI7no_initIfENS_9allocatorIS2_EEE8__appendEm, symObjAddr: 0x13270, symBinAddr: 0xA86E0, symSize: 0x184 }
  - { offset: 0x44657B, size: 0x8, addend: 0x0, symName: __ZNKSt3__16vectorI7no_initIfENS_9allocatorIS2_EEE20__throw_length_errorB8ne180100Ev, symObjAddr: 0x133F4, symBinAddr: 0xA8864, symSize: 0x14 }
  - { offset: 0x4467CF, size: 0x8, addend: 0x0, symName: '__ZZL21llama_tensor_get_typeR19quantize_state_impl9ggml_typePK11ggml_tensor11llama_ftypeENK3$_1clEiiPKc', symObjAddr: 0x6E88, symBinAddr: 0xA8350, symSize: 0x164 }
  - { offset: 0x447000, size: 0x8, addend: 0x0, symName: __ZN18llama_model_loaderD2Ev, symObjAddr: 0x136C4, symBinAddr: 0xA8B34, symSize: 0x1AC }
  - { offset: 0x447DCC, size: 0x8, addend: 0x0, symName: __ZNKSt3__16vectorINS_6threadENS_9allocatorIS1_EEE20__throw_length_errorB8ne180100Ev, symObjAddr: 0x6C64, symBinAddr: 0xA8208, symSize: 0x14 }
  - { offset: 0x447DF6, size: 0x8, addend: 0x0, symName: __ZNKSt3__16vectorINS_10unique_ptrI12gguf_context20gguf_context_deleterEENS_9allocatorIS4_EEE20__throw_length_errorB8ne180100Ev, symObjAddr: 0x6C78, symBinAddr: 0xA821C, symSize: 0x14 }
  - { offset: 0x447E33, size: 0x8, addend: 0x0, symName: __ZNKSt3__16vectorIPKN18llama_model_loader19llama_tensor_weightENS_9allocatorIS4_EEE20__throw_length_errorB8ne180100Ev, symObjAddr: 0x5CF0, symBinAddr: 0xA7330, symSize: 0x14 }
  - { offset: 0x447E80, size: 0x8, addend: 0x0, symName: '__ZZL21llama_tensor_get_typeR19quantize_state_impl9ggml_typePK11ggml_tensor11llama_ftypeENK3$_1clEiiPKc', symObjAddr: 0x6E88, symBinAddr: 0xA8350, symSize: 0x164 }
  - { offset: 0x447F34, size: 0x8, addend: 0x0, symName: __ZNSt3__114basic_ofstreamIcNS_11char_traitsIcEEED1Ev, symObjAddr: 0x5B2C, symBinAddr: 0xA7210, symSize: 0x58 }
  - { offset: 0x447F7C, size: 0x8, addend: 0x0, symName: __ZNSt3__16vectorINS_10unique_ptrI12gguf_context20gguf_context_deleterEENS_9allocatorIS4_EEED1B8ne180100Ev, symObjAddr: 0x5B84, symBinAddr: 0xA7268, symSize: 0x70 }
  - { offset: 0x448165, size: 0x8, addend: 0x0, symName: __ZNSt3__16vectorINS_6threadENS_9allocatorIS1_EEED1B8ne180100Ev, symObjAddr: 0x5BF4, symBinAddr: 0xA72D8, symSize: 0x58 }
  - { offset: 0x448756, size: 0x8, addend: 0x0, symName: __ZNKSt3__16vectorINS_10unique_ptrI12gguf_context20gguf_context_deleterEENS_9allocatorIS4_EEE20__throw_length_errorB8ne180100Ev, symObjAddr: 0x6C78, symBinAddr: 0xA821C, symSize: 0x14 }
  - { offset: 0x448780, size: 0x8, addend: 0x0, symName: __ZNSt3__114basic_ofstreamIcNS_11char_traitsIcEEEC1ERKNS_12basic_stringIcS2_NS_9allocatorIcEEEEj, symObjAddr: 0x6C8C, symBinAddr: 0xA8230, symSize: 0x120 }
  - { offset: 0x448E52, size: 0x8, addend: 0x0, symName: __ZNSt3__114basic_ofstreamIcNS_11char_traitsIcEEEC1ERKNS_12basic_stringIcS2_NS_9allocatorIcEEEEj, symObjAddr: 0x6C8C, symBinAddr: 0xA8230, symSize: 0x120 }
  - { offset: 0x45E79E, size: 0x8, addend: 0x0, symName: __ZNKSt3__112__hash_tableINS_17__hash_value_typeINS_12basic_stringIcNS_11char_traitsIcEENS_9allocatorIcEEEENS_6vectorIfNS5_IfEEEEEENS_22__unordered_map_hasherIS7_SB_NS_4hashIS7_EENS_8equal_toIS7_EELb1EEENS_21__unordered_map_equalIS7_SB_SG_SE_Lb1EEENS5_ISB_EEE4findIS7_EENS_21__hash_const_iteratorIPNS_11__hash_nodeISB_PvEEEERKT_, symObjAddr: 0x12BF8, symBinAddr: 0xA84B4, symSize: 0x22C }
  - { offset: 0x460674, size: 0x8, addend: 0x0, symName: __ZNKSt3__16vectorI7no_initIfENS_9allocatorIS2_EEE20__throw_length_errorB8ne180100Ev, symObjAddr: 0x133F4, symBinAddr: 0xA8864, symSize: 0x14 }
  - { offset: 0x46069E, size: 0x8, addend: 0x0, symName: '__ZNSt3__114__thread_proxyB8ne180100INS_5tupleIJNS_10unique_ptrINS_15__thread_structENS_14default_deleteIS3_EEEEZL28llama_tensor_dequantize_implP11ggml_tensorRNS_6vectorI7no_initIfENS_9allocatorISB_EEEERNS9_INS_6threadENSC_ISG_EEEEmiE3$_09ggml_typePhPfmEEEEEPvSP_', symObjAddr: 0x13408, symBinAddr: 0xA8878, symSize: 0xB4 }
  - { offset: 0x460895, size: 0x8, addend: 0x0, symName: '__ZNSt3__110unique_ptrINS_5tupleIJNS0_INS_15__thread_structENS_14default_deleteIS2_EEEEZL28llama_tensor_dequantize_implP11ggml_tensorRNS_6vectorI7no_initIfENS_9allocatorISA_EEEERNS8_INS_6threadENSB_ISF_EEEEmiE3$_09ggml_typePhPfmEEENS3_ISN_EEED1B8ne180100Ev', symObjAddr: 0x134BC, symBinAddr: 0xA892C, symSize: 0x48 }
  - { offset: 0x460A35, size: 0x8, addend: 0x0, symName: '__ZZL26llama_tensor_quantize_impl9ggml_typePKfPvxxxS1_RNSt3__16vectorINS3_6threadENS3_9allocatorIS5_EEEEiENK3$_0clEv', symObjAddr: 0x13504, symBinAddr: 0xA8974, symSize: 0x100 }
  - { offset: 0x460CA6, size: 0x8, addend: 0x0, symName: '__ZNSt3__110unique_ptrINS_5tupleIJNS0_INS_15__thread_structENS_14default_deleteIS2_EEEEZL26llama_tensor_quantize_impl9ggml_typePKfPvxxxS8_RNS_6vectorINS_6threadENS_9allocatorISB_EEEEiE3$_0EEENS3_ISH_EEED1B8ne180100Ev', symObjAddr: 0x1367C, symBinAddr: 0xA8AEC, symSize: 0x48 }
  - { offset: 0x4637CB, size: 0x8, addend: 0x0, symName: __MergedGlobals, symObjAddr: 0x1DD48, symBinAddr: 0x2286A0, symSize: 0x0 }
  - { offset: 0x463908, size: 0x8, addend: 0x0, symName: __ZL22llama_sampler_greedy_i, symObjAddr: 0x1DA78, symBinAddr: 0x2283D0, symSize: 0x0 }
  - { offset: 0x463916, size: 0x8, addend: 0x0, symName: __ZL12get_rng_seedj, symObjAddr: 0x798, symBinAddr: 0xA9478, symSize: 0x158 }
  - { offset: 0x463942, size: 0x8, addend: 0x0, symName: __MergedGlobals.142, symObjAddr: 0x227800, symBinAddr: 0x293920, symSize: 0x0 }
  - { offset: 0x463E52, size: 0x8, addend: 0x0, symName: __MergedGlobals, symObjAddr: 0x1DD48, symBinAddr: 0x2286A0, symSize: 0x0 }
  - { offset: 0x463E6F, size: 0x8, addend: 0x0, symName: __ZL23llama_sampler_softmax_i, symObjAddr: 0x1DAA8, symBinAddr: 0x228400, symSize: 0x0 }
  - { offset: 0x463E8A, size: 0x8, addend: 0x0, symName: __ZL21llama_sampler_top_k_i, symObjAddr: 0x1DAD8, symBinAddr: 0x228430, symSize: 0x0 }
  - { offset: 0x463EA5, size: 0x8, addend: 0x0, symName: __ZL21llama_sampler_top_p_i, symObjAddr: 0x1DB08, symBinAddr: 0x228460, symSize: 0x0 }
  - { offset: 0x463EC0, size: 0x8, addend: 0x0, symName: __ZL21llama_sampler_min_p_i, symObjAddr: 0x1DB38, symBinAddr: 0x228490, symSize: 0x0 }
  - { offset: 0x463EDB, size: 0x8, addend: 0x0, symName: __ZL23llama_sampler_typical_i, symObjAddr: 0x1DB68, symBinAddr: 0x2284C0, symSize: 0x0 }
  - { offset: 0x463EF6, size: 0x8, addend: 0x0, symName: __ZL20llama_sampler_temp_i, symObjAddr: 0x1DB98, symBinAddr: 0x2284F0, symSize: 0x0 }
  - { offset: 0x463F11, size: 0x8, addend: 0x0, symName: __ZL24llama_sampler_temp_ext_i, symObjAddr: 0x1DBC8, symBinAddr: 0x228520, symSize: 0x0 }
  - { offset: 0x463F2C, size: 0x8, addend: 0x0, symName: __ZL19llama_sampler_xtc_i, symObjAddr: 0x1DBF8, symBinAddr: 0x228550, symSize: 0x0 }
  - { offset: 0x463F47, size: 0x8, addend: 0x0, symName: __MergedGlobals, symObjAddr: 0x1DD48, symBinAddr: 0x2286A0, symSize: 0x0 }
  - { offset: 0x463F64, size: 0x8, addend: 0x0, symName: __MergedGlobals, symObjAddr: 0x1DD48, symBinAddr: 0x2286A0, symSize: 0x0 }
  - { offset: 0x463F75, size: 0x8, addend: 0x0, symName: __ZL31llama_sampler_init_grammar_implPK11llama_vocabPKcS3_bPS3_mPKimS4_m, symObjAddr: 0xD40, symBinAddr: 0xA9A20, symSize: 0x61C }
  - { offset: 0x463F96, size: 0x8, addend: 0x0, symName: __MergedGlobals.142, symObjAddr: 0x227800, symBinAddr: 0x293920, symSize: 0x0 }
  - { offset: 0x47903F, size: 0x8, addend: 0x0, symName: '__ZNSt3__111__introsortINS_17_ClassicAlgPolicyERZL26llama_sampler_softmax_implP22llama_token_data_arrayE3$_0P16llama_token_dataLb0EEEvT1_S8_T0_NS_15iterator_traitsIS8_E15difference_typeEb', symObjAddr: 0x3280, symBinAddr: 0xABF08, symSize: 0xF4C }
  - { offset: 0x47A753, size: 0x8, addend: 0x0, symName: '__ZNSt3__127__insertion_sort_incompleteB8ne180100INS_17_ClassicAlgPolicyERZL26llama_sampler_softmax_implP22llama_token_data_arrayE3$_0P16llama_token_dataEEbT1_S8_T0_', symObjAddr: 0x41CC, symBinAddr: 0xACE54, symSize: 0x4C0 }
  - { offset: 0x47FC98, size: 0x8, addend: 0x0, symName: '__ZNSt3__111__introsortINS_17_ClassicAlgPolicyERZL24llama_sampler_top_k_implP22llama_token_data_arrayiE3$_0P16llama_token_dataLb0EEEvT1_S8_T0_NS_15iterator_traitsIS8_E15difference_typeEb', symObjAddr: 0x5AD8, symBinAddr: 0xAE6B0, symSize: 0xD28 }
  - { offset: 0x48118B, size: 0x8, addend: 0x0, symName: '__ZNSt3__127__insertion_sort_incompleteB8ne180100INS_17_ClassicAlgPolicyERZL24llama_sampler_top_k_implP22llama_token_data_arrayiE3$_0P16llama_token_dataEEbT1_S8_T0_', symObjAddr: 0x6800, symBinAddr: 0xAF3D8, symSize: 0x4C0 }
  - { offset: 0x481BF2, size: 0x8, addend: 0x0, symName: '__ZNSt3__111__introsortINS_17_ClassicAlgPolicyERZL25llama_sampler_min_p_applyP13llama_samplerP22llama_token_data_arrayE3$_0P16llama_token_dataLb0EEEvT1_SA_T0_NS_15iterator_traitsISA_E15difference_typeEb', symObjAddr: 0x7528, symBinAddr: 0xB0100, symSize: 0xF4C }
  - { offset: 0x4832C2, size: 0x8, addend: 0x0, symName: '__ZNSt3__127__insertion_sort_incompleteB8ne180100INS_17_ClassicAlgPolicyERZL25llama_sampler_min_p_applyP13llama_samplerP22llama_token_data_arrayE3$_0P16llama_token_dataEEbT1_SA_T0_', symObjAddr: 0x8474, symBinAddr: 0xB104C, symSize: 0x4C0 }
  - { offset: 0x4856D5, size: 0x8, addend: 0x0, symName: '__ZNSt3__111__introsortINS_17_ClassicAlgPolicyERZL27llama_sampler_typical_applyP13llama_samplerP22llama_token_data_arrayE3$_0PmLb0EEEvT1_S9_T0_NS_15iterator_traitsIS9_E15difference_typeEb', symObjAddr: 0x94E4, symBinAddr: 0xB20A8, symSize: 0xAD0 }
  - { offset: 0x4872F1, size: 0x8, addend: 0x0, symName: '__ZNSt3__127__insertion_sort_incompleteB8ne180100INS_17_ClassicAlgPolicyERZL27llama_sampler_typical_applyP13llama_samplerP22llama_token_data_arrayE3$_0PmEEbT1_S9_T0_', symObjAddr: 0xA150, symBinAddr: 0xB2D14, symSize: 0x384 }
  - { offset: 0x491E4A, size: 0x8, addend: 0x0, symName: __ZNSt3__113regex_replaceB8ne180100INS_20back_insert_iteratorINS_12basic_stringIcNS_11char_traitsIcEENS_9allocatorIcEEEEEEPKcNS_12regex_traitsIcEEcEET_SD_T0_SE_RKNS_11basic_regexIT2_T1_EEPKSG_NS_15regex_constants15match_flag_typeE, symObjAddr: 0x15624, symBinAddr: 0xB4AC4, symSize: 0x258 }
  - { offset: 0x4949BD, size: 0x8, addend: 0x0, symName: '__ZNSt3__17__sort4B8ne180100INS_17_ClassicAlgPolicyERZL26llama_sampler_softmax_implP22llama_token_data_arrayE3$_0P16llama_token_dataEEvT1_S8_S8_S8_T0_', symObjAddr: 0x468C, symBinAddr: 0xAD314, symSize: 0x180 }
  - { offset: 0x495958, size: 0x8, addend: 0x0, symName: '__ZNSt3__119__partial_sort_implB8ne180100INS_17_ClassicAlgPolicyERZL24llama_sampler_top_k_implP22llama_token_data_arrayiE3$_0P16llama_token_dataS7_EET1_S8_S8_T2_OT0_', symObjAddr: 0x5690, symBinAddr: 0xAE27C, symSize: 0x40C }
  - { offset: 0x4963E0, size: 0x8, addend: 0x0, symName: '__ZNSt3__17__sort4B8ne180100INS_17_ClassicAlgPolicyERZL24llama_sampler_top_k_implP22llama_token_data_arrayiE3$_0P16llama_token_dataEEvT1_S8_S8_S8_T0_', symObjAddr: 0x6CC0, symBinAddr: 0xAF898, symSize: 0x180 }
  - { offset: 0x49718E, size: 0x8, addend: 0x0, symName: '__ZNSt3__17__sort4B8ne180100INS_17_ClassicAlgPolicyERZL25llama_sampler_min_p_applyP13llama_samplerP22llama_token_data_arrayE3$_0P16llama_token_dataEEvT1_SA_SA_SA_T0_', symObjAddr: 0x8934, symBinAddr: 0xB150C, symSize: 0x180 }
  - { offset: 0x498579, size: 0x8, addend: 0x0, symName: '__ZNSt3__124__sort5_maybe_branchlessB8ne180100INS_17_ClassicAlgPolicyERZL27llama_sampler_typical_applyP13llama_samplerP22llama_token_data_arrayE3$_0PmLi0EEEvT1_S9_S9_S9_S9_T0_', symObjAddr: 0x9FB4, symBinAddr: 0xB2B78, symSize: 0x19C }
  - { offset: 0x4985EE, size: 0x8, addend: 0x0, symName: '__ZNSt3__124__sort5_maybe_branchlessB8ne180100INS_17_ClassicAlgPolicyERZL27llama_sampler_typical_applyP13llama_samplerP22llama_token_data_arrayE3$_0PmLi0EEEvT1_S9_S9_S9_S9_T0_', symObjAddr: 0x9FB4, symBinAddr: 0xB2B78, symSize: 0x19C }
  - { offset: 0x498626, size: 0x8, addend: 0x0, symName: '__ZNSt3__124__sort5_maybe_branchlessB8ne180100INS_17_ClassicAlgPolicyERZL27llama_sampler_typical_applyP13llama_samplerP22llama_token_data_arrayE3$_0PmLi0EEEvT1_S9_S9_S9_S9_T0_', symObjAddr: 0x9FB4, symBinAddr: 0xB2B78, symSize: 0x19C }
  - { offset: 0x49E69C, size: 0x8, addend: 0x0, symName: __ZL23llama_sampler_grammar_i, symObjAddr: 0x1DD18, symBinAddr: 0x228670, symSize: 0x0 }
  - { offset: 0x49E6B7, size: 0x8, addend: 0x0, symName: __ZL25llama_sampler_penalties_i, symObjAddr: 0x1DC28, symBinAddr: 0x228580, symSize: 0x0 }
  - { offset: 0x49E6D7, size: 0x8, addend: 0x0, symName: __ZL27llama_sampler_top_n_sigma_i, symObjAddr: 0x1DC58, symBinAddr: 0x2285B0, symSize: 0x0 }
  - { offset: 0x49E6F2, size: 0x8, addend: 0x0, symName: __ZL19llama_sampler_dry_i, symObjAddr: 0x1DC88, symBinAddr: 0x2285E0, symSize: 0x0 }
  - { offset: 0x49E70D, size: 0x8, addend: 0x0, symName: __ZL26llama_sampler_logit_bias_i, symObjAddr: 0x1DCB8, symBinAddr: 0x228610, symSize: 0x0 }
  - { offset: 0x49E728, size: 0x8, addend: 0x0, symName: __ZL22llama_sampler_infill_i, symObjAddr: 0x1DCE8, symBinAddr: 0x228640, symSize: 0x0 }
  - { offset: 0x49F6F8, size: 0x8, addend: 0x0, symName: __ZL17llama_sample_distP22llama_token_data_arrayRNSt3__123mersenne_twister_engineIjLm32ELm624ELm397ELm31ELj2567483615ELm11ELj4294967295ELm7ELj2636928640ELm15ELj4022730752ELm18ELj1812433253EEE, symObjAddr: 0x2FD8, symBinAddr: 0xABC60, symSize: 0x2A8 }
  - { offset: 0x4A1A56, size: 0x8, addend: 0x0, symName: _llama_sampler_init, symObjAddr: 0x0, symBinAddr: 0xA8CE0, symSize: 0x2C }
  - { offset: 0x4A1A7D, size: 0x8, addend: 0x0, symName: _llama_sampler_name, symObjAddr: 0x2C, symBinAddr: 0xA8D0C, symSize: 0x1C }
  - { offset: 0x4A1AB5, size: 0x8, addend: 0x0, symName: _llama_sampler_accept, symObjAddr: 0x48, symBinAddr: 0xA8D28, symSize: 0x14 }
  - { offset: 0x4A1AE4, size: 0x8, addend: 0x0, symName: _llama_sampler_apply, symObjAddr: 0x5C, symBinAddr: 0xA8D3C, symSize: 0x48 }
  - { offset: 0x4A1B19, size: 0x8, addend: 0x0, symName: _llama_sampler_reset, symObjAddr: 0xA4, symBinAddr: 0xA8D84, symSize: 0x14 }
  - { offset: 0x4A1B46, size: 0x8, addend: 0x0, symName: _llama_sampler_reset, symObjAddr: 0xA4, symBinAddr: 0xA8D84, symSize: 0x14 }
  - { offset: 0x4A1B95, size: 0x8, addend: 0x0, symName: _llama_sampler_clone, symObjAddr: 0xB8, symBinAddr: 0xA8D98, symSize: 0x5C }
  - { offset: 0x4A1BE5, size: 0x8, addend: 0x0, symName: _llama_sampler_free, symObjAddr: 0x114, symBinAddr: 0xA8DF4, symSize: 0x3C }
  - { offset: 0x4A1BF8, size: 0x8, addend: 0x0, symName: _llama_sampler_free, symObjAddr: 0x114, symBinAddr: 0xA8DF4, symSize: 0x3C }
  - { offset: 0x4A2130, size: 0x8, addend: 0x0, symName: _llama_sampler_sample, symObjAddr: 0x150, symBinAddr: 0xA8E30, symSize: 0x2FC }
  - { offset: 0x4A2B87, size: 0x8, addend: 0x0, symName: __ZNKSt3__16vectorI16llama_token_dataNS_9allocatorIS1_EEE20__throw_length_errorB8ne180100Ev, symObjAddr: 0x5AB0, symBinAddr: 0xAE688, symSize: 0x14 }
  - { offset: 0x4A2BB1, size: 0x8, addend: 0x0, symName: __ZNKSt3__16vectorIP16llama_token_dataNS_9allocatorIS2_EEE20__throw_length_errorB8ne180100Ev, symObjAddr: 0x5AC4, symBinAddr: 0xAE69C, symSize: 0x14 }
  - { offset: 0x4A2BBC, size: 0x8, addend: 0x0, symName: _llama_sampler_chain_init, symObjAddr: 0x44C, symBinAddr: 0xA912C, symSize: 0x50 }
  - { offset: 0x4A2F8E, size: 0x8, addend: 0x0, symName: _llama_sampler_chain_add, symObjAddr: 0x49C, symBinAddr: 0xA917C, symSize: 0x188 }
  - { offset: 0x4A3391, size: 0x8, addend: 0x0, symName: _llama_sampler_chain_get, symObjAddr: 0x624, symBinAddr: 0xA9304, symSize: 0x2C }
  - { offset: 0x4A339C, size: 0x8, addend: 0x0, symName: __ZNKSt3__16vectorIP13llama_samplerNS_9allocatorIS2_EEE20__throw_length_errorB8ne180100Ev, symObjAddr: 0x1C47C, symBinAddr: 0xB9050, symSize: 0x14 }
  - { offset: 0x4A33C6, size: 0x8, addend: 0x0, symName: __ZNSt3__112__hash_tableINS_17__hash_value_typeIiNS_6vectorIiNS_9allocatorIiEEEEEENS_22__unordered_map_hasherIiS6_NS_4hashIiEENS_8equal_toIiEELb1EEENS_21__unordered_map_equalIiS6_SB_S9_Lb1EEENS3_IS6_EEE14__assign_multiINS_21__hash_const_iteratorIPNS_11__hash_nodeIS6_PvEEEEEEvT_SO_.cold.1, symObjAddr: 0x1C490, symBinAddr: 0x1C941C, symSize: 0x3C }
  - { offset: 0x4A33D1, size: 0x8, addend: 0x0, symName: _llama_sampler_chain_get, symObjAddr: 0x624, symBinAddr: 0xA9304, symSize: 0x2C }
  - { offset: 0x4A3570, size: 0x8, addend: 0x0, symName: _llama_sampler_chain_remove, symObjAddr: 0x650, symBinAddr: 0xA9330, symSize: 0x80 }
  - { offset: 0x4A37D5, size: 0x8, addend: 0x0, symName: _llama_sampler_chain_n, symObjAddr: 0x6D0, symBinAddr: 0xA93B0, symSize: 0x14 }
  - { offset: 0x4A3832, size: 0x8, addend: 0x0, symName: _llama_sampler_init_greedy, symObjAddr: 0x6E4, symBinAddr: 0xA93C4, symSize: 0x24 }
  - { offset: 0x4A38F4, size: 0x8, addend: 0x0, symName: _llama_sampler_init_dist, symObjAddr: 0x708, symBinAddr: 0xA93E8, symSize: 0x90 }
  - { offset: 0x4A3C46, size: 0x8, addend: 0x0, symName: __ZNSt3__113random_deviceC1B8ne180100Ev, symObjAddr: 0x2BB0, symBinAddr: 0xAB838, symSize: 0x98 }
  - { offset: 0x4A40FF, size: 0x8, addend: 0x0, symName: _llama_sampler_init_softmax, symObjAddr: 0x8F0, symBinAddr: 0xA95D0, symSize: 0x24 }
  - { offset: 0x4A4141, size: 0x8, addend: 0x0, symName: _llama_sampler_init_top_k, symObjAddr: 0x914, symBinAddr: 0xA95F4, symSize: 0x40 }
  - { offset: 0x4A4185, size: 0x8, addend: 0x0, symName: _llama_sampler_init_top_p, symObjAddr: 0x954, symBinAddr: 0xA9634, symSize: 0x50 }
  - { offset: 0x4A41D2, size: 0x8, addend: 0x0, symName: _llama_sampler_init_min_p, symObjAddr: 0x9A4, symBinAddr: 0xA9684, symSize: 0x50 }
  - { offset: 0x4A421F, size: 0x8, addend: 0x0, symName: _llama_sampler_init_typical, symObjAddr: 0x9F4, symBinAddr: 0xA96D4, symSize: 0x50 }
  - { offset: 0x4A426C, size: 0x8, addend: 0x0, symName: _llama_sampler_init_temp, symObjAddr: 0xA44, symBinAddr: 0xA9724, symSize: 0x48 }
  - { offset: 0x4A42B0, size: 0x8, addend: 0x0, symName: _llama_sampler_init_temp_ext, symObjAddr: 0xA8C, symBinAddr: 0xA976C, symSize: 0x5C }
  - { offset: 0x4A4306, size: 0x8, addend: 0x0, symName: _llama_sampler_init_xtc, symObjAddr: 0xAE8, symBinAddr: 0xA97C8, symSize: 0xB0 }
  - { offset: 0x4A4410, size: 0x8, addend: 0x0, symName: _llama_sampler_init_mirostat, symObjAddr: 0xB98, symBinAddr: 0xA9878, symSize: 0xC8 }
  - { offset: 0x4A4523, size: 0x8, addend: 0x0, symName: _llama_sampler_init_mirostat_v2, symObjAddr: 0xC60, symBinAddr: 0xA9940, symSize: 0xAC }
  - { offset: 0x4A4624, size: 0x8, addend: 0x0, symName: _llama_sampler_init_grammar, symObjAddr: 0xD0C, symBinAddr: 0xA99EC, symSize: 0x34 }
  - { offset: 0x4A4A8F, size: 0x8, addend: 0x0, symName: __ZNSt3__111basic_regexIcNS_12regex_traitsIcEEEC2B8ne180100EPKcNS_15regex_constants18syntax_option_typeE, symObjAddr: 0xBE94, symBinAddr: 0xB49F8, symSize: 0xCC }
  - { offset: 0x4A4C6E, size: 0x8, addend: 0x0, symName: _llama_sampler_init_grammar_lazy, symObjAddr: 0x135C, symBinAddr: 0xAA03C, symSize: 0x34 }
  - { offset: 0x4A4D45, size: 0x8, addend: 0x0, symName: _llama_sampler_init_grammar_lazy_patterns, symObjAddr: 0x1390, symBinAddr: 0xAA070, symSize: 0x34 }
  - { offset: 0x4A51E1, size: 0x8, addend: 0x0, symName: _llama_sampler_init_penalties, symObjAddr: 0x13C4, symBinAddr: 0xAA0A4, symSize: 0xE0 }
  - { offset: 0x4A55C6, size: 0x8, addend: 0x0, symName: _llama_sampler_init_top_n_sigma, symObjAddr: 0x14A4, symBinAddr: 0xAA184, symSize: 0x48 }
  - { offset: 0x4A6DE3, size: 0x8, addend: 0x0, symName: _llama_sampler_init_dry, symObjAddr: 0x14EC, symBinAddr: 0xAA1CC, symSize: 0xB8C }
  - { offset: 0x4AAB30, size: 0x8, addend: 0x0, symName: __ZNSt3__112__hash_tableINS_17__hash_value_typeIiNS_6vectorIiNS_9allocatorIiEEEEEENS_22__unordered_map_hasherIiS6_NS_4hashIiEENS_8equal_toIiEELb1EEENS_21__unordered_map_equalIiS6_SB_S9_Lb1EEENS3_IS6_EEE27__node_insert_multi_prepareEmRS6_, symObjAddr: 0x19A84, symBinAddr: 0xB6658, symSize: 0x288 }
  - { offset: 0x4AAE02, size: 0x8, addend: 0x0, symName: __ZNSt3__112__hash_tableINS_17__hash_value_typeIiNS_6vectorIiNS_9allocatorIiEEEEEENS_22__unordered_map_hasherIiS6_NS_4hashIiEENS_8equal_toIiEELb1EEENS_21__unordered_map_equalIiS6_SB_S9_Lb1EEENS3_IS6_EEE19__node_insert_multiEPNS_11__hash_nodeIS6_PvEE, symObjAddr: 0x19914, symBinAddr: 0xB64E8, symSize: 0x124 }
  - { offset: 0x4AB00D, size: 0x8, addend: 0x0, symName: __ZNKSt3__16vectorI16llama_token_dataNS_9allocatorIS1_EEE20__throw_length_errorB8ne180100Ev, symObjAddr: 0x5AB0, symBinAddr: 0xAE688, symSize: 0x14 }
  - { offset: 0x4AB1C6, size: 0x8, addend: 0x0, symName: __ZNSt3__118unordered_multimapIiNS_6vectorIiNS_9allocatorIiEEEENS_4hashIiEENS_8equal_toIiEENS2_INS_4pairIKiS4_EEEEED1B8ne180100Ev, symObjAddr: 0x20C0, symBinAddr: 0xAAD58, symSize: 0x68 }
  - { offset: 0x4AB62D, size: 0x8, addend: 0x0, symName: __ZNSt3__110unique_ptrINS_11__hash_nodeINS_17__hash_value_typeIiNS_6vectorIiNS_9allocatorIiEEEEEEPvEENS_22__hash_node_destructorINS4_IS9_EEEEED1B8ne180100Ev, symObjAddr: 0x19A38, symBinAddr: 0xB660C, symSize: 0x4C }
  - { offset: 0x4ABCF7, size: 0x8, addend: 0x0, symName: __Z30llama_sampler_init_dry_testingiffiiRKNSt3__16vectorINS0_IiNS_9allocatorIiEEEENS1_IS3_EEEE, symObjAddr: 0x2128, symBinAddr: 0xAADC0, symSize: 0x27C }
  - { offset: 0x4AD01E, size: 0x8, addend: 0x0, symName: _llama_sampler_init_logit_bias, symObjAddr: 0x23A4, symBinAddr: 0xAB03C, symSize: 0xD0 }
  - { offset: 0x4AD4D6, size: 0x8, addend: 0x0, symName: __ZNKSt3__16vectorI16llama_logit_biasNS_9allocatorIS1_EEE20__throw_length_errorB8ne180100Ev, symObjAddr: 0x1BAF8, symBinAddr: 0xB86CC, symSize: 0x14 }
  - { offset: 0x4AD500, size: 0x8, addend: 0x0, symName: __ZL25llama_sampler_infill_namePK13llama_sampler, symObjAddr: 0x1BB0C, symBinAddr: 0xB86E0, symSize: 0xC }
  - { offset: 0x4AD6F0, size: 0x8, addend: 0x0, symName: _llama_sampler_init_infill, symObjAddr: 0x2474, symBinAddr: 0xAB10C, symSize: 0x138 }
  - { offset: 0x4ADB6E, size: 0x8, addend: 0x0, symName: _llama_sampler_get_seed, symObjAddr: 0x25AC, symBinAddr: 0xAB244, symSize: 0xBC }
  - { offset: 0x4ADC94, size: 0x8, addend: 0x0, symName: _llama_perf_sampler, symObjAddr: 0x2668, symBinAddr: 0xAB300, symSize: 0x84 }
  - { offset: 0x4ADD21, size: 0x8, addend: 0x0, symName: _llama_perf_sampler_print, symObjAddr: 0x26EC, symBinAddr: 0xAB384, symSize: 0xC4 }
  - { offset: 0x4ADD8C, size: 0x8, addend: 0x0, symName: _llama_perf_sampler_print, symObjAddr: 0x26EC, symBinAddr: 0xAB384, symSize: 0xC4 }
  - { offset: 0x4ADE44, size: 0x8, addend: 0x0, symName: _llama_perf_sampler_reset, symObjAddr: 0x27B0, symBinAddr: 0xAB448, symSize: 0x60 }
  - { offset: 0x4ADE57, size: 0x8, addend: 0x0, symName: _llama_perf_sampler_reset, symObjAddr: 0x27B0, symBinAddr: 0xAB448, symSize: 0x60 }
  - { offset: 0x4ADE93, size: 0x8, addend: 0x0, symName: __ZL24llama_sampler_chain_namePK13llama_sampler, symObjAddr: 0x2810, symBinAddr: 0xAB4A8, symSize: 0xC }
  - { offset: 0x4ADEA6, size: 0x8, addend: 0x0, symName: __ZL24llama_sampler_chain_namePK13llama_sampler, symObjAddr: 0x2810, symBinAddr: 0xAB4A8, symSize: 0xC }
  - { offset: 0x4ADF01, size: 0x8, addend: 0x0, symName: __ZL26llama_sampler_chain_acceptP13llama_sampleri, symObjAddr: 0x281C, symBinAddr: 0xAB4B4, symSize: 0x98 }
  - { offset: 0x4AE026, size: 0x8, addend: 0x0, symName: __ZL25llama_sampler_chain_applyP13llama_samplerP22llama_token_data_array, symObjAddr: 0x28B4, symBinAddr: 0xAB54C, symSize: 0xC8 }
  - { offset: 0x4AE15F, size: 0x8, addend: 0x0, symName: __ZL25llama_sampler_chain_resetP13llama_sampler, symObjAddr: 0x297C, symBinAddr: 0xAB614, symSize: 0x58 }
  - { offset: 0x4AE2BE, size: 0x8, addend: 0x0, symName: __ZL25llama_sampler_chain_clonePK13llama_sampler, symObjAddr: 0x29D4, symBinAddr: 0xAB66C, symSize: 0xCC }
  - { offset: 0x4AE42E, size: 0x8, addend: 0x0, symName: __ZL24llama_sampler_chain_freeP13llama_sampler, symObjAddr: 0x2AA0, symBinAddr: 0xAB738, symSize: 0x98 }
  - { offset: 0x4AE4FA, size: 0x8, addend: 0x0, symName: __ZL24llama_sampler_chain_freeP13llama_sampler, symObjAddr: 0x2AA0, symBinAddr: 0xAB738, symSize: 0x98 }
  - { offset: 0x4AE71D, size: 0x8, addend: 0x0, symName: __ZL25llama_sampler_greedy_namePK13llama_sampler, symObjAddr: 0x2B48, symBinAddr: 0xAB7D0, symSize: 0xC }
  - { offset: 0x4AE745, size: 0x8, addend: 0x0, symName: __ZL26llama_sampler_greedy_applyP13llama_samplerP22llama_token_data_array, symObjAddr: 0x2B54, symBinAddr: 0xAB7DC, symSize: 0x5C }
  - { offset: 0x4AE798, size: 0x8, addend: 0x0, symName: __ZL23llama_sampler_dist_namePK13llama_sampler, symObjAddr: 0x2C48, symBinAddr: 0xAB8D0, symSize: 0xC }
  - { offset: 0x4AE821, size: 0x8, addend: 0x0, symName: __ZL24llama_sampler_dist_applyP13llama_samplerP22llama_token_data_array, symObjAddr: 0x2C54, symBinAddr: 0xAB8DC, symSize: 0x25C }
  - { offset: 0x4AE98A, size: 0x8, addend: 0x0, symName: __ZL24llama_sampler_dist_resetP13llama_sampler, symObjAddr: 0x2EB0, symBinAddr: 0xABB38, symSize: 0x64 }
  - { offset: 0x4AE99D, size: 0x8, addend: 0x0, symName: __ZL24llama_sampler_dist_resetP13llama_sampler, symObjAddr: 0x2EB0, symBinAddr: 0xABB38, symSize: 0x64 }
  - { offset: 0x4AEA46, size: 0x8, addend: 0x0, symName: __ZL24llama_sampler_dist_clonePK13llama_sampler, symObjAddr: 0x2F14, symBinAddr: 0xABB9C, symSize: 0xB4 }
  - { offset: 0x4AEBA3, size: 0x8, addend: 0x0, symName: __ZL23llama_sampler_dist_freeP13llama_sampler, symObjAddr: 0x2FC8, symBinAddr: 0xABC50, symSize: 0x10 }
  - { offset: 0x4AF2DB, size: 0x8, addend: 0x0, symName: __ZNSt3__121discrete_distributionIiE10param_type6__initEv, symObjAddr: 0x480C, symBinAddr: 0xAD494, symSize: 0x224 }
  - { offset: 0x4AF901, size: 0x8, addend: 0x0, symName: __ZNSt3__121discrete_distributionIiEclINS_23mersenne_twister_engineIjLm32ELm624ELm397ELm31ELj2567483615ELm11ELj4294967295ELm7ELj2636928640ELm15ELj4022730752ELm18ELj1812433253EEEEEiRT_RKNS1_10param_typeE, symObjAddr: 0x4C10, symBinAddr: 0xAD7FC, symSize: 0x174 }
  - { offset: 0x4AF957, size: 0x8, addend: 0x0, symName: __ZNSt3__121discrete_distributionIiEclINS_23mersenne_twister_engineIjLm32ELm624ELm397ELm31ELj2567483615ELm11ELj4294967295ELm7ELj2636928640ELm15ELj4022730752ELm18ELj1812433253EEEEEiRT_RKNS1_10param_typeE, symObjAddr: 0x4C10, symBinAddr: 0xAD7FC, symSize: 0x174 }
  - { offset: 0x4AFC57, size: 0x8, addend: 0x0, symName: __ZNKSt3__16vectorIdNS_9allocatorIdEEE20__throw_length_errorB8ne180100Ev, symObjAddr: 0x4A30, symBinAddr: 0xAD6B8, symSize: 0x14 }
  - { offset: 0x4AFF12, size: 0x8, addend: 0x0, symName: __ZNSt3__16vectorIdNS_9allocatorIdEEE13shrink_to_fitEv, symObjAddr: 0x4AE0, symBinAddr: 0xAD6CC, symSize: 0x130 }
  - { offset: 0x4B0418, size: 0x8, addend: 0x0, symName: __ZL26llama_sampler_softmax_namePK13llama_sampler, symObjAddr: 0x4D84, symBinAddr: 0xAD970, symSize: 0xC }
  - { offset: 0x4B0440, size: 0x8, addend: 0x0, symName: __ZL27llama_sampler_softmax_applyP13llama_samplerP22llama_token_data_array, symObjAddr: 0x4D90, symBinAddr: 0xAD97C, symSize: 0x244 }
  - { offset: 0x4B0557, size: 0x8, addend: 0x0, symName: __ZL24llama_sampler_top_k_namePK13llama_sampler, symObjAddr: 0x4FD4, symBinAddr: 0xADBC0, symSize: 0xC }
  - { offset: 0x4B056A, size: 0x8, addend: 0x0, symName: __ZL24llama_sampler_top_k_namePK13llama_sampler, symObjAddr: 0x4FD4, symBinAddr: 0xADBC0, symSize: 0xC }
  - { offset: 0x4B0592, size: 0x8, addend: 0x0, symName: __ZL25llama_sampler_top_k_applyP13llama_samplerP22llama_token_data_array, symObjAddr: 0x4FE0, symBinAddr: 0xADBCC, symSize: 0x14 }
  - { offset: 0x4B05F7, size: 0x8, addend: 0x0, symName: __ZL24llama_sampler_top_k_implP22llama_token_data_arrayi, symObjAddr: 0x5048, symBinAddr: 0xADC34, symSize: 0x648 }
  - { offset: 0x4B1CCD, size: 0x8, addend: 0x0, symName: __ZL25llama_sampler_top_k_clonePK13llama_sampler, symObjAddr: 0x4FF4, symBinAddr: 0xADBE0, symSize: 0x44 }
  - { offset: 0x4B1D52, size: 0x8, addend: 0x0, symName: __ZL24llama_sampler_top_k_freeP13llama_sampler, symObjAddr: 0x5038, symBinAddr: 0xADC24, symSize: 0x10 }
  - { offset: 0x4B241E, size: 0x8, addend: 0x0, symName: __ZNKSt3__16vectorIP16llama_token_dataNS_9allocatorIS2_EEE20__throw_length_errorB8ne180100Ev, symObjAddr: 0x5AC4, symBinAddr: 0xAE69C, symSize: 0x14 }
  - { offset: 0x4B2448, size: 0x8, addend: 0x0, symName: '__ZNSt3__111__introsortINS_17_ClassicAlgPolicyERZL24llama_sampler_top_k_implP22llama_token_data_arrayiE3$_0P16llama_token_dataLb0EEEvT1_S8_T0_NS_15iterator_traitsIS8_E15difference_typeEb', symObjAddr: 0x5AD8, symBinAddr: 0xAE6B0, symSize: 0xD28 }
  - { offset: 0x4B2453, size: 0x8, addend: 0x0, symName: __ZL24llama_sampler_top_p_namePK13llama_sampler, symObjAddr: 0x6E40, symBinAddr: 0xAFA18, symSize: 0xC }
  - { offset: 0x4B247B, size: 0x8, addend: 0x0, symName: __ZL25llama_sampler_top_p_applyP13llama_samplerP22llama_token_data_array, symObjAddr: 0x6E4C, symBinAddr: 0xAFA24, symSize: 0x2B0 }
  - { offset: 0x4B25EE, size: 0x8, addend: 0x0, symName: __ZL25llama_sampler_top_p_clonePK13llama_sampler, symObjAddr: 0x70FC, symBinAddr: 0xAFCD4, symSize: 0x54 }
  - { offset: 0x4B2628, size: 0x8, addend: 0x0, symName: __ZL25llama_sampler_top_p_clonePK13llama_sampler, symObjAddr: 0x70FC, symBinAddr: 0xAFCD4, symSize: 0x54 }
  - { offset: 0x4B26B5, size: 0x8, addend: 0x0, symName: __ZL24llama_sampler_top_p_freeP13llama_sampler, symObjAddr: 0x7150, symBinAddr: 0xAFD28, symSize: 0x10 }
  - { offset: 0x4B26E2, size: 0x8, addend: 0x0, symName: __ZL24llama_sampler_min_p_namePK13llama_sampler, symObjAddr: 0x7160, symBinAddr: 0xAFD38, symSize: 0xC }
  - { offset: 0x4B2877, size: 0x8, addend: 0x0, symName: __ZL25llama_sampler_min_p_applyP13llama_samplerP22llama_token_data_array, symObjAddr: 0x716C, symBinAddr: 0xAFD44, symSize: 0x358 }
  - { offset: 0x4B3230, size: 0x8, addend: 0x0, symName: __ZL25llama_sampler_min_p_clonePK13llama_sampler, symObjAddr: 0x74C4, symBinAddr: 0xB009C, symSize: 0x54 }
  - { offset: 0x4B32BD, size: 0x8, addend: 0x0, symName: __ZL24llama_sampler_min_p_freeP13llama_sampler, symObjAddr: 0x7518, symBinAddr: 0xB00F0, symSize: 0x10 }
  - { offset: 0x4B32EA, size: 0x8, addend: 0x0, symName: __ZL26llama_sampler_typical_namePK13llama_sampler, symObjAddr: 0x8AB4, symBinAddr: 0xB168C, symSize: 0xC }
  - { offset: 0x4B33AE, size: 0x8, addend: 0x0, symName: __ZL27llama_sampler_typical_applyP13llama_samplerP22llama_token_data_array, symObjAddr: 0x8AC0, symBinAddr: 0xB1698, symSize: 0x998 }
  - { offset: 0x4B50BD, size: 0x8, addend: 0x0, symName: __ZNKSt3__16vectorImNS_9allocatorImEEE20__throw_length_errorB8ne180100Ev, symObjAddr: 0x94D0, symBinAddr: 0xB2094, symSize: 0x14 }
  - { offset: 0x4B50C8, size: 0x8, addend: 0x0, symName: __ZNKSt3__16vectorImNS_9allocatorImEEE20__throw_length_errorB8ne180100Ev, symObjAddr: 0x94D0, symBinAddr: 0xB2094, symSize: 0x14 }
  - { offset: 0x4B50F2, size: 0x8, addend: 0x0, symName: '__ZNSt3__111__introsortINS_17_ClassicAlgPolicyERZL27llama_sampler_typical_applyP13llama_samplerP22llama_token_data_arrayE3$_0PmLb0EEEvT1_S9_T0_NS_15iterator_traitsIS9_E15difference_typeEb', symObjAddr: 0x94E4, symBinAddr: 0xB20A8, symSize: 0xAD0 }
  - { offset: 0x4B5124, size: 0x8, addend: 0x0, symName: __ZL27llama_sampler_typical_clonePK13llama_sampler, symObjAddr: 0x9458, symBinAddr: 0xB2030, symSize: 0x54 }
  - { offset: 0x4B51B1, size: 0x8, addend: 0x0, symName: __ZL26llama_sampler_typical_freeP13llama_sampler, symObjAddr: 0x94AC, symBinAddr: 0xB2084, symSize: 0x10 }
  - { offset: 0x4B529D, size: 0x8, addend: 0x0, symName: __ZL23llama_sampler_temp_namePK13llama_sampler, symObjAddr: 0xA4D4, symBinAddr: 0xB3098, symSize: 0xC }
  - { offset: 0x4B531B, size: 0x8, addend: 0x0, symName: __ZL24llama_sampler_temp_applyP13llama_samplerP22llama_token_data_array, symObjAddr: 0xA4E0, symBinAddr: 0xB30A4, symSize: 0x138 }
  - { offset: 0x4B53DF, size: 0x8, addend: 0x0, symName: __ZL24llama_sampler_temp_clonePK13llama_sampler, symObjAddr: 0xA618, symBinAddr: 0xB31DC, symSize: 0x4C }
  - { offset: 0x4B5465, size: 0x8, addend: 0x0, symName: __ZL23llama_sampler_temp_freeP13llama_sampler, symObjAddr: 0xA664, symBinAddr: 0xB3228, symSize: 0x10 }
  - { offset: 0x4B5492, size: 0x8, addend: 0x0, symName: __ZL27llama_sampler_temp_ext_namePK13llama_sampler, symObjAddr: 0xA674, symBinAddr: 0xB3238, symSize: 0xC }
  - { offset: 0x4B54BA, size: 0x8, addend: 0x0, symName: __ZL28llama_sampler_temp_ext_applyP13llama_samplerP22llama_token_data_array, symObjAddr: 0xA680, symBinAddr: 0xB3244, symSize: 0x624 }
  - { offset: 0x4B57FE, size: 0x8, addend: 0x0, symName: __ZL28llama_sampler_temp_ext_clonePK13llama_sampler, symObjAddr: 0xACA4, symBinAddr: 0xB3868, symSize: 0x54 }
  - { offset: 0x4B5884, size: 0x8, addend: 0x0, symName: __ZL27llama_sampler_temp_ext_freeP13llama_sampler, symObjAddr: 0xACF8, symBinAddr: 0xB38BC, symSize: 0x10 }
  - { offset: 0x4B58B1, size: 0x8, addend: 0x0, symName: __ZL22llama_sampler_xtc_namePK13llama_sampler, symObjAddr: 0xAD08, symBinAddr: 0xB38CC, symSize: 0xC }
  - { offset: 0x4B5961, size: 0x8, addend: 0x0, symName: __ZL22llama_sample_xtc_applyP13llama_samplerP22llama_token_data_array, symObjAddr: 0xAD14, symBinAddr: 0xB38D8, symSize: 0x370 }
  - { offset: 0x4B5BA7, size: 0x8, addend: 0x0, symName: __ZL23llama_sampler_xtc_resetP13llama_sampler, symObjAddr: 0xB084, symBinAddr: 0xB3C48, symSize: 0x64 }
  - { offset: 0x4B5C74, size: 0x8, addend: 0x0, symName: __ZL23llama_sampler_xtc_clonePK13llama_sampler, symObjAddr: 0xB0E8, symBinAddr: 0xB3CAC, symSize: 0xD4 }
  - { offset: 0x4B5DD8, size: 0x8, addend: 0x0, symName: __ZL22llama_sampler_xtc_freeP13llama_sampler, symObjAddr: 0xB1BC, symBinAddr: 0xB3D80, symSize: 0x10 }
  - { offset: 0x4B5E05, size: 0x8, addend: 0x0, symName: __ZL27llama_sampler_mirostat_namePK13llama_sampler, symObjAddr: 0xB1CC, symBinAddr: 0xB3D90, symSize: 0xC }
  - { offset: 0x4B5E2D, size: 0x8, addend: 0x0, symName: __ZL28llama_sampler_mirostat_applyP13llama_samplerP22llama_token_data_array, symObjAddr: 0xB1D8, symBinAddr: 0xB3D9C, symSize: 0x50C }
  - { offset: 0x4B6195, size: 0x8, addend: 0x0, symName: __ZL28llama_sampler_mirostat_resetP13llama_sampler, symObjAddr: 0xB6E4, symBinAddr: 0xB42A8, symSize: 0x74 }
  - { offset: 0x4B61A8, size: 0x8, addend: 0x0, symName: __ZL28llama_sampler_mirostat_resetP13llama_sampler, symObjAddr: 0xB6E4, symBinAddr: 0xB42A8, symSize: 0x74 }
  - { offset: 0x4B628A, size: 0x8, addend: 0x0, symName: __ZL28llama_sampler_mirostat_clonePK13llama_sampler, symObjAddr: 0xB758, symBinAddr: 0xB431C, symSize: 0xFC }
  - { offset: 0x4B63F8, size: 0x8, addend: 0x0, symName: __ZL27llama_sampler_mirostat_freeP13llama_sampler, symObjAddr: 0xB854, symBinAddr: 0xB4418, symSize: 0x10 }
  - { offset: 0x4B6425, size: 0x8, addend: 0x0, symName: __ZL30llama_sampler_mirostat_v2_namePK13llama_sampler, symObjAddr: 0xB864, symBinAddr: 0xB4428, symSize: 0xC }
  - { offset: 0x4B644D, size: 0x8, addend: 0x0, symName: __ZL31llama_sampler_mirostat_v2_applyP13llama_samplerP22llama_token_data_array, symObjAddr: 0xB870, symBinAddr: 0xB4434, symSize: 0x464 }
  - { offset: 0x4B66A9, size: 0x8, addend: 0x0, symName: __ZL31llama_sampler_mirostat_v2_resetP13llama_sampler, symObjAddr: 0xBCD4, symBinAddr: 0xB4898, symSize: 0x74 }
  - { offset: 0x4B66FB, size: 0x8, addend: 0x0, symName: __ZL31llama_sampler_mirostat_v2_resetP13llama_sampler, symObjAddr: 0xBCD4, symBinAddr: 0xB4898, symSize: 0x74 }
  - { offset: 0x4B67C5, size: 0x8, addend: 0x0, symName: __ZL31llama_sampler_mirostat_v2_clonePK13llama_sampler, symObjAddr: 0xBD48, symBinAddr: 0xB490C, symSize: 0xDC }
  - { offset: 0x4B6925, size: 0x8, addend: 0x0, symName: __ZL30llama_sampler_mirostat_v2_freeP13llama_sampler, symObjAddr: 0xBE24, symBinAddr: 0xB49E8, symSize: 0x10 }
  - { offset: 0x4C7E68, size: 0x8, addend: 0x0, symName: __ZNKSt3__113match_resultsIPKcNS_9allocatorINS_9sub_matchIS2_EEEEE6formatINS_20back_insert_iteratorINS_12basic_stringIcNS_11char_traitsIcEENS3_IcEEEEEEEET_SG_S2_S2_NS_15regex_constants15match_flag_typeE, symObjAddr: 0x1587C, symBinAddr: 0xB4D1C, symSize: 0x298 }
  - { offset: 0x4C8628, size: 0x8, addend: 0x0, symName: __ZNSt3__114regex_iteratorIPKccNS_12regex_traitsIcEEEppEv, symObjAddr: 0x15B14, symBinAddr: 0xB4FB4, symSize: 0xF8 }
  - { offset: 0x4CD5FC, size: 0x8, addend: 0x0, symName: __ZL26llama_sampler_grammar_namePK13llama_sampler, symObjAddr: 0x18318, symBinAddr: 0xB50AC, symSize: 0xC }
  - { offset: 0x4CE878, size: 0x8, addend: 0x0, symName: __ZL26llama_sampler_grammar_namePK13llama_sampler, symObjAddr: 0x18318, symBinAddr: 0xB50AC, symSize: 0xC }
  - { offset: 0x4CE8A0, size: 0x8, addend: 0x0, symName: __ZL33llama_sampler_grammar_accept_implP13llama_sampleri, symObjAddr: 0x18324, symBinAddr: 0xB50B8, symSize: 0x14 }
  - { offset: 0x4CE916, size: 0x8, addend: 0x0, symName: __ZL27llama_sampler_grammar_applyP13llama_samplerP22llama_token_data_array, symObjAddr: 0x18338, symBinAddr: 0xB50CC, symSize: 0x14 }
  - { offset: 0x4CEE8E, size: 0x8, addend: 0x0, symName: __ZL27llama_sampler_grammar_resetP13llama_sampler, symObjAddr: 0x1834C, symBinAddr: 0xB50E0, symSize: 0x344 }
  - { offset: 0x4CF977, size: 0x8, addend: 0x0, symName: __ZL28llama_sampler_penalties_namePK13llama_sampler, symObjAddr: 0x187B0, symBinAddr: 0xB5530, symSize: 0xC }
  - { offset: 0x4CFA41, size: 0x8, addend: 0x0, symName: __ZL27llama_sampler_grammar_clonePK13llama_sampler, symObjAddr: 0x18690, symBinAddr: 0xB5424, symSize: 0xA8 }
  - { offset: 0x4CFC4B, size: 0x8, addend: 0x0, symName: __ZL26llama_sampler_grammar_freeP13llama_sampler, symObjAddr: 0x18738, symBinAddr: 0xB54CC, symSize: 0x64 }
  - { offset: 0x4CFEE7, size: 0x8, addend: 0x0, symName: __ZL28llama_sampler_penalties_namePK13llama_sampler, symObjAddr: 0x187B0, symBinAddr: 0xB5530, symSize: 0xC }
  - { offset: 0x4CFFA7, size: 0x8, addend: 0x0, symName: __ZL30llama_sampler_penalties_acceptP13llama_sampleri, symObjAddr: 0x187BC, symBinAddr: 0xB553C, symSize: 0x1B8 }
  - { offset: 0x4D01C7, size: 0x8, addend: 0x0, symName: __ZNSt3__112__hash_tableINS_17__hash_value_typeIiiEENS_22__unordered_map_hasherIiS2_NS_4hashIiEENS_8equal_toIiEELb1EEENS_21__unordered_map_equalIiS2_S7_S5_Lb1EEENS_9allocatorIS2_EEE25__emplace_unique_key_argsIiJRKNS_21piecewise_construct_tENS_5tupleIJRKiEEENSI_IJEEEEEENS_4pairINS_15__hash_iteratorIPNS_11__hash_nodeIS2_PvEEEEbEERKT_DpOT0_, symObjAddr: 0x18D24, symBinAddr: 0xB5AA4, symSize: 0x324 }
  - { offset: 0x4D0933, size: 0x8, addend: 0x0, symName: __ZNSt3__112__hash_tableINS_17__hash_value_typeIiiEENS_22__unordered_map_hasherIiS2_NS_4hashIiEENS_8equal_toIiEELb1EEENS_21__unordered_map_equalIiS2_S7_S5_Lb1EEENS_9allocatorIS2_EEE14__erase_uniqueIiEEmRKT_, symObjAddr: 0x191F4, symBinAddr: 0xB5DC8, symSize: 0x114 }
  - { offset: 0x4D0D59, size: 0x8, addend: 0x0, symName: __ZL29llama_sampler_penalties_applyP13llama_samplerP22llama_token_data_array, symObjAddr: 0x18974, symBinAddr: 0xB56F4, symSize: 0x1CC }
  - { offset: 0x4D0F7B, size: 0x8, addend: 0x0, symName: __ZL29llama_sampler_penalties_resetP13llama_sampler, symObjAddr: 0x18B40, symBinAddr: 0xB58C0, symSize: 0x6C }
  - { offset: 0x4D12AA, size: 0x8, addend: 0x0, symName: __ZL29llama_sampler_penalties_clonePK13llama_sampler, symObjAddr: 0x18BAC, symBinAddr: 0xB592C, symSize: 0x110 }
  - { offset: 0x4D175C, size: 0x8, addend: 0x0, symName: __ZNSt3__16vectorIiNS_9allocatorIiEEE18__assign_with_sizeB8ne180100IPiS5_EEvT_T0_l, symObjAddr: 0x1943C, symBinAddr: 0xB6010, symSize: 0x144 }
  - { offset: 0x4D2148, size: 0x8, addend: 0x0, symName: __ZL30llama_sampler_top_n_sigma_namePK13llama_sampler, symObjAddr: 0x19580, symBinAddr: 0xB6154, symSize: 0xC }
  - { offset: 0x4D21FD, size: 0x8, addend: 0x0, symName: __ZL28llama_sampler_penalties_freeP13llama_sampler, symObjAddr: 0x18CBC, symBinAddr: 0xB5A3C, symSize: 0x68 }
  - { offset: 0x4D2DA6, size: 0x8, addend: 0x0, symName: __ZNSt3__112__hash_tableINS_17__hash_value_typeIiiEENS_22__unordered_map_hasherIiS2_NS_4hashIiEENS_8equal_toIiEELb1EEENS_21__unordered_map_equalIiS2_S7_S5_Lb1EEENS_9allocatorIS2_EEE14__erase_uniqueIiEEmRKT_, symObjAddr: 0x191F4, symBinAddr: 0xB5DC8, symSize: 0x114 }
  - { offset: 0x4D2E75, size: 0x8, addend: 0x0, symName: __ZNSt3__112__hash_tableINS_17__hash_value_typeIiiEENS_22__unordered_map_hasherIiS2_NS_4hashIiEENS_8equal_toIiEELb1EEENS_21__unordered_map_equalIiS2_S7_S5_Lb1EEENS_9allocatorIS2_EEE6removeENS_21__hash_const_iteratorIPNS_11__hash_nodeIS2_PvEEEE, symObjAddr: 0x19308, symBinAddr: 0xB5EDC, symSize: 0x134 }
  - { offset: 0x4D2EEF, size: 0x8, addend: 0x0, symName: __ZNSt3__112__hash_tableINS_17__hash_value_typeIiiEENS_22__unordered_map_hasherIiS2_NS_4hashIiEENS_8equal_toIiEELb1EEENS_21__unordered_map_equalIiS2_S7_S5_Lb1EEENS_9allocatorIS2_EEE6removeENS_21__hash_const_iteratorIPNS_11__hash_nodeIS2_PvEEEE, symObjAddr: 0x19308, symBinAddr: 0xB5EDC, symSize: 0x134 }
  - { offset: 0x4D2F0B, size: 0x8, addend: 0x0, symName: __ZNSt3__112__hash_tableINS_17__hash_value_typeIiiEENS_22__unordered_map_hasherIiS2_NS_4hashIiEENS_8equal_toIiEELb1EEENS_21__unordered_map_equalIiS2_S7_S5_Lb1EEENS_9allocatorIS2_EEE6removeENS_21__hash_const_iteratorIPNS_11__hash_nodeIS2_PvEEEE, symObjAddr: 0x19308, symBinAddr: 0xB5EDC, symSize: 0x134 }
  - { offset: 0x4D3333, size: 0x8, addend: 0x0, symName: __ZL30llama_sampler_top_n_sigma_namePK13llama_sampler, symObjAddr: 0x19580, symBinAddr: 0xB6154, symSize: 0xC }
  - { offset: 0x4D335B, size: 0x8, addend: 0x0, symName: __ZL31llama_sampler_top_n_sigma_applyP13llama_samplerP22llama_token_data_array, symObjAddr: 0x1958C, symBinAddr: 0xB6160, symSize: 0x32C }
  - { offset: 0x4D35E7, size: 0x8, addend: 0x0, symName: __ZL31llama_sampler_top_n_sigma_clonePK13llama_sampler, symObjAddr: 0x198B8, symBinAddr: 0xB648C, symSize: 0x4C }
  - { offset: 0x4D366D, size: 0x8, addend: 0x0, symName: __ZL30llama_sampler_top_n_sigma_freeP13llama_sampler, symObjAddr: 0x19904, symBinAddr: 0xB64D8, symSize: 0x10 }
  - { offset: 0x4D374B, size: 0x8, addend: 0x0, symName: __ZNSt3__112__hash_tableINS_17__hash_value_typeIiNS_6vectorIiNS_9allocatorIiEEEEEENS_22__unordered_map_hasherIiS6_NS_4hashIiEENS_8equal_toIiEELb1EEENS_21__unordered_map_equalIiS6_SB_S9_Lb1EEENS3_IS6_EEE11__do_rehashILb0EEEvm, symObjAddr: 0x19D0C, symBinAddr: 0xB68E0, symSize: 0x1D0 }
  - { offset: 0x4D3BFB, size: 0x8, addend: 0x0, symName: __ZL22llama_sampler_dry_namePK13llama_sampler, symObjAddr: 0x19EDC, symBinAddr: 0xB6AB0, symSize: 0xC }
  - { offset: 0x4D3C8E, size: 0x8, addend: 0x0, symName: __ZL22llama_sampler_dry_namePK13llama_sampler, symObjAddr: 0x19EDC, symBinAddr: 0xB6AB0, symSize: 0xC }
  - { offset: 0x4D3CB6, size: 0x8, addend: 0x0, symName: __ZL24llama_sampler_dry_acceptP13llama_sampleri, symObjAddr: 0x19EE8, symBinAddr: 0xB6ABC, symSize: 0xDC }
  - { offset: 0x4D3D61, size: 0x8, addend: 0x0, symName: __ZL23llama_sampler_dry_applyP13llama_samplerP22llama_token_data_array, symObjAddr: 0x19FC4, symBinAddr: 0xB6B98, symSize: 0xA4C }
  - { offset: 0x4D4CA7, size: 0x8, addend: 0x0, symName: __ZNSt3__16vectorIiNS_9allocatorIiEEE6assignEmRKi, symObjAddr: 0x1ABA8, symBinAddr: 0xB777C, symSize: 0x224 }
  - { offset: 0x4D51C7, size: 0x8, addend: 0x0, symName: __ZNSt3__112__hash_tableINS_17__hash_value_typeIiNS_6vectorIiNS_9allocatorIiEEEEEENS_22__unordered_map_hasherIiS6_NS_4hashIiEENS_8equal_toIiEELb1EEENS_21__unordered_map_equalIiS6_SB_S9_Lb1EEENS3_IS6_EEE14__assign_multiINS_21__hash_const_iteratorIPNS_11__hash_nodeIS6_PvEEEEEEvT_SO_, symObjAddr: 0x1ADCC, symBinAddr: 0xB79A0, symSize: 0x158 }
  - { offset: 0x4D51D9, size: 0x8, addend: 0x0, symName: __ZL23llama_sampler_dry_resetP13llama_sampler, symObjAddr: 0x1AA10, symBinAddr: 0xB75E4, symSize: 0x74 }
  - { offset: 0x4D55AF, size: 0x8, addend: 0x0, symName: __ZL23llama_sampler_dry_clonePK13llama_sampler, symObjAddr: 0x1AA84, symBinAddr: 0xB7658, symSize: 0x100 }
  - { offset: 0x4D5916, size: 0x8, addend: 0x0, symName: __ZNSt3__112__hash_tableINS_17__hash_value_typeIiNS_6vectorIiNS_9allocatorIiEEEEEENS_22__unordered_map_hasherIiS6_NS_4hashIiEENS_8equal_toIiEELb1EEENS_21__unordered_map_equalIiS6_SB_S9_Lb1EEENS3_IS6_EEE14__assign_multiINS_21__hash_const_iteratorIPNS_11__hash_nodeIS6_PvEEEEEEvT_SO_, symObjAddr: 0x1ADCC, symBinAddr: 0xB79A0, symSize: 0x158 }
  - { offset: 0x4D5FAA, size: 0x8, addend: 0x0, symName: __ZNSt3__112__hash_tableINS_17__hash_value_typeIiiEENS_22__unordered_map_hasherIiS2_NS_4hashIiEENS_8equal_toIiEELb1EEENS_21__unordered_map_equalIiS2_S7_S5_Lb1EEENS_9allocatorIS2_EEE14__assign_multiINS_21__hash_const_iteratorIPNS_11__hash_nodeIS2_PvEEEEEEvT_SL_, symObjAddr: 0x1B044, symBinAddr: 0xB7C18, symSize: 0x12C }
  - { offset: 0x4D66A5, size: 0x8, addend: 0x0, symName: __ZL22llama_sampler_dry_freeP13llama_sampler, symObjAddr: 0x1AB84, symBinAddr: 0xB7758, symSize: 0x24 }
  - { offset: 0x4D66FD, size: 0x8, addend: 0x0, symName: __ZN17llama_sampler_dryD2Ev, symObjAddr: 0x1B6EC, symBinAddr: 0xB82C0, symSize: 0xB0 }
  - { offset: 0x4D7327, size: 0x8, addend: 0x0, symName: __ZNSt3__112__hash_tableINS_17__hash_value_typeIiNS_6vectorIiNS_9allocatorIiEEEEEENS_22__unordered_map_hasherIiS6_NS_4hashIiEENS_8equal_toIiEELb1EEENS_21__unordered_map_equalIiS6_SB_S9_Lb1EEENS3_IS6_EEE16__construct_nodeIJRKNS_4pairIKiS5_EEEEENS_10unique_ptrINS_11__hash_nodeIS6_PvEENS_22__hash_node_destructorINS3_ISQ_EEEEEEDpOT_, symObjAddr: 0x1AF70, symBinAddr: 0xB7B44, symSize: 0xD4 }
  - { offset: 0x4D7A19, size: 0x8, addend: 0x0, symName: __ZNSt3__112__hash_tableINS_17__hash_value_typeIiNS_6vectorIiNS_9allocatorIiEEEEEENS_22__unordered_map_hasherIiS6_NS_4hashIiEENS_8equal_toIiEELb1EEENS_21__unordered_map_equalIiS6_SB_S9_Lb1EEENS3_IS6_EEE17__deallocate_nodeEPNS_16__hash_node_baseIPNS_11__hash_nodeIS6_PvEEEE, symObjAddr: 0x1AF24, symBinAddr: 0xB7AF8, symSize: 0x4C }
  - { offset: 0x4D7CD3, size: 0x8, addend: 0x0, symName: __ZNSt3__112__hash_tableINS_17__hash_value_typeIiNS_6vectorIiNS_9allocatorIiEEEEEENS_22__unordered_map_hasherIiS6_NS_4hashIiEENS_8equal_toIiEELb1EEENS_21__unordered_map_equalIiS6_SB_S9_Lb1EEENS3_IS6_EEE14__assign_multiINS_21__hash_const_iteratorIPNS_11__hash_nodeIS6_PvEEEEEEvT_SO_.cold.1, symObjAddr: 0x1C490, symBinAddr: 0x1C941C, symSize: 0x3C }
  - { offset: 0x4D829C, size: 0x8, addend: 0x0, symName: __ZNSt3__112__hash_tableINS_17__hash_value_typeIiiEENS_22__unordered_map_hasherIiS2_NS_4hashIiEENS_8equal_toIiEELb1EEENS_21__unordered_map_equalIiS2_S7_S5_Lb1EEENS_9allocatorIS2_EEE19__node_insert_multiEPNS_11__hash_nodeIS2_PvEE, symObjAddr: 0x1B170, symBinAddr: 0xB7D44, symSize: 0x124 }
  - { offset: 0x4D84D9, size: 0x8, addend: 0x0, symName: __ZNSt3__112__hash_tableINS_17__hash_value_typeIiiEENS_22__unordered_map_hasherIiS2_NS_4hashIiEENS_8equal_toIiEELb1EEENS_21__unordered_map_equalIiS2_S7_S5_Lb1EEENS_9allocatorIS2_EEE27__node_insert_multi_prepareEmRS2_, symObjAddr: 0x1B294, symBinAddr: 0xB7E68, symSize: 0x288 }
  - { offset: 0x4D8819, size: 0x8, addend: 0x0, symName: __ZNSt3__112__hash_tableINS_17__hash_value_typeIiiEENS_22__unordered_map_hasherIiS2_NS_4hashIiEENS_8equal_toIiEELb1EEENS_21__unordered_map_equalIiS2_S7_S5_Lb1EEENS_9allocatorIS2_EEE11__do_rehashILb0EEEvm, symObjAddr: 0x1B51C, symBinAddr: 0xB80F0, symSize: 0x1D0 }
  - { offset: 0x4D8CC9, size: 0x8, addend: 0x0, symName: __ZN17llama_sampler_dryD2Ev, symObjAddr: 0x1B6EC, symBinAddr: 0xB82C0, symSize: 0xB0 }
  - { offset: 0x4D8CDE, size: 0x8, addend: 0x0, symName: __ZL29llama_sampler_logit_bias_namePK13llama_sampler, symObjAddr: 0x1B79C, symBinAddr: 0xB8370, symSize: 0xC }
  - { offset: 0x4D9069, size: 0x8, addend: 0x0, symName: __ZL30llama_sampler_logit_bias_applyP13llama_samplerP22llama_token_data_array, symObjAddr: 0x1B7A8, symBinAddr: 0xB837C, symSize: 0x2E8 }
  - { offset: 0x4D9661, size: 0x8, addend: 0x0, symName: __ZL30llama_sampler_logit_bias_clonePK13llama_sampler, symObjAddr: 0x1BA90, symBinAddr: 0xB8664, symSize: 0x18 }
  - { offset: 0x4D966C, size: 0x8, addend: 0x0, symName: __ZL30llama_sampler_logit_bias_clonePK13llama_sampler, symObjAddr: 0x1BA90, symBinAddr: 0xB8664, symSize: 0x18 }
  - { offset: 0x4D974E, size: 0x8, addend: 0x0, symName: __ZL29llama_sampler_logit_bias_freeP13llama_sampler, symObjAddr: 0x1BAA8, symBinAddr: 0xB867C, symSize: 0x50 }
  - { offset: 0x4D9A09, size: 0x8, addend: 0x0, symName: __ZL25llama_sampler_infill_namePK13llama_sampler, symObjAddr: 0x1BB0C, symBinAddr: 0xB86E0, symSize: 0xC }
  - { offset: 0x4D9B80, size: 0x8, addend: 0x0, symName: __ZL26llama_sampler_infill_applyP13llama_samplerP22llama_token_data_array, symObjAddr: 0x1BB18, symBinAddr: 0xB86EC, symSize: 0x908 }
  - { offset: 0x4DA3D8, size: 0x8, addend: 0x0, symName: __ZL26llama_sampler_infill_clonePK13llama_sampler, symObjAddr: 0x1C420, symBinAddr: 0xB8FF4, symSize: 0xC }
  - { offset: 0x4DA3EB, size: 0x8, addend: 0x0, symName: __ZL26llama_sampler_infill_clonePK13llama_sampler, symObjAddr: 0x1C420, symBinAddr: 0xB8FF4, symSize: 0xC }
  - { offset: 0x4DA47A, size: 0x8, addend: 0x0, symName: __ZL25llama_sampler_infill_freeP13llama_sampler, symObjAddr: 0x1C42C, symBinAddr: 0xB9000, symSize: 0x50 }
  - { offset: 0x4FF658, size: 0x8, addend: 0x0, symName: '__ZNSt3__111__introsortINS_17_ClassicAlgPolicyERZN11llama_vocab4impl4loadER18llama_model_loaderRK6LLM_KVE3$_0PiLb0EEEvT1_SC_T0_NS_15iterator_traitsISC_E15difference_typeEb', symObjAddr: 0x1185C, symBinAddr: 0xC9E34, symSize: 0xF6C }
  - { offset: 0x50163B, size: 0x8, addend: 0x0, symName: '__ZNSt3__127__insertion_sort_incompleteB8ne180100INS_17_ClassicAlgPolicyERZN11llama_vocab4impl4loadER18llama_model_loaderRK6LLM_KVE3$_0PiEEbT1_SC_T0_', symObjAddr: 0x12C34, symBinAddr: 0xCB20C, symSize: 0x3FC }
  - { offset: 0x5055DC, size: 0x8, addend: 0x0, symName: __ZNSt3__110__pop_heapB8ne180100INS_17_ClassicAlgPolicyEN14llm_bigram_spm10comparatorENS_11__wrap_iterIPS2_EEEEvT1_S7_RT0_NS_15iterator_traitsIS7_E15difference_typeE, symObjAddr: 0xEA44, symBinAddr: 0xC7620, symSize: 0x218 }
  - { offset: 0x505E84, size: 0x8, addend: 0x0, symName: __ZNSt3__1plB8ne180100IcNS_11char_traitsIcEENS_9allocatorIcEEEENS_12basic_stringIT_T0_T1_EERKS9_PKS6_, symObjAddr: 0xD0DC, symBinAddr: 0xC5F08, symSize: 0xF8 }
  - { offset: 0x5064D6, size: 0x8, addend: 0x0, symName: __ZNK11llama_vocab24get_precompiled_charsmapEv, symObjAddr: 0xD1D4, symBinAddr: 0xC6000, symSize: 0x8C }
  - { offset: 0x5071FB, size: 0x8, addend: 0x0, symName: __ZNSt3__19__sift_upB8ne180100INS_17_ClassicAlgPolicyERN14llm_bigram_bpe10comparatorENS_11__wrap_iterIPS2_EEEEvT1_S8_OT0_NS_15iterator_traitsIS8_E15difference_typeE, symObjAddr: 0xF31C, symBinAddr: 0xC7EE4, symSize: 0x194 }
  - { offset: 0x508A5C, size: 0x8, addend: 0x0, symName: '__ZNSt3__17__sort3B8ne180100INS_17_ClassicAlgPolicyERZN11llama_vocab4impl4loadER18llama_model_loaderRK6LLM_KVE3$_0PiEEjT1_SC_SC_T0_', symObjAddr: 0x12AB0, symBinAddr: 0xCB088, symSize: 0x184 }
  - { offset: 0x509157, size: 0x8, addend: 0x0, symName: '__ZNSt3__124__sort5_maybe_branchlessB8ne180100INS_17_ClassicAlgPolicyERZN11llama_vocab4impl4loadER18llama_model_loaderRK6LLM_KVE3$_0PiLi0EEEvT1_SC_SC_SC_SC_T0_', symObjAddr: 0x127C8, symBinAddr: 0xCADA0, symSize: 0x2E8 }
  - { offset: 0x50D332, size: 0x8, addend: 0x0, symName: __ZNK11llama_vocab4impl14token_to_pieceEiPciib, symObjAddr: 0xA710, symBinAddr: 0xC353C, symSize: 0x4A8 }
  - { offset: 0x50DDBB, size: 0x8, addend: 0x0, symName: __ZNK11llama_vocab13byte_to_tokenEh, symObjAddr: 0x4B80, symBinAddr: 0xBDAF4, symSize: 0x2A0 }
  - { offset: 0x511605, size: 0x8, addend: 0x0, symName: __ZN11llama_vocab4impl4loadER18llama_model_loaderRK6LLM_KV, symObjAddr: 0x0, symBinAddr: 0xB9064, symSize: 0x48F8 }
  - { offset: 0x51FF0A, size: 0x8, addend: 0x0, symName: __ZNSt3__16vectorIcNS_9allocatorIcEEE18__assign_with_sizeB8ne180100IPKcS6_EEvT_T0_l, symObjAddr: 0x11058, symBinAddr: 0xC9684, symSize: 0x148 }
  - { offset: 0x520900, size: 0x8, addend: 0x0, symName: __ZNSt3__16vectorIN11llama_vocab10token_dataENS_9allocatorIS2_EEE8__appendEm, symObjAddr: 0x10344, symBinAddr: 0xC8DBC, symSize: 0x18C }
  - { offset: 0x5210AA, size: 0x8, addend: 0x0, symName: __ZNKSt3__16vectorIN11llama_vocab10token_dataENS_9allocatorIS2_EEE20__throw_length_errorB8ne180100Ev, symObjAddr: 0x104D0, symBinAddr: 0xC8F48, symSize: 0x14 }
  - { offset: 0x5210F2, size: 0x8, addend: 0x0, symName: __ZNSt3__112__hash_tableINS_17__hash_value_typeINS_12basic_stringIcNS_11char_traitsIcEENS_9allocatorIcEEEEiEENS_22__unordered_map_hasherIS7_S8_NS_4hashIS7_EENS_8equal_toIS7_EELb1EEENS_21__unordered_map_equalIS7_S8_SD_SB_Lb1EEENS5_IS8_EEE25__emplace_unique_key_argsIS7_JRKNS_21piecewise_construct_tENS_5tupleIJRKS7_EEENSN_IJEEEEEENS_4pairINS_15__hash_iteratorIPNS_11__hash_nodeIS8_PvEEEEbEERKT_DpOT0_, symObjAddr: 0x111B4, symBinAddr: 0xC97CC, symSize: 0x470 }
  - { offset: 0x521AB3, size: 0x8, addend: 0x0, symName: __ZN11llama_vocab4impl14init_tokenizerE16llama_vocab_type, symObjAddr: 0x49E8, symBinAddr: 0xBD95C, symSize: 0x198 }
  - { offset: 0x521CD3, size: 0x8, addend: 0x0, symName: __ZNK11llama_vocab4impl8tokenizeERKNSt3__112basic_stringIcNS1_11char_traitsIcEENS1_9allocatorIcEEEEbb, symObjAddr: 0x4E30, symBinAddr: 0xBDD94, symSize: 0x19CC }
  - { offset: 0x5288ED, size: 0x8, addend: 0x0, symName: __ZNSt3__16vectorINS_12basic_stringIcNS_11char_traitsIcEENS_9allocatorIcEEEENS4_IS6_EEEC2B8ne180100ESt16initializer_listIS6_E, symObjAddr: 0x13044, symBinAddr: 0xCB61C, symSize: 0x128 }
  - { offset: 0x528E36, size: 0x8, addend: 0x0, symName: __ZNKSt3__112__hash_tableINS_17__hash_value_typeINS_12basic_stringIcNS_11char_traitsIcEENS_9allocatorIcEEEEiEENS_22__unordered_map_hasherIS7_S8_NS_4hashIS7_EENS_8equal_toIS7_EELb1EEENS_21__unordered_map_equalIS7_S8_SD_SB_Lb1EEENS5_IS8_EEE4findIS7_EENS_21__hash_const_iteratorIPNS_11__hash_nodeIS8_PvEEEERKT_, symObjAddr: 0x1316C, symBinAddr: 0xCB744, symSize: 0x22C }
  - { offset: 0x529102, size: 0x8, addend: 0x0, symName: __ZNSt3__112__hash_tableINS_17__hash_value_typeINS_12basic_stringIcNS_11char_traitsIcEENS_9allocatorIcEEEEiEENS_22__unordered_map_hasherIS7_S8_NS_4hashIS7_EENS_8equal_toIS7_EELb1EEENS_21__unordered_map_equalIS7_S8_SD_SB_Lb1EEENS5_IS8_EEE4findIS7_EENS_15__hash_iteratorIPNS_11__hash_nodeIS8_PvEEEERKT_, symObjAddr: 0x14EE0, symBinAddr: 0xCD4B8, symSize: 0x22C }
  - { offset: 0x5295F4, size: 0x8, addend: 0x0, symName: __ZNSt3__112__hash_tableINS_17__hash_value_typeINS_4pairINS_12basic_stringIcNS_11char_traitsIcEENS_9allocatorIcEEEES8_EEiEENS_22__unordered_map_hasherIS9_SA_N11llama_vocab4impl9pair_hashENS_8equal_toIS9_EELb1EEENS_21__unordered_map_equalIS9_SA_SG_SE_Lb1EEENS6_ISA_EEE25__emplace_unique_key_argsIS9_JS9_RiEEENS2_INS_15__hash_iteratorIPNS_11__hash_nodeISA_PvEEEEbEERKT_DpOT0_, symObjAddr: 0x104E4, symBinAddr: 0xC8F5C, symSize: 0x3CC }
  - { offset: 0x529F96, size: 0x8, addend: 0x0, symName: __ZNSt3__16vectorI10llm_symbolNS_9allocatorIS1_EEE18__assign_with_sizeB8ne180100IPS1_S6_EEvT_T0_l, symObjAddr: 0xF4C4, symBinAddr: 0xC8078, symSize: 0x178 }
  - { offset: 0x529FB9, size: 0x8, addend: 0x0, symName: __ZNSt3__16__treeINS_12__value_typeINS_12basic_stringIcNS_11char_traitsIcEENS_9allocatorIcEEEENS_4pairIiiEEEENS_19__map_value_compareIS7_SA_NS_4lessIS7_EELb1EEENS5_ISA_EEE7destroyEPNS_11__tree_nodeISA_PvEE, symObjAddr: 0xEC70, symBinAddr: 0xC7838, symSize: 0x60 }
  - { offset: 0x529FC4, size: 0x8, addend: 0x0, symName: __ZNKSt3__16vectorIN11llama_vocab10token_dataENS_9allocatorIS2_EEE20__throw_out_of_rangeB8ne180100Ev, symObjAddr: 0x13030, symBinAddr: 0xCB608, symSize: 0x14 }
  - { offset: 0x529FEE, size: 0x8, addend: 0x0, symName: __ZNSt3__16vectorINS_12basic_stringIcNS_11char_traitsIcEENS_9allocatorIcEEEENS4_IS6_EEEC2B8ne180100ESt16initializer_listIS6_E, symObjAddr: 0x13044, symBinAddr: 0xCB61C, symSize: 0x128 }
  - { offset: 0x52A41D, size: 0x8, addend: 0x0, symName: __ZN17llm_tokenizer_bpeC2ERK11llama_vocab, symObjAddr: 0x133A0, symBinAddr: 0xCB978, symSize: 0xDA0 }
  - { offset: 0x531A9A, size: 0x8, addend: 0x0, symName: __ZN17llm_tokenizer_ugmC2ERK11llama_vocabRKNSt3__16vectorIcNS3_9allocatorIcEEEE, symObjAddr: 0x1454C, symBinAddr: 0xCCB24, symSize: 0x2D4 }
  - { offset: 0x5324F8, size: 0x8, addend: 0x0, symName: __ZN18llm_tokenizer_rwkvC2ERK11llama_vocab, symObjAddr: 0x14B14, symBinAddr: 0xCD0EC, symSize: 0x174 }
  - { offset: 0x533F2D, size: 0x8, addend: 0x0, symName: __ZNK11llama_vocab4impl22tokenizer_st_partitionERNSt3__112forward_listI23fragment_buffer_variantNS1_9allocatorIS3_EEEEb, symObjAddr: 0x701C, symBinAddr: 0xBFE48, symSize: 0x5FC }
  - { offset: 0x5358C9, size: 0x8, addend: 0x0, symName: __ZNK25llm_tokenizer_bpe_session10append_bosERNSt3__16vectorIiNS0_9allocatorIiEEEE, symObjAddr: 0x7A4C, symBinAddr: 0xC0878, symSize: 0x1C4 }
  - { offset: 0x535D26, size: 0x8, addend: 0x0, symName: __ZN25llm_tokenizer_bpe_session8tokenizeERKNSt3__112basic_stringIcNS0_11char_traitsIcEENS0_9allocatorIcEEEERNS0_6vectorIiNS4_IiEEEE, symObjAddr: 0x7C10, symBinAddr: 0xC0A3C, symSize: 0x14E4 }
  - { offset: 0x535D31, size: 0x8, addend: 0x0, symName: __ZN25llm_tokenizer_bpe_session6appendEiRNSt3__16vectorIiNS0_9allocatorIiEEEE, symObjAddr: 0x90F4, symBinAddr: 0xC1F20, symSize: 0x178 }
  - { offset: 0x53612F, size: 0x8, addend: 0x0, symName: __ZNK25llm_tokenizer_bpe_session10append_eosERNSt3__16vectorIiNS0_9allocatorIiEEEE, symObjAddr: 0x926C, symBinAddr: 0xC2098, symSize: 0x1C4 }
  - { offset: 0x53613A, size: 0x8, addend: 0x0, symName: __ZN25llm_tokenizer_bpe_session8tokenizeERKNSt3__112basic_stringIcNS0_11char_traitsIcEENS0_9allocatorIcEEEERNS0_6vectorIiNS4_IiEEEE, symObjAddr: 0x7C10, symBinAddr: 0xC0A3C, symSize: 0x14E4 }
  - { offset: 0x53B4E7, size: 0x8, addend: 0x0, symName: __ZN26llm_tokenizer_rwkv_session8tokenizeERKNSt3__112basic_stringIcNS0_11char_traitsIcEENS0_9allocatorIcEEEERNS0_6vectorIiNS4_IiEEEE, symObjAddr: 0xA294, symBinAddr: 0xC30C0, symSize: 0x420 }
  - { offset: 0x53C0BD, size: 0x8, addend: 0x0, symName: __ZNSt3__112forward_listI23fragment_buffer_variantNS_9allocatorIS1_EEED1Ev, symObjAddr: 0xA6B4, symBinAddr: 0xC34E0, symSize: 0x5C }
  - { offset: 0x53C0C8, size: 0x8, addend: 0x0, symName: __ZNK25llm_tokenizer_bpe_session10append_eosERNSt3__16vectorIiNS0_9allocatorIiEEEE, symObjAddr: 0x926C, symBinAddr: 0xC2098, symSize: 0x1C4 }
  - { offset: 0x53C525, size: 0x8, addend: 0x0, symName: __ZN25llm_tokenizer_bpe_sessionD1Ev, symObjAddr: 0x9430, symBinAddr: 0xC225C, symSize: 0x90 }
  - { offset: 0x53C530, size: 0x8, addend: 0x0, symName: __ZN25llm_tokenizer_wpm_session8tokenizeERKNSt3__112basic_stringIcNS0_11char_traitsIcEENS0_9allocatorIcEEEERNS0_6vectorIiNS4_IiEEEE, symObjAddr: 0x94C0, symBinAddr: 0xC22EC, symSize: 0x7D0 }
  - { offset: 0x53DF82, size: 0x8, addend: 0x0, symName: __ZN25llm_tokenizer_spm_session8tokenizeERKNSt3__112basic_stringIcNS0_11char_traitsIcEENS0_9allocatorIcEEEERNS0_6vectorIiNS4_IiEEEE, symObjAddr: 0x7684, symBinAddr: 0xC04B0, symSize: 0x37C }
  - { offset: 0x53E7BF, size: 0x8, addend: 0x0, symName: __ZN25llm_tokenizer_spm_sessionD1Ev, symObjAddr: 0x7A00, symBinAddr: 0xC082C, symSize: 0x4C }
  - { offset: 0x53E7CA, size: 0x8, addend: 0x0, symName: __ZNSt3__16__treeINS_12__value_typeINS_12basic_stringIcNS_11char_traitsIcEENS_9allocatorIcEEEENS_4pairIiiEEEENS_19__map_value_compareIS7_SA_NS_4lessIS7_EELb1EEENS5_ISA_EEE7destroyEPNS_11__tree_nodeISA_PvEE, symObjAddr: 0xEC70, symBinAddr: 0xC7838, symSize: 0x60 }
  - { offset: 0x53EA49, size: 0x8, addend: 0x0, symName: __ZN25llm_tokenizer_ugm_session8tokenizeERKNSt3__112basic_stringIcNS0_11char_traitsIcEENS0_9allocatorIcEEEERNS0_6vectorIiNS4_IiEEEE, symObjAddr: 0x9C90, symBinAddr: 0xC2ABC, symSize: 0x604 }
  - { offset: 0x53FC73, size: 0x8, addend: 0x0, symName: __ZN25llm_tokenizer_spm_sessionD1Ev, symObjAddr: 0x7A00, symBinAddr: 0xC082C, symSize: 0x4C }
  - { offset: 0x53FFDF, size: 0x8, addend: 0x0, symName: __ZN25llm_tokenizer_bpe_sessionD1Ev, symObjAddr: 0x9430, symBinAddr: 0xC225C, symSize: 0x90 }
  - { offset: 0x54058B, size: 0x8, addend: 0x0, symName: __ZNSt3__112forward_listI23fragment_buffer_variantNS_9allocatorIS1_EEED1Ev, symObjAddr: 0xA6B4, symBinAddr: 0xC34E0, symSize: 0x5C }
  - { offset: 0x540A89, size: 0x8, addend: 0x0, symName: __ZNSt3__16vectorINS_12basic_stringIcNS_11char_traitsIcEENS_9allocatorIcEEEENS4_IS6_EEE24__emplace_back_slow_pathIJEEEPS6_DpOT_, symObjAddr: 0xFA04, symBinAddr: 0xC85A4, symSize: 0x158 }
  - { offset: 0x540A94, size: 0x8, addend: 0x0, symName: __ZNSt3__16vectorINS_12basic_stringIcNS_11char_traitsIcEENS_9allocatorIcEEEENS4_IS6_EEEC1Em.cold.1, symObjAddr: 0x15284, symBinAddr: 0x1C9458, symSize: 0x60 }
  - { offset: 0x540CED, size: 0x8, addend: 0x0, symName: __ZNK11llama_vocab4impl24token_to_piece_for_cacheEib, symObjAddr: 0x68C4, symBinAddr: 0xBF760, symSize: 0x140 }
  - { offset: 0x5410EF, size: 0x8, addend: 0x0, symName: __ZNK11llama_vocab4impl8get_typeEv, symObjAddr: 0x6A74, symBinAddr: 0xBF8A0, symSize: 0x8 }
  - { offset: 0x541111, size: 0x8, addend: 0x0, symName: __ZNK11llama_vocab4impl9type_nameEv, symObjAddr: 0x6A7C, symBinAddr: 0xBF8A8, symSize: 0xEC }
  - { offset: 0x541D90, size: 0x8, addend: 0x0, symName: __ZNK11llama_vocab4impl9is_normalEi, symObjAddr: 0x6B68, symBinAddr: 0xBF994, symSize: 0x58 }
  - { offset: 0x541DE4, size: 0x8, addend: 0x0, symName: __ZNK11llama_vocab4impl10is_unknownEi, symObjAddr: 0x6BC0, symBinAddr: 0xBF9EC, symSize: 0x58 }
  - { offset: 0x541DF7, size: 0x8, addend: 0x0, symName: __ZNK11llama_vocab4impl10is_unknownEi, symObjAddr: 0x6BC0, symBinAddr: 0xBF9EC, symSize: 0x58 }
  - { offset: 0x541E4B, size: 0x8, addend: 0x0, symName: __ZNK11llama_vocab4impl10is_controlEi, symObjAddr: 0x6C18, symBinAddr: 0xBFA44, symSize: 0x58 }
  - { offset: 0x541E5E, size: 0x8, addend: 0x0, symName: __ZNK11llama_vocab4impl10is_controlEi, symObjAddr: 0x6C18, symBinAddr: 0xBFA44, symSize: 0x58 }
  - { offset: 0x541EB2, size: 0x8, addend: 0x0, symName: __ZNK11llama_vocab4impl7is_byteEi, symObjAddr: 0x6C70, symBinAddr: 0xBFA9C, symSize: 0x58 }
  - { offset: 0x541EC5, size: 0x8, addend: 0x0, symName: __ZNK11llama_vocab4impl7is_byteEi, symObjAddr: 0x6C70, symBinAddr: 0xBFA9C, symSize: 0x58 }
  - { offset: 0x541F19, size: 0x8, addend: 0x0, symName: __ZNK11llama_vocab4impl15is_user_definedEi, symObjAddr: 0x6CC8, symBinAddr: 0xBFAF4, symSize: 0x58 }
  - { offset: 0x541F2C, size: 0x8, addend: 0x0, symName: __ZNK11llama_vocab4impl15is_user_definedEi, symObjAddr: 0x6CC8, symBinAddr: 0xBFAF4, symSize: 0x58 }
  - { offset: 0x541F80, size: 0x8, addend: 0x0, symName: __ZNK11llama_vocab4impl9is_unusedEi, symObjAddr: 0x6D20, symBinAddr: 0xBFB4C, symSize: 0x58 }
  - { offset: 0x541F93, size: 0x8, addend: 0x0, symName: __ZNK11llama_vocab4impl9is_unusedEi, symObjAddr: 0x6D20, symBinAddr: 0xBFB4C, symSize: 0x58 }
  - { offset: 0x541FE7, size: 0x8, addend: 0x0, symName: __ZNK11llama_vocab4impl6is_eogEi, symObjAddr: 0x6D78, symBinAddr: 0xBFBA4, symSize: 0x40 }
  - { offset: 0x541FFA, size: 0x8, addend: 0x0, symName: __ZNK11llama_vocab4impl6is_eogEi, symObjAddr: 0x6D78, symBinAddr: 0xBFBA4, symSize: 0x40 }
  - { offset: 0x5420C1, size: 0x8, addend: 0x0, symName: __ZNK11llama_vocab4impl13token_to_byteEi, symObjAddr: 0x6DB8, symBinAddr: 0xBFBE4, symSize: 0x200 }
  - { offset: 0x5426F5, size: 0x8, addend: 0x0, symName: __ZNK11llama_vocab4impl14token_get_attrEi, symObjAddr: 0x6FB8, symBinAddr: 0xBFDE4, symSize: 0x64 }
  - { offset: 0x542729, size: 0x8, addend: 0x0, symName: __ZNK11llama_vocab4impl14token_get_attrEi, symObjAddr: 0x6FB8, symBinAddr: 0xBFDE4, symSize: 0x64 }
  - { offset: 0x5427A3, size: 0x8, addend: 0x0, symName: __ZNK11llama_vocab4impl22tokenizer_st_partitionERNSt3__112forward_listI23fragment_buffer_variantNS1_9allocatorIS3_EEEEb, symObjAddr: 0x701C, symBinAddr: 0xBFE48, symSize: 0x5FC }
  - { offset: 0x542DF1, size: 0x8, addend: 0x0, symName: __ZNK11llama_vocab14get_token_dataEi, symObjAddr: 0x7618, symBinAddr: 0xC0444, symSize: 0x64 }
  - { offset: 0x542E88, size: 0x8, addend: 0x0, symName: __ZNK11llama_vocab14token_to_pieceEiPciib, symObjAddr: 0x767C, symBinAddr: 0xC04A8, symSize: 0x8 }
  - { offset: 0x542E93, size: 0x8, addend: 0x0, symName: __ZNK11llama_vocab14token_to_pieceEiPciib, symObjAddr: 0x767C, symBinAddr: 0xC04A8, symSize: 0x8 }
  - { offset: 0x542EDF, size: 0x8, addend: 0x0, symName: __ZNK11llama_vocab14token_to_pieceEiPciib, symObjAddr: 0x767C, symBinAddr: 0xC04A8, symSize: 0x8 }
  - { offset: 0x543387, size: 0x8, addend: 0x0, symName: __ZN25llm_tokenizer_spm_session14try_add_bigramEii, symObjAddr: 0xDB64, symBinAddr: 0xC6990, symSize: 0x230 }
  - { offset: 0x543BF0, size: 0x8, addend: 0x0, symName: __ZN25llm_tokenizer_spm_session9resegmentER10llm_symbolRNSt3__16vectorIiNS2_9allocatorIiEEEE, symObjAddr: 0xDD94, symBinAddr: 0xC6BC0, symSize: 0x634 }
  - { offset: 0x5451BF, size: 0x8, addend: 0x0, symName: __ZNKSt3__16vectorI10llm_symbolNS_9allocatorIS1_EEE20__throw_length_errorB8ne180100Ev, symObjAddr: 0xE3C8, symBinAddr: 0xC71F4, symSize: 0x14 }
  - { offset: 0x545A92, size: 0x8, addend: 0x0, symName: __ZN25llm_tokenizer_bpe_session14add_new_bigramEii, symObjAddr: 0xECD0, symBinAddr: 0xC7898, symSize: 0x3D8 }
  - { offset: 0x547350, size: 0x8, addend: 0x0, symName: __ZNSt3__16vectorI10llm_symbolNS_9allocatorIS1_EEE18__assign_with_sizeB8ne180100IPS1_S6_EEvT_T0_l, symObjAddr: 0xF4C4, symBinAddr: 0xC8078, symSize: 0x178 }
  - { offset: 0x547D59, size: 0x8, addend: 0x0, symName: __ZN25llm_tokenizer_wpm_session10preprocessERKNSt3__112basic_stringIcNS0_11char_traitsIcEENS0_9allocatorIcEEEE, symObjAddr: 0xF63C, symBinAddr: 0xC81F0, symSize: 0x320 }
  - { offset: 0x547F25, size: 0x8, addend: 0x0, symName: __ZN25llm_tokenizer_wpm_session10preprocessERKNSt3__112basic_stringIcNS0_11char_traitsIcEENS0_9allocatorIcEEEE, symObjAddr: 0xF63C, symBinAddr: 0xC81F0, symSize: 0x320 }
  - { offset: 0x54968E, size: 0x8, addend: 0x0, symName: __ZN25llm_tokenizer_ugm_session9normalizeERKNSt3__112basic_stringIcNS0_11char_traitsIcEENS0_9allocatorIcEEEEPS6_, symObjAddr: 0xFB5C, symBinAddr: 0xC86FC, symSize: 0x3B0 }
  - { offset: 0x549FFE, size: 0x8, addend: 0x0, symName: __ZNKSt3__16vectorIN25llm_tokenizer_ugm_session17best_tokenizationENS_9allocatorIS2_EEE20__throw_length_errorB8ne180100Ev, symObjAddr: 0x10208, symBinAddr: 0xC8DA8, symSize: 0x14 }
  - { offset: 0x54A24A, size: 0x8, addend: 0x0, symName: __ZL25llama_unescape_rwkv_tokenRKNSt3__112basic_stringIcNS_11char_traitsIcEENS_9allocatorIcEEEE, symObjAddr: 0xAEE8, symBinAddr: 0xC3D14, symSize: 0xB4C }
  - { offset: 0x54B939, size: 0x8, addend: 0x0, symName: __ZL17llama_decode_textRKNSt3__112basic_stringIcNS_11char_traitsIcEENS_9allocatorIcEEEE, symObjAddr: 0xAC7C, symBinAddr: 0xC3AA8, symSize: 0x26C }
  - { offset: 0x54C690, size: 0x8, addend: 0x0, symName: __ZL25llama_unescape_whitespaceRNSt3__112basic_stringIcNS_11char_traitsIcEENS_9allocatorIcEEEE, symObjAddr: 0xABB8, symBinAddr: 0xC39E4, symSize: 0xC4 }
  - { offset: 0x54CEA3, size: 0x8, addend: 0x0, symName: __ZNKSt3__16vectorINS_12basic_stringIcNS_11char_traitsIcEENS_9allocatorIcEEEENS4_IS6_EEE20__throw_out_of_rangeB8ne180100Ev, symObjAddr: 0x14CF8, symBinAddr: 0xCD2D0, symSize: 0x14 }
  - { offset: 0x54CECD, size: 0x8, addend: 0x0, symName: __ZN11llama_vocab4implD2Ev, symObjAddr: 0x14D0C, symBinAddr: 0xCD2E4, symSize: 0x1D4 }
  - { offset: 0x54D551, size: 0x8, addend: 0x0, symName: __ZNK11llama_vocab4impl14token_to_pieceEi, symObjAddr: 0xBA34, symBinAddr: 0xC4860, symSize: 0x40 }
  - { offset: 0x54D5B6, size: 0x8, addend: 0x0, symName: __ZNK11llama_vocab4impl10detokenizeEPKiiPcibb, symObjAddr: 0xBA74, symBinAddr: 0xC48A0, symSize: 0x3E0 }
  - { offset: 0x54D5C1, size: 0x8, addend: 0x0, symName: __ZNK11llama_vocab4impl10detokenizeEPKiiPcibb, symObjAddr: 0xBA74, symBinAddr: 0xC48A0, symSize: 0x3E0 }
  - { offset: 0x54D835, size: 0x8, addend: 0x0, symName: __ZNK11llama_vocab4impl10print_infoEv, symObjAddr: 0xBE54, symBinAddr: 0xC4C80, symSize: 0x58C }
  - { offset: 0x54D922, size: 0x8, addend: 0x0, symName: __ZNK11llama_vocab4impl10print_infoEv, symObjAddr: 0xBE54, symBinAddr: 0xC4C80, symSize: 0x58C }
  - { offset: 0x54F7AD, size: 0x8, addend: 0x0, symName: __ZNK11llama_vocab8n_tokensEv, symObjAddr: 0xC3E0, symBinAddr: 0xC520C, symSize: 0x14 }
  - { offset: 0x54F7D1, size: 0x8, addend: 0x0, symName: __ZNK11llama_vocab8n_tokensEv, symObjAddr: 0xC3E0, symBinAddr: 0xC520C, symSize: 0x14 }
  - { offset: 0x54FD64, size: 0x8, addend: 0x0, symName: __ZN11llama_vocabC2Ev, symObjAddr: 0xC3F4, symBinAddr: 0xC5220, symSize: 0xC0 }
  - { offset: 0x5502EA, size: 0x8, addend: 0x0, symName: __ZN11llama_vocabC1Ev, symObjAddr: 0xC4B4, symBinAddr: 0xC52E0, symSize: 0xC0 }
  - { offset: 0x550919, size: 0x8, addend: 0x0, symName: __ZN11llama_vocabD2Ev, symObjAddr: 0xC574, symBinAddr: 0xC53A0, symSize: 0x34 }
  - { offset: 0x5509EE, size: 0x8, addend: 0x0, symName: __ZN11llama_vocab4implD2Ev, symObjAddr: 0x14D0C, symBinAddr: 0xCD2E4, symSize: 0x1D4 }
  - { offset: 0x551F0B, size: 0x8, addend: 0x0, symName: __ZN11llama_vocabD1Ev, symObjAddr: 0xC5A8, symBinAddr: 0xC53D4, symSize: 0x34 }
  - { offset: 0x552009, size: 0x8, addend: 0x0, symName: __ZN11llama_vocab4loadER18llama_model_loaderRK6LLM_KV, symObjAddr: 0xC5DC, symBinAddr: 0xC5408, symSize: 0x8 }
  - { offset: 0x552053, size: 0x8, addend: 0x0, symName: __ZN11llama_vocab4loadER18llama_model_loaderRK6LLM_KV, symObjAddr: 0xC5DC, symBinAddr: 0xC5408, symSize: 0x8 }
  - { offset: 0x55208B, size: 0x8, addend: 0x0, symName: __ZNK11llama_vocab19get_tokenizer_modelEv, symObjAddr: 0xC5E4, symBinAddr: 0xC5410, symSize: 0x2C }
  - { offset: 0x5520B7, size: 0x8, addend: 0x0, symName: __ZNK11llama_vocab19get_tokenizer_modelEv, symObjAddr: 0xC5E4, symBinAddr: 0xC5410, symSize: 0x2C }
  - { offset: 0x552138, size: 0x8, addend: 0x0, symName: __ZNK11llama_vocab17get_tokenizer_preEv, symObjAddr: 0xC610, symBinAddr: 0xC543C, symSize: 0x2C }
  - { offset: 0x552164, size: 0x8, addend: 0x0, symName: __ZNK11llama_vocab17get_tokenizer_preEv, symObjAddr: 0xC610, symBinAddr: 0xC543C, symSize: 0x2C }
  - { offset: 0x5521E5, size: 0x8, addend: 0x0, symName: __ZNK11llama_vocab8get_typeEv, symObjAddr: 0xC63C, symBinAddr: 0xC5468, symSize: 0xC }
  - { offset: 0x552209, size: 0x8, addend: 0x0, symName: __ZNK11llama_vocab8get_typeEv, symObjAddr: 0xC63C, symBinAddr: 0xC5468, symSize: 0xC }
  - { offset: 0x552224, size: 0x8, addend: 0x0, symName: __ZNK11llama_vocab12get_pre_typeEv, symObjAddr: 0xC648, symBinAddr: 0xC5474, symSize: 0xC }
  - { offset: 0x552248, size: 0x8, addend: 0x0, symName: __ZNK11llama_vocab12get_pre_typeEv, symObjAddr: 0xC648, symBinAddr: 0xC5474, symSize: 0xC }
  - { offset: 0x552263, size: 0x8, addend: 0x0, symName: __ZNK11llama_vocab13n_token_typesEv, symObjAddr: 0xC654, symBinAddr: 0xC5480, symSize: 0xC }
  - { offset: 0x55228F, size: 0x8, addend: 0x0, symName: __ZNK11llama_vocab13n_token_typesEv, symObjAddr: 0xC654, symBinAddr: 0xC5480, symSize: 0xC }
  - { offset: 0x5522AA, size: 0x8, addend: 0x0, symName: __ZNK11llama_vocab9type_nameEv, symObjAddr: 0xC660, symBinAddr: 0xC548C, symSize: 0xF0 }
  - { offset: 0x5522D4, size: 0x8, addend: 0x0, symName: __ZNK11llama_vocab9type_nameEv, symObjAddr: 0xC660, symBinAddr: 0xC548C, symSize: 0xF0 }
  - { offset: 0x552F65, size: 0x8, addend: 0x0, symName: __ZNK11llama_vocab9is_normalEi, symObjAddr: 0xC750, symBinAddr: 0xC557C, symSize: 0x5C }
  - { offset: 0x552FED, size: 0x8, addend: 0x0, symName: __ZNK11llama_vocab10is_unknownEi, symObjAddr: 0xC7AC, symBinAddr: 0xC55D8, symSize: 0x5C }
  - { offset: 0x553024, size: 0x8, addend: 0x0, symName: __ZNK11llama_vocab10is_unknownEi, symObjAddr: 0xC7AC, symBinAddr: 0xC55D8, symSize: 0x5C }
  - { offset: 0x5530BC, size: 0x8, addend: 0x0, symName: __ZNK11llama_vocab10is_controlEi, symObjAddr: 0xC808, symBinAddr: 0xC5634, symSize: 0x5C }
  - { offset: 0x5530F3, size: 0x8, addend: 0x0, symName: __ZNK11llama_vocab10is_controlEi, symObjAddr: 0xC808, symBinAddr: 0xC5634, symSize: 0x5C }
  - { offset: 0x55317B, size: 0x8, addend: 0x0, symName: __ZNK11llama_vocab7is_byteEi, symObjAddr: 0xC864, symBinAddr: 0xC5690, symSize: 0x5C }
  - { offset: 0x55318E, size: 0x8, addend: 0x0, symName: __ZNK11llama_vocab7is_byteEi, symObjAddr: 0xC864, symBinAddr: 0xC5690, symSize: 0x5C }
  - { offset: 0x553226, size: 0x8, addend: 0x0, symName: __ZNK11llama_vocab15is_user_definedEi, symObjAddr: 0xC8C0, symBinAddr: 0xC56EC, symSize: 0x5C }
  - { offset: 0x553239, size: 0x8, addend: 0x0, symName: __ZNK11llama_vocab15is_user_definedEi, symObjAddr: 0xC8C0, symBinAddr: 0xC56EC, symSize: 0x5C }
  - { offset: 0x5532C1, size: 0x8, addend: 0x0, symName: __ZNK11llama_vocab9is_unusedEi, symObjAddr: 0xC91C, symBinAddr: 0xC5748, symSize: 0x5C }
  - { offset: 0x5532F8, size: 0x8, addend: 0x0, symName: __ZNK11llama_vocab9is_unusedEi, symObjAddr: 0xC91C, symBinAddr: 0xC5748, symSize: 0x5C }
  - { offset: 0x553390, size: 0x8, addend: 0x0, symName: __ZNK11llama_vocab6is_eogEi, symObjAddr: 0xC978, symBinAddr: 0xC57A4, symSize: 0x44 }
  - { offset: 0x5533C7, size: 0x8, addend: 0x0, symName: __ZNK11llama_vocab6is_eogEi, symObjAddr: 0xC978, symBinAddr: 0xC57A4, symSize: 0x44 }
  - { offset: 0x553471, size: 0x8, addend: 0x0, symName: __ZNK11llama_vocab13token_to_byteEi, symObjAddr: 0xC9BC, symBinAddr: 0xC57E8, symSize: 0x8 }
  - { offset: 0x5534AC, size: 0x8, addend: 0x0, symName: __ZNK11llama_vocab13token_to_byteEi, symObjAddr: 0xC9BC, symBinAddr: 0xC57E8, symSize: 0x8 }
  - { offset: 0x5534DD, size: 0x8, addend: 0x0, symName: __ZNK11llama_vocab13text_to_tokenERKNSt3__112basic_stringIcNS0_11char_traitsIcEENS0_9allocatorIcEEEE, symObjAddr: 0xC9C4, symBinAddr: 0xC57F0, symSize: 0x68 }
  - { offset: 0x553562, size: 0x8, addend: 0x0, symName: __ZNK11llama_vocab14token_get_textEi, symObjAddr: 0xCA2C, symBinAddr: 0xC5858, symSize: 0x7C }
  - { offset: 0x553575, size: 0x8, addend: 0x0, symName: __ZNK11llama_vocab14token_get_textEi, symObjAddr: 0xCA2C, symBinAddr: 0xC5858, symSize: 0x7C }
  - { offset: 0x55368B, size: 0x8, addend: 0x0, symName: __ZNK11llama_vocab15token_get_scoreEi, symObjAddr: 0xCAA8, symBinAddr: 0xC58D4, symSize: 0x68 }
  - { offset: 0x553696, size: 0x8, addend: 0x0, symName: __ZNK11llama_vocab15token_get_scoreEi, symObjAddr: 0xCAA8, symBinAddr: 0xC58D4, symSize: 0x68 }
  - { offset: 0x55372D, size: 0x8, addend: 0x0, symName: __ZNK11llama_vocab14token_get_attrEi, symObjAddr: 0xCB10, symBinAddr: 0xC593C, symSize: 0x68 }
  - { offset: 0x553738, size: 0x8, addend: 0x0, symName: __ZNK11llama_vocab14token_get_attrEi, symObjAddr: 0xCB10, symBinAddr: 0xC593C, symSize: 0x68 }
  - { offset: 0x5537E6, size: 0x8, addend: 0x0, symName: __ZNK11llama_vocab9token_bosEv, symObjAddr: 0xCB78, symBinAddr: 0xC59A4, symSize: 0xC }
  - { offset: 0x5537F1, size: 0x8, addend: 0x0, symName: __ZNK11llama_vocab9token_bosEv, symObjAddr: 0xCB78, symBinAddr: 0xC59A4, symSize: 0xC }
  - { offset: 0x553815, size: 0x8, addend: 0x0, symName: __ZNK11llama_vocab9token_bosEv, symObjAddr: 0xCB78, symBinAddr: 0xC59A4, symSize: 0xC }
  - { offset: 0x553830, size: 0x8, addend: 0x0, symName: __ZNK11llama_vocab9token_eosEv, symObjAddr: 0xCB84, symBinAddr: 0xC59B0, symSize: 0xC }
  - { offset: 0x553854, size: 0x8, addend: 0x0, symName: __ZNK11llama_vocab9token_eosEv, symObjAddr: 0xCB84, symBinAddr: 0xC59B0, symSize: 0xC }
  - { offset: 0x55386F, size: 0x8, addend: 0x0, symName: __ZNK11llama_vocab9token_eotEv, symObjAddr: 0xCB90, symBinAddr: 0xC59BC, symSize: 0xC }
  - { offset: 0x553893, size: 0x8, addend: 0x0, symName: __ZNK11llama_vocab9token_eotEv, symObjAddr: 0xCB90, symBinAddr: 0xC59BC, symSize: 0xC }
  - { offset: 0x5538AE, size: 0x8, addend: 0x0, symName: __ZNK11llama_vocab9token_eomEv, symObjAddr: 0xCB9C, symBinAddr: 0xC59C8, symSize: 0xC }
  - { offset: 0x5538DA, size: 0x8, addend: 0x0, symName: __ZNK11llama_vocab9token_eomEv, symObjAddr: 0xCB9C, symBinAddr: 0xC59C8, symSize: 0xC }
  - { offset: 0x5538F5, size: 0x8, addend: 0x0, symName: __ZNK11llama_vocab9token_unkEv, symObjAddr: 0xCBA8, symBinAddr: 0xC59D4, symSize: 0xC }
  - { offset: 0x553919, size: 0x8, addend: 0x0, symName: __ZNK11llama_vocab9token_unkEv, symObjAddr: 0xCBA8, symBinAddr: 0xC59D4, symSize: 0xC }
  - { offset: 0x553934, size: 0x8, addend: 0x0, symName: __ZNK11llama_vocab9token_sepEv, symObjAddr: 0xCBB4, symBinAddr: 0xC59E0, symSize: 0xC }
  - { offset: 0x553958, size: 0x8, addend: 0x0, symName: __ZNK11llama_vocab9token_sepEv, symObjAddr: 0xCBB4, symBinAddr: 0xC59E0, symSize: 0xC }
  - { offset: 0x553973, size: 0x8, addend: 0x0, symName: __ZNK11llama_vocab8token_nlEv, symObjAddr: 0xCBC0, symBinAddr: 0xC59EC, symSize: 0xC }
  - { offset: 0x553997, size: 0x8, addend: 0x0, symName: __ZNK11llama_vocab8token_nlEv, symObjAddr: 0xCBC0, symBinAddr: 0xC59EC, symSize: 0xC }
  - { offset: 0x5539B2, size: 0x8, addend: 0x0, symName: __ZNK11llama_vocab9token_padEv, symObjAddr: 0xCBCC, symBinAddr: 0xC59F8, symSize: 0xC }
  - { offset: 0x5539D6, size: 0x8, addend: 0x0, symName: __ZNK11llama_vocab9token_padEv, symObjAddr: 0xCBCC, symBinAddr: 0xC59F8, symSize: 0xC }
  - { offset: 0x5539F1, size: 0x8, addend: 0x0, symName: __ZNK11llama_vocab12token_prefixEv, symObjAddr: 0xCBD8, symBinAddr: 0xC5A04, symSize: 0xC }
  - { offset: 0x553A1D, size: 0x8, addend: 0x0, symName: __ZNK11llama_vocab12token_prefixEv, symObjAddr: 0xCBD8, symBinAddr: 0xC5A04, symSize: 0xC }
  - { offset: 0x553A38, size: 0x8, addend: 0x0, symName: __ZNK11llama_vocab12token_middleEv, symObjAddr: 0xCBE4, symBinAddr: 0xC5A10, symSize: 0xC }
  - { offset: 0x553A64, size: 0x8, addend: 0x0, symName: __ZNK11llama_vocab12token_middleEv, symObjAddr: 0xCBE4, symBinAddr: 0xC5A10, symSize: 0xC }
  - { offset: 0x553A7F, size: 0x8, addend: 0x0, symName: __ZNK11llama_vocab12token_suffixEv, symObjAddr: 0xCBF0, symBinAddr: 0xC5A1C, symSize: 0xC }
  - { offset: 0x553AAB, size: 0x8, addend: 0x0, symName: __ZNK11llama_vocab12token_suffixEv, symObjAddr: 0xCBF0, symBinAddr: 0xC5A1C, symSize: 0xC }
  - { offset: 0x553AC6, size: 0x8, addend: 0x0, symName: __ZNK11llama_vocab13token_fim_preEv, symObjAddr: 0xCBFC, symBinAddr: 0xC5A28, symSize: 0xC }
  - { offset: 0x553AEA, size: 0x8, addend: 0x0, symName: __ZNK11llama_vocab13token_fim_preEv, symObjAddr: 0xCBFC, symBinAddr: 0xC5A28, symSize: 0xC }
  - { offset: 0x553B05, size: 0x8, addend: 0x0, symName: __ZNK11llama_vocab13token_fim_sufEv, symObjAddr: 0xCC08, symBinAddr: 0xC5A34, symSize: 0xC }
  - { offset: 0x553B29, size: 0x8, addend: 0x0, symName: __ZNK11llama_vocab13token_fim_sufEv, symObjAddr: 0xCC08, symBinAddr: 0xC5A34, symSize: 0xC }
  - { offset: 0x553B44, size: 0x8, addend: 0x0, symName: __ZNK11llama_vocab13token_fim_midEv, symObjAddr: 0xCC14, symBinAddr: 0xC5A40, symSize: 0xC }
  - { offset: 0x553B68, size: 0x8, addend: 0x0, symName: __ZNK11llama_vocab13token_fim_midEv, symObjAddr: 0xCC14, symBinAddr: 0xC5A40, symSize: 0xC }
  - { offset: 0x553B83, size: 0x8, addend: 0x0, symName: __ZNK11llama_vocab13token_fim_padEv, symObjAddr: 0xCC20, symBinAddr: 0xC5A4C, symSize: 0xC }
  - { offset: 0x553BA7, size: 0x8, addend: 0x0, symName: __ZNK11llama_vocab13token_fim_padEv, symObjAddr: 0xCC20, symBinAddr: 0xC5A4C, symSize: 0xC }
  - { offset: 0x553BC2, size: 0x8, addend: 0x0, symName: __ZNK11llama_vocab13token_fim_repEv, symObjAddr: 0xCC2C, symBinAddr: 0xC5A58, symSize: 0xC }
  - { offset: 0x553BE6, size: 0x8, addend: 0x0, symName: __ZNK11llama_vocab13token_fim_repEv, symObjAddr: 0xCC2C, symBinAddr: 0xC5A58, symSize: 0xC }
  - { offset: 0x553C01, size: 0x8, addend: 0x0, symName: __ZNK11llama_vocab13token_fim_sepEv, symObjAddr: 0xCC38, symBinAddr: 0xC5A64, symSize: 0xC }
  - { offset: 0x553C25, size: 0x8, addend: 0x0, symName: __ZNK11llama_vocab13token_fim_sepEv, symObjAddr: 0xCC38, symBinAddr: 0xC5A64, symSize: 0xC }
  - { offset: 0x553C40, size: 0x8, addend: 0x0, symName: __ZNK11llama_vocab20get_add_space_prefixEv, symObjAddr: 0xCC44, symBinAddr: 0xC5A70, symSize: 0xC }
  - { offset: 0x553C64, size: 0x8, addend: 0x0, symName: __ZNK11llama_vocab20get_add_space_prefixEv, symObjAddr: 0xCC44, symBinAddr: 0xC5A70, symSize: 0xC }
  - { offset: 0x553C7F, size: 0x8, addend: 0x0, symName: __ZNK11llama_vocab11get_add_bosEv, symObjAddr: 0xCC50, symBinAddr: 0xC5A7C, symSize: 0xC }
  - { offset: 0x553CA3, size: 0x8, addend: 0x0, symName: __ZNK11llama_vocab11get_add_bosEv, symObjAddr: 0xCC50, symBinAddr: 0xC5A7C, symSize: 0xC }
  - { offset: 0x553CBE, size: 0x8, addend: 0x0, symName: __ZNK11llama_vocab11get_add_eosEv, symObjAddr: 0xCC5C, symBinAddr: 0xC5A88, symSize: 0xC }
  - { offset: 0x553CE2, size: 0x8, addend: 0x0, symName: __ZNK11llama_vocab11get_add_eosEv, symObjAddr: 0xCC5C, symBinAddr: 0xC5A88, symSize: 0xC }
  - { offset: 0x553CFD, size: 0x8, addend: 0x0, symName: __ZNK11llama_vocab17get_ignore_mergesEv, symObjAddr: 0xCC68, symBinAddr: 0xC5A94, symSize: 0xC }
  - { offset: 0x553D21, size: 0x8, addend: 0x0, symName: __ZNK11llama_vocab17get_ignore_mergesEv, symObjAddr: 0xCC68, symBinAddr: 0xC5A94, symSize: 0xC }
  - { offset: 0x553D3C, size: 0x8, addend: 0x0, symName: __ZNK11llama_vocab16get_clean_spacesEv, symObjAddr: 0xCC74, symBinAddr: 0xC5AA0, symSize: 0xC }
  - { offset: 0x553D68, size: 0x8, addend: 0x0, symName: __ZNK11llama_vocab16get_clean_spacesEv, symObjAddr: 0xCC74, symBinAddr: 0xC5AA0, symSize: 0xC }
  - { offset: 0x553D83, size: 0x8, addend: 0x0, symName: __ZNK11llama_vocab28get_remove_extra_whitespacesEv, symObjAddr: 0xCC80, symBinAddr: 0xC5AAC, symSize: 0xC }
  - { offset: 0x553DA7, size: 0x8, addend: 0x0, symName: __ZNK11llama_vocab28get_remove_extra_whitespacesEv, symObjAddr: 0xCC80, symBinAddr: 0xC5AAC, symSize: 0xC }
  - { offset: 0x553DC2, size: 0x8, addend: 0x0, symName: __ZNK11llama_vocab22get_escape_whitespacesEv, symObjAddr: 0xCC8C, symBinAddr: 0xC5AB8, symSize: 0xC }
  - { offset: 0x553DE6, size: 0x8, addend: 0x0, symName: __ZNK11llama_vocab22get_escape_whitespacesEv, symObjAddr: 0xCC8C, symBinAddr: 0xC5AB8, symSize: 0xC }
  - { offset: 0x553E01, size: 0x8, addend: 0x0, symName: __ZNK11llama_vocab30get_treat_whitespace_as_suffixEv, symObjAddr: 0xCC98, symBinAddr: 0xC5AC4, symSize: 0xC }
  - { offset: 0x553E25, size: 0x8, addend: 0x0, symName: __ZNK11llama_vocab30get_treat_whitespace_as_suffixEv, symObjAddr: 0xCC98, symBinAddr: 0xC5AC4, symSize: 0xC }
  - { offset: 0x553E40, size: 0x8, addend: 0x0, symName: __ZNK11llama_vocab13max_token_lenEv, symObjAddr: 0xCCA4, symBinAddr: 0xC5AD0, symSize: 0xC }
  - { offset: 0x553E64, size: 0x8, addend: 0x0, symName: __ZNK11llama_vocab13max_token_lenEv, symObjAddr: 0xCCA4, symBinAddr: 0xC5AD0, symSize: 0xC }
  - { offset: 0x553F21, size: 0x8, addend: 0x0, symName: __ZNK11llama_vocab13find_bpe_rankERKNSt3__112basic_stringIcNS0_11char_traitsIcEENS0_9allocatorIcEEEES8_, symObjAddr: 0xCCB0, symBinAddr: 0xC5ADC, symSize: 0x214 }
  - { offset: 0x554542, size: 0x8, addend: 0x0, symName: __ZNSt3__112__hash_tableINS_17__hash_value_typeINS_4pairINS_12basic_stringIcNS_11char_traitsIcEENS_9allocatorIcEEEES8_EEiEENS_22__unordered_map_hasherIS9_SA_N11llama_vocab4impl9pair_hashENS_8equal_toIS9_EELb1EEENS_21__unordered_map_equalIS9_SA_SG_SE_Lb1EEENS6_ISA_EEE4findIS9_EENS_15__hash_iteratorIPNS_11__hash_nodeISA_PvEEEERKT_, symObjAddr: 0x1510C, symBinAddr: 0xCD6E4, symSize: 0x178 }
  - { offset: 0x5548AA, size: 0x8, addend: 0x0, symName: __ZNK11llama_vocab14get_bpe_mergesEv, symObjAddr: 0xCEC4, symBinAddr: 0xC5CF0, symSize: 0x218 }
  - { offset: 0x5555AD, size: 0x8, addend: 0x0, symName: __ZNK11llama_vocab24get_precompiled_charsmapEv, symObjAddr: 0xD1D4, symBinAddr: 0xC6000, symSize: 0x8C }
  - { offset: 0x555A4D, size: 0x8, addend: 0x0, symName: __ZNSt3__112__hash_tableINS_17__hash_value_typeINS_12basic_stringIcNS_11char_traitsIcEENS_9allocatorIcEEEEiEENS_22__unordered_map_hasherIS7_S8_NS_4hashIS7_EENS_8equal_toIS7_EELb1EEENS_21__unordered_map_equalIS7_S8_SD_SB_Lb1EEENS5_IS8_EEE25__emplace_unique_key_argsIS7_JRKNS_21piecewise_construct_tENS_5tupleIJRKS7_EEENSN_IJEEEEEENS_4pairINS_15__hash_iteratorIPNS_11__hash_nodeIS8_PvEEEEbEERKT_DpOT0_, symObjAddr: 0x111B4, symBinAddr: 0xC97CC, symSize: 0x470 }
  - { offset: 0x555A95, size: 0x8, addend: 0x0, symName: __ZNK11llama_vocab8tokenizeEPKciPiibb, symObjAddr: 0xD260, symBinAddr: 0xC608C, symSize: 0x1C4 }
  - { offset: 0x5562BF, size: 0x8, addend: 0x0, symName: __ZNK11llama_vocab8tokenizeERKNSt3__112basic_stringIcNS0_11char_traitsIcEENS0_9allocatorIcEEEEbb, symObjAddr: 0xD424, symBinAddr: 0xC6250, symSize: 0x8 }
  - { offset: 0x556302, size: 0x8, addend: 0x0, symName: __ZNK11llama_vocab8tokenizeERKNSt3__112basic_stringIcNS0_11char_traitsIcEENS0_9allocatorIcEEEEbb, symObjAddr: 0xD424, symBinAddr: 0xC6250, symSize: 0x8 }
  - { offset: 0x55636C, size: 0x8, addend: 0x0, symName: __ZNK11llama_vocab14token_to_pieceEi, symObjAddr: 0xD42C, symBinAddr: 0xC6258, symSize: 0x44 }
  - { offset: 0x55641E, size: 0x8, addend: 0x0, symName: __ZNK11llama_vocab10detokenizeEPKiiPcibb, symObjAddr: 0xD470, symBinAddr: 0xC629C, symSize: 0x8 }
  - { offset: 0x556429, size: 0x8, addend: 0x0, symName: __ZNK11llama_vocab10detokenizeEPKiiPcibb, symObjAddr: 0xD470, symBinAddr: 0xC629C, symSize: 0x8 }
  - { offset: 0x556481, size: 0x8, addend: 0x0, symName: __ZNK11llama_vocab10detokenizeEPKiiPcibb, symObjAddr: 0xD470, symBinAddr: 0xC629C, symSize: 0x8 }
  - { offset: 0x55654C, size: 0x8, addend: 0x0, symName: __ZNK11llama_vocab10detokenizeERKNSt3__16vectorIiNS0_9allocatorIiEEEEb, symObjAddr: 0xD478, symBinAddr: 0xC62A4, symSize: 0x15C }
  - { offset: 0x556A34, size: 0x8, addend: 0x0, symName: __ZNK11llama_vocab10print_infoEv, symObjAddr: 0xD5D4, symBinAddr: 0xC6400, symSize: 0x8 }
  - { offset: 0x556A60, size: 0x8, addend: 0x0, symName: __ZNK11llama_vocab10print_infoEv, symObjAddr: 0xD5D4, symBinAddr: 0xC6400, symSize: 0x8 }
  - { offset: 0x556A88, size: 0x8, addend: 0x0, symName: _llama_vocab_n_tokens, symObjAddr: 0xD5DC, symBinAddr: 0xC6408, symSize: 0x14 }
  - { offset: 0x556AA8, size: 0x8, addend: 0x0, symName: _llama_vocab_n_tokens, symObjAddr: 0xD5DC, symBinAddr: 0xC6408, symSize: 0x14 }
  - { offset: 0x556AC4, size: 0x8, addend: 0x0, symName: _llama_vocab_n_tokens, symObjAddr: 0xD5DC, symBinAddr: 0xC6408, symSize: 0x14 }
  - { offset: 0x556B1A, size: 0x8, addend: 0x0, symName: _llama_n_vocab, symObjAddr: 0xD5F0, symBinAddr: 0xC641C, symSize: 0x14 }
  - { offset: 0x556B49, size: 0x8, addend: 0x0, symName: _llama_n_vocab, symObjAddr: 0xD5F0, symBinAddr: 0xC641C, symSize: 0x14 }
  - { offset: 0x556B65, size: 0x8, addend: 0x0, symName: _llama_n_vocab, symObjAddr: 0xD5F0, symBinAddr: 0xC641C, symSize: 0x14 }
  - { offset: 0x556B81, size: 0x8, addend: 0x0, symName: _llama_n_vocab, symObjAddr: 0xD5F0, symBinAddr: 0xC641C, symSize: 0x14 }
  - { offset: 0x556BBD, size: 0x8, addend: 0x0, symName: _llama_vocab_type, symObjAddr: 0xD604, symBinAddr: 0xC6430, symSize: 0xC }
  - { offset: 0x556BEC, size: 0x8, addend: 0x0, symName: _llama_vocab_type, symObjAddr: 0xD604, symBinAddr: 0xC6430, symSize: 0xC }
  - { offset: 0x556C08, size: 0x8, addend: 0x0, symName: _llama_vocab_type, symObjAddr: 0xD604, symBinAddr: 0xC6430, symSize: 0xC }
  - { offset: 0x556C49, size: 0x8, addend: 0x0, symName: _llama_vocab_get_text, symObjAddr: 0xD610, symBinAddr: 0xC643C, symSize: 0x7C }
  - { offset: 0x556D7B, size: 0x8, addend: 0x0, symName: _llama_vocab_get_score, symObjAddr: 0xD68C, symBinAddr: 0xC64B8, symSize: 0x68 }
  - { offset: 0x556DAB, size: 0x8, addend: 0x0, symName: _llama_vocab_get_score, symObjAddr: 0xD68C, symBinAddr: 0xC64B8, symSize: 0x68 }
  - { offset: 0x556E5E, size: 0x8, addend: 0x0, symName: _llama_vocab_get_attr, symObjAddr: 0xD6F4, symBinAddr: 0xC6520, symSize: 0x68 }
  - { offset: 0x556E8E, size: 0x8, addend: 0x0, symName: _llama_vocab_get_attr, symObjAddr: 0xD6F4, symBinAddr: 0xC6520, symSize: 0x68 }
  - { offset: 0x556F58, size: 0x8, addend: 0x0, symName: _llama_vocab_is_eog, symObjAddr: 0xD75C, symBinAddr: 0xC6588, symSize: 0x44 }
  - { offset: 0x556F87, size: 0x8, addend: 0x0, symName: _llama_vocab_is_eog, symObjAddr: 0xD75C, symBinAddr: 0xC6588, symSize: 0x44 }
  - { offset: 0x557072, size: 0x8, addend: 0x0, symName: _llama_vocab_is_control, symObjAddr: 0xD7A0, symBinAddr: 0xC65CC, symSize: 0x5C }
  - { offset: 0x557116, size: 0x8, addend: 0x0, symName: _llama_vocab_bos, symObjAddr: 0xD7FC, symBinAddr: 0xC6628, symSize: 0xC }
  - { offset: 0x557128, size: 0x8, addend: 0x0, symName: _llama_vocab_bos, symObjAddr: 0xD7FC, symBinAddr: 0xC6628, symSize: 0xC }
  - { offset: 0x557148, size: 0x8, addend: 0x0, symName: _llama_vocab_bos, symObjAddr: 0xD7FC, symBinAddr: 0xC6628, symSize: 0xC }
  - { offset: 0x557164, size: 0x8, addend: 0x0, symName: _llama_vocab_bos, symObjAddr: 0xD7FC, symBinAddr: 0xC6628, symSize: 0xC }
  - { offset: 0x55717F, size: 0x8, addend: 0x0, symName: _llama_vocab_eos, symObjAddr: 0xD808, symBinAddr: 0xC6634, symSize: 0xC }
  - { offset: 0x55719F, size: 0x8, addend: 0x0, symName: _llama_vocab_eos, symObjAddr: 0xD808, symBinAddr: 0xC6634, symSize: 0xC }
  - { offset: 0x5571BB, size: 0x8, addend: 0x0, symName: _llama_vocab_eos, symObjAddr: 0xD808, symBinAddr: 0xC6634, symSize: 0xC }
  - { offset: 0x5571EF, size: 0x8, addend: 0x0, symName: _llama_vocab_eot, symObjAddr: 0xD814, symBinAddr: 0xC6640, symSize: 0xC }
  - { offset: 0x55720F, size: 0x8, addend: 0x0, symName: _llama_vocab_eot, symObjAddr: 0xD814, symBinAddr: 0xC6640, symSize: 0xC }
  - { offset: 0x55722B, size: 0x8, addend: 0x0, symName: _llama_vocab_eot, symObjAddr: 0xD814, symBinAddr: 0xC6640, symSize: 0xC }
  - { offset: 0x557247, size: 0x8, addend: 0x0, symName: _llama_vocab_cls, symObjAddr: 0xD820, symBinAddr: 0xC664C, symSize: 0xC }
  - { offset: 0x557276, size: 0x8, addend: 0x0, symName: _llama_vocab_cls, symObjAddr: 0xD820, symBinAddr: 0xC664C, symSize: 0xC }
  - { offset: 0x557292, size: 0x8, addend: 0x0, symName: _llama_vocab_cls, symObjAddr: 0xD820, symBinAddr: 0xC664C, symSize: 0xC }
  - { offset: 0x5572C6, size: 0x8, addend: 0x0, symName: _llama_vocab_sep, symObjAddr: 0xD82C, symBinAddr: 0xC6658, symSize: 0xC }
  - { offset: 0x5572E6, size: 0x8, addend: 0x0, symName: _llama_vocab_sep, symObjAddr: 0xD82C, symBinAddr: 0xC6658, symSize: 0xC }
  - { offset: 0x557302, size: 0x8, addend: 0x0, symName: _llama_vocab_sep, symObjAddr: 0xD82C, symBinAddr: 0xC6658, symSize: 0xC }
  - { offset: 0x557336, size: 0x8, addend: 0x0, symName: _llama_vocab_nl, symObjAddr: 0xD838, symBinAddr: 0xC6664, symSize: 0xC }
  - { offset: 0x557356, size: 0x8, addend: 0x0, symName: _llama_vocab_nl, symObjAddr: 0xD838, symBinAddr: 0xC6664, symSize: 0xC }
  - { offset: 0x557372, size: 0x8, addend: 0x0, symName: _llama_vocab_nl, symObjAddr: 0xD838, symBinAddr: 0xC6664, symSize: 0xC }
  - { offset: 0x5573A6, size: 0x8, addend: 0x0, symName: _llama_vocab_pad, symObjAddr: 0xD844, symBinAddr: 0xC6670, symSize: 0xC }
  - { offset: 0x5573C6, size: 0x8, addend: 0x0, symName: _llama_vocab_pad, symObjAddr: 0xD844, symBinAddr: 0xC6670, symSize: 0xC }
  - { offset: 0x5573E2, size: 0x8, addend: 0x0, symName: _llama_vocab_pad, symObjAddr: 0xD844, symBinAddr: 0xC6670, symSize: 0xC }
  - { offset: 0x5573FD, size: 0x8, addend: 0x0, symName: _llama_vocab_get_add_bos, symObjAddr: 0xD850, symBinAddr: 0xC667C, symSize: 0xC }
  - { offset: 0x55741D, size: 0x8, addend: 0x0, symName: _llama_vocab_get_add_bos, symObjAddr: 0xD850, symBinAddr: 0xC667C, symSize: 0xC }
  - { offset: 0x557439, size: 0x8, addend: 0x0, symName: _llama_vocab_get_add_bos, symObjAddr: 0xD850, symBinAddr: 0xC667C, symSize: 0xC }
  - { offset: 0x557454, size: 0x8, addend: 0x0, symName: _llama_vocab_get_add_eos, symObjAddr: 0xD85C, symBinAddr: 0xC6688, symSize: 0xC }
  - { offset: 0x557474, size: 0x8, addend: 0x0, symName: _llama_vocab_get_add_eos, symObjAddr: 0xD85C, symBinAddr: 0xC6688, symSize: 0xC }
  - { offset: 0x557490, size: 0x8, addend: 0x0, symName: _llama_vocab_get_add_eos, symObjAddr: 0xD85C, symBinAddr: 0xC6688, symSize: 0xC }
  - { offset: 0x5574C4, size: 0x8, addend: 0x0, symName: _llama_vocab_fim_pre, symObjAddr: 0xD868, symBinAddr: 0xC6694, symSize: 0xC }
  - { offset: 0x5574E4, size: 0x8, addend: 0x0, symName: _llama_vocab_fim_pre, symObjAddr: 0xD868, symBinAddr: 0xC6694, symSize: 0xC }
  - { offset: 0x557500, size: 0x8, addend: 0x0, symName: _llama_vocab_fim_pre, symObjAddr: 0xD868, symBinAddr: 0xC6694, symSize: 0xC }
  - { offset: 0x557534, size: 0x8, addend: 0x0, symName: _llama_vocab_fim_suf, symObjAddr: 0xD874, symBinAddr: 0xC66A0, symSize: 0xC }
  - { offset: 0x557554, size: 0x8, addend: 0x0, symName: _llama_vocab_fim_suf, symObjAddr: 0xD874, symBinAddr: 0xC66A0, symSize: 0xC }
  - { offset: 0x557570, size: 0x8, addend: 0x0, symName: _llama_vocab_fim_suf, symObjAddr: 0xD874, symBinAddr: 0xC66A0, symSize: 0xC }
  - { offset: 0x5575A4, size: 0x8, addend: 0x0, symName: _llama_vocab_fim_mid, symObjAddr: 0xD880, symBinAddr: 0xC66AC, symSize: 0xC }
  - { offset: 0x5575C4, size: 0x8, addend: 0x0, symName: _llama_vocab_fim_mid, symObjAddr: 0xD880, symBinAddr: 0xC66AC, symSize: 0xC }
  - { offset: 0x5575E0, size: 0x8, addend: 0x0, symName: _llama_vocab_fim_mid, symObjAddr: 0xD880, symBinAddr: 0xC66AC, symSize: 0xC }
  - { offset: 0x557614, size: 0x8, addend: 0x0, symName: _llama_vocab_fim_pad, symObjAddr: 0xD88C, symBinAddr: 0xC66B8, symSize: 0xC }
  - { offset: 0x557634, size: 0x8, addend: 0x0, symName: _llama_vocab_fim_pad, symObjAddr: 0xD88C, symBinAddr: 0xC66B8, symSize: 0xC }
  - { offset: 0x557650, size: 0x8, addend: 0x0, symName: _llama_vocab_fim_pad, symObjAddr: 0xD88C, symBinAddr: 0xC66B8, symSize: 0xC }
  - { offset: 0x557684, size: 0x8, addend: 0x0, symName: _llama_vocab_fim_rep, symObjAddr: 0xD898, symBinAddr: 0xC66C4, symSize: 0xC }
  - { offset: 0x5576A4, size: 0x8, addend: 0x0, symName: _llama_vocab_fim_rep, symObjAddr: 0xD898, symBinAddr: 0xC66C4, symSize: 0xC }
  - { offset: 0x5576C0, size: 0x8, addend: 0x0, symName: _llama_vocab_fim_rep, symObjAddr: 0xD898, symBinAddr: 0xC66C4, symSize: 0xC }
  - { offset: 0x5576F4, size: 0x8, addend: 0x0, symName: _llama_vocab_fim_sep, symObjAddr: 0xD8A4, symBinAddr: 0xC66D0, symSize: 0xC }
  - { offset: 0x557714, size: 0x8, addend: 0x0, symName: _llama_vocab_fim_sep, symObjAddr: 0xD8A4, symBinAddr: 0xC66D0, symSize: 0xC }
  - { offset: 0x557730, size: 0x8, addend: 0x0, symName: _llama_vocab_fim_sep, symObjAddr: 0xD8A4, symBinAddr: 0xC66D0, symSize: 0xC }
  - { offset: 0x557773, size: 0x8, addend: 0x0, symName: _llama_token_get_text, symObjAddr: 0xD8B0, symBinAddr: 0xC66DC, symSize: 0x7C }
  - { offset: 0x5578DC, size: 0x8, addend: 0x0, symName: _llama_token_get_score, symObjAddr: 0xD92C, symBinAddr: 0xC6758, symSize: 0x68 }
  - { offset: 0x55790E, size: 0x8, addend: 0x0, symName: _llama_token_get_score, symObjAddr: 0xD92C, symBinAddr: 0xC6758, symSize: 0x68 }
  - { offset: 0x5579F8, size: 0x8, addend: 0x0, symName: _llama_token_get_attr, symObjAddr: 0xD994, symBinAddr: 0xC67C0, symSize: 0x68 }
  - { offset: 0x557A2A, size: 0x8, addend: 0x0, symName: _llama_token_get_attr, symObjAddr: 0xD994, symBinAddr: 0xC67C0, symSize: 0x68 }
  - { offset: 0x557B2B, size: 0x8, addend: 0x0, symName: _llama_token_is_eog, symObjAddr: 0xD9FC, symBinAddr: 0xC6828, symSize: 0x44 }
  - { offset: 0x557B5D, size: 0x8, addend: 0x0, symName: _llama_token_is_eog, symObjAddr: 0xD9FC, symBinAddr: 0xC6828, symSize: 0x44 }
  - { offset: 0x557C81, size: 0x8, addend: 0x0, symName: _llama_token_is_control, symObjAddr: 0xDA40, symBinAddr: 0xC686C, symSize: 0x5C }
  - { offset: 0x557D5C, size: 0x8, addend: 0x0, symName: _llama_token_bos, symObjAddr: 0xDA9C, symBinAddr: 0xC68C8, symSize: 0xC }
  - { offset: 0x557D8A, size: 0x8, addend: 0x0, symName: _llama_token_bos, symObjAddr: 0xDA9C, symBinAddr: 0xC68C8, symSize: 0xC }
  - { offset: 0x557DB9, size: 0x8, addend: 0x0, symName: _llama_token_bos, symObjAddr: 0xDA9C, symBinAddr: 0xC68C8, symSize: 0xC }
  - { offset: 0x557DD5, size: 0x8, addend: 0x0, symName: _llama_token_bos, symObjAddr: 0xDA9C, symBinAddr: 0xC68C8, symSize: 0xC }
  - { offset: 0x557DF1, size: 0x8, addend: 0x0, symName: _llama_token_bos, symObjAddr: 0xDA9C, symBinAddr: 0xC68C8, symSize: 0xC }
  - { offset: 0x557E29, size: 0x8, addend: 0x0, symName: _llama_token_eos, symObjAddr: 0xDAA8, symBinAddr: 0xC68D4, symSize: 0xC }
  - { offset: 0x557E58, size: 0x8, addend: 0x0, symName: _llama_token_eos, symObjAddr: 0xDAA8, symBinAddr: 0xC68D4, symSize: 0xC }
  - { offset: 0x557E74, size: 0x8, addend: 0x0, symName: _llama_token_eos, symObjAddr: 0xDAA8, symBinAddr: 0xC68D4, symSize: 0xC }
  - { offset: 0x557E90, size: 0x8, addend: 0x0, symName: _llama_token_eos, symObjAddr: 0xDAA8, symBinAddr: 0xC68D4, symSize: 0xC }
  - { offset: 0x557EC8, size: 0x8, addend: 0x0, symName: _llama_token_eot, symObjAddr: 0xDAB4, symBinAddr: 0xC68E0, symSize: 0xC }
  - { offset: 0x557EF7, size: 0x8, addend: 0x0, symName: _llama_token_eot, symObjAddr: 0xDAB4, symBinAddr: 0xC68E0, symSize: 0xC }
  - { offset: 0x557F13, size: 0x8, addend: 0x0, symName: _llama_token_eot, symObjAddr: 0xDAB4, symBinAddr: 0xC68E0, symSize: 0xC }
  - { offset: 0x557F2F, size: 0x8, addend: 0x0, symName: _llama_token_eot, symObjAddr: 0xDAB4, symBinAddr: 0xC68E0, symSize: 0xC }
  - { offset: 0x557F4C, size: 0x8, addend: 0x0, symName: _llama_token_cls, symObjAddr: 0xDAC0, symBinAddr: 0xC68EC, symSize: 0xC }
  - { offset: 0x557F7B, size: 0x8, addend: 0x0, symName: _llama_token_cls, symObjAddr: 0xDAC0, symBinAddr: 0xC68EC, symSize: 0xC }
  - { offset: 0x557F97, size: 0x8, addend: 0x0, symName: _llama_token_cls, symObjAddr: 0xDAC0, symBinAddr: 0xC68EC, symSize: 0xC }
  - { offset: 0x557FB3, size: 0x8, addend: 0x0, symName: _llama_token_cls, symObjAddr: 0xDAC0, symBinAddr: 0xC68EC, symSize: 0xC }
  - { offset: 0x557FEB, size: 0x8, addend: 0x0, symName: _llama_token_sep, symObjAddr: 0xDACC, symBinAddr: 0xC68F8, symSize: 0xC }
  - { offset: 0x55801A, size: 0x8, addend: 0x0, symName: _llama_token_sep, symObjAddr: 0xDACC, symBinAddr: 0xC68F8, symSize: 0xC }
  - { offset: 0x558036, size: 0x8, addend: 0x0, symName: _llama_token_sep, symObjAddr: 0xDACC, symBinAddr: 0xC68F8, symSize: 0xC }
  - { offset: 0x558052, size: 0x8, addend: 0x0, symName: _llama_token_sep, symObjAddr: 0xDACC, symBinAddr: 0xC68F8, symSize: 0xC }
  - { offset: 0x55808A, size: 0x8, addend: 0x0, symName: _llama_token_nl, symObjAddr: 0xDAD8, symBinAddr: 0xC6904, symSize: 0xC }
  - { offset: 0x5580B9, size: 0x8, addend: 0x0, symName: _llama_token_nl, symObjAddr: 0xDAD8, symBinAddr: 0xC6904, symSize: 0xC }
  - { offset: 0x5580D5, size: 0x8, addend: 0x0, symName: _llama_token_nl, symObjAddr: 0xDAD8, symBinAddr: 0xC6904, symSize: 0xC }
  - { offset: 0x5580F1, size: 0x8, addend: 0x0, symName: _llama_token_nl, symObjAddr: 0xDAD8, symBinAddr: 0xC6904, symSize: 0xC }
  - { offset: 0x558129, size: 0x8, addend: 0x0, symName: _llama_token_pad, symObjAddr: 0xDAE4, symBinAddr: 0xC6910, symSize: 0xC }
  - { offset: 0x558158, size: 0x8, addend: 0x0, symName: _llama_token_pad, symObjAddr: 0xDAE4, symBinAddr: 0xC6910, symSize: 0xC }
  - { offset: 0x558174, size: 0x8, addend: 0x0, symName: _llama_token_pad, symObjAddr: 0xDAE4, symBinAddr: 0xC6910, symSize: 0xC }
  - { offset: 0x558190, size: 0x8, addend: 0x0, symName: _llama_token_pad, symObjAddr: 0xDAE4, symBinAddr: 0xC6910, symSize: 0xC }
  - { offset: 0x5581C8, size: 0x8, addend: 0x0, symName: _llama_add_bos_token, symObjAddr: 0xDAF0, symBinAddr: 0xC691C, symSize: 0xC }
  - { offset: 0x5581F7, size: 0x8, addend: 0x0, symName: _llama_add_bos_token, symObjAddr: 0xDAF0, symBinAddr: 0xC691C, symSize: 0xC }
  - { offset: 0x558213, size: 0x8, addend: 0x0, symName: _llama_add_bos_token, symObjAddr: 0xDAF0, symBinAddr: 0xC691C, symSize: 0xC }
  - { offset: 0x55822F, size: 0x8, addend: 0x0, symName: _llama_add_bos_token, symObjAddr: 0xDAF0, symBinAddr: 0xC691C, symSize: 0xC }
  - { offset: 0x558267, size: 0x8, addend: 0x0, symName: _llama_add_eos_token, symObjAddr: 0xDAFC, symBinAddr: 0xC6928, symSize: 0xC }
  - { offset: 0x558296, size: 0x8, addend: 0x0, symName: _llama_add_eos_token, symObjAddr: 0xDAFC, symBinAddr: 0xC6928, symSize: 0xC }
  - { offset: 0x5582B2, size: 0x8, addend: 0x0, symName: _llama_add_eos_token, symObjAddr: 0xDAFC, symBinAddr: 0xC6928, symSize: 0xC }
  - { offset: 0x5582CE, size: 0x8, addend: 0x0, symName: _llama_add_eos_token, symObjAddr: 0xDAFC, symBinAddr: 0xC6928, symSize: 0xC }
  - { offset: 0x558306, size: 0x8, addend: 0x0, symName: _llama_token_fim_pre, symObjAddr: 0xDB08, symBinAddr: 0xC6934, symSize: 0xC }
  - { offset: 0x558335, size: 0x8, addend: 0x0, symName: _llama_token_fim_pre, symObjAddr: 0xDB08, symBinAddr: 0xC6934, symSize: 0xC }
  - { offset: 0x558351, size: 0x8, addend: 0x0, symName: _llama_token_fim_pre, symObjAddr: 0xDB08, symBinAddr: 0xC6934, symSize: 0xC }
  - { offset: 0x55836D, size: 0x8, addend: 0x0, symName: _llama_token_fim_pre, symObjAddr: 0xDB08, symBinAddr: 0xC6934, symSize: 0xC }
  - { offset: 0x5583A5, size: 0x8, addend: 0x0, symName: _llama_token_fim_suf, symObjAddr: 0xDB14, symBinAddr: 0xC6940, symSize: 0xC }
  - { offset: 0x5583D4, size: 0x8, addend: 0x0, symName: _llama_token_fim_suf, symObjAddr: 0xDB14, symBinAddr: 0xC6940, symSize: 0xC }
  - { offset: 0x5583F0, size: 0x8, addend: 0x0, symName: _llama_token_fim_suf, symObjAddr: 0xDB14, symBinAddr: 0xC6940, symSize: 0xC }
  - { offset: 0x55840C, size: 0x8, addend: 0x0, symName: _llama_token_fim_suf, symObjAddr: 0xDB14, symBinAddr: 0xC6940, symSize: 0xC }
  - { offset: 0x558444, size: 0x8, addend: 0x0, symName: _llama_token_fim_mid, symObjAddr: 0xDB20, symBinAddr: 0xC694C, symSize: 0xC }
  - { offset: 0x558473, size: 0x8, addend: 0x0, symName: _llama_token_fim_mid, symObjAddr: 0xDB20, symBinAddr: 0xC694C, symSize: 0xC }
  - { offset: 0x55848F, size: 0x8, addend: 0x0, symName: _llama_token_fim_mid, symObjAddr: 0xDB20, symBinAddr: 0xC694C, symSize: 0xC }
  - { offset: 0x5584AB, size: 0x8, addend: 0x0, symName: _llama_token_fim_mid, symObjAddr: 0xDB20, symBinAddr: 0xC694C, symSize: 0xC }
  - { offset: 0x5584E3, size: 0x8, addend: 0x0, symName: _llama_token_fim_pad, symObjAddr: 0xDB2C, symBinAddr: 0xC6958, symSize: 0xC }
  - { offset: 0x558512, size: 0x8, addend: 0x0, symName: _llama_token_fim_pad, symObjAddr: 0xDB2C, symBinAddr: 0xC6958, symSize: 0xC }
  - { offset: 0x55852E, size: 0x8, addend: 0x0, symName: _llama_token_fim_pad, symObjAddr: 0xDB2C, symBinAddr: 0xC6958, symSize: 0xC }
  - { offset: 0x55854A, size: 0x8, addend: 0x0, symName: _llama_token_fim_pad, symObjAddr: 0xDB2C, symBinAddr: 0xC6958, symSize: 0xC }
  - { offset: 0x558582, size: 0x8, addend: 0x0, symName: _llama_token_fim_rep, symObjAddr: 0xDB38, symBinAddr: 0xC6964, symSize: 0xC }
  - { offset: 0x5585B1, size: 0x8, addend: 0x0, symName: _llama_token_fim_rep, symObjAddr: 0xDB38, symBinAddr: 0xC6964, symSize: 0xC }
  - { offset: 0x5585CD, size: 0x8, addend: 0x0, symName: _llama_token_fim_rep, symObjAddr: 0xDB38, symBinAddr: 0xC6964, symSize: 0xC }
  - { offset: 0x5585E9, size: 0x8, addend: 0x0, symName: _llama_token_fim_rep, symObjAddr: 0xDB38, symBinAddr: 0xC6964, symSize: 0xC }
  - { offset: 0x558621, size: 0x8, addend: 0x0, symName: _llama_token_fim_sep, symObjAddr: 0xDB44, symBinAddr: 0xC6970, symSize: 0xC }
  - { offset: 0x558650, size: 0x8, addend: 0x0, symName: _llama_token_fim_sep, symObjAddr: 0xDB44, symBinAddr: 0xC6970, symSize: 0xC }
  - { offset: 0x55866C, size: 0x8, addend: 0x0, symName: _llama_token_fim_sep, symObjAddr: 0xDB44, symBinAddr: 0xC6970, symSize: 0xC }
  - { offset: 0x558688, size: 0x8, addend: 0x0, symName: _llama_token_fim_sep, symObjAddr: 0xDB44, symBinAddr: 0xC6970, symSize: 0xC }
  - { offset: 0x5586A5, size: 0x8, addend: 0x0, symName: _llama_tokenize, symObjAddr: 0xDB50, symBinAddr: 0xC697C, symSize: 0x4 }
  - { offset: 0x558737, size: 0x8, addend: 0x0, symName: _llama_tokenize, symObjAddr: 0xDB50, symBinAddr: 0xC697C, symSize: 0x4 }
  - { offset: 0x558774, size: 0x8, addend: 0x0, symName: _llama_token_to_piece, symObjAddr: 0xDB54, symBinAddr: 0xC6980, symSize: 0x8 }
  - { offset: 0x5587F3, size: 0x8, addend: 0x0, symName: _llama_token_to_piece, symObjAddr: 0xDB54, symBinAddr: 0xC6980, symSize: 0x8 }
  - { offset: 0x558839, size: 0x8, addend: 0x0, symName: _llama_token_to_piece, symObjAddr: 0xDB54, symBinAddr: 0xC6980, symSize: 0x8 }
  - { offset: 0x558887, size: 0x8, addend: 0x0, symName: _llama_detokenize, symObjAddr: 0xDB5C, symBinAddr: 0xC6988, symSize: 0x8 }
  - { offset: 0x55891A, size: 0x8, addend: 0x0, symName: _llama_detokenize, symObjAddr: 0xDB5C, symBinAddr: 0xC6988, symSize: 0x8 }
  - { offset: 0x55896C, size: 0x8, addend: 0x0, symName: _llama_detokenize, symObjAddr: 0xDB5C, symBinAddr: 0xC6988, symSize: 0x8 }
  - { offset: 0x558A0C, size: 0x8, addend: 0x0, symName: __ZNSt3__114priority_queueI14llm_bigram_spmNS_6vectorIS1_NS_9allocatorIS1_EEEENS1_10comparatorEE4pushERKS1_, symObjAddr: 0xE478, symBinAddr: 0xC7208, symSize: 0x268 }
  - { offset: 0x55907C, size: 0x8, addend: 0x0, symName: __ZNKSt3__16vectorI14llm_bigram_spmNS_9allocatorIS1_EEE20__throw_length_errorB8ne180100Ev, symObjAddr: 0xE6E0, symBinAddr: 0xC7470, symSize: 0x14 }
  - { offset: 0x559087, size: 0x8, addend: 0x0, symName: __ZNSt3__16__treeINS_12__value_typeINS_12basic_stringIcNS_11char_traitsIcEENS_9allocatorIcEEEENS_4pairIiiEEEENS_19__map_value_compareIS7_SA_NS_4lessIS7_EELb1EEENS5_ISA_EEE25__emplace_unique_key_argsIS7_JRKNS_21piecewise_construct_tENS_5tupleIJRKS7_EEENSL_IJEEEEEENS8_INS_15__tree_iteratorISA_PNS_11__tree_nodeISA_PvEElEEbEERKT_DpOT0_, symObjAddr: 0xE6F4, symBinAddr: 0xC7484, symSize: 0x19C }
  - { offset: 0x559E44, size: 0x8, addend: 0x0, symName: __ZNKSt3__16vectorI14llm_bigram_spmNS_9allocatorIS1_EEE20__throw_length_errorB8ne180100Ev, symObjAddr: 0xE6E0, symBinAddr: 0xC7470, symSize: 0x14 }
  - { offset: 0x559E6E, size: 0x8, addend: 0x0, symName: __ZNSt3__16__treeINS_12__value_typeINS_12basic_stringIcNS_11char_traitsIcEENS_9allocatorIcEEEENS_4pairIiiEEEENS_19__map_value_compareIS7_SA_NS_4lessIS7_EELb1EEENS5_ISA_EEE25__emplace_unique_key_argsIS7_JRKNS_21piecewise_construct_tENS_5tupleIJRKS7_EEENSL_IJEEEEEENS8_INS_15__tree_iteratorISA_PNS_11__tree_nodeISA_PvEElEEbEERKT_DpOT0_, symObjAddr: 0xE6F4, symBinAddr: 0xC7484, symSize: 0x19C }
  - { offset: 0x55A519, size: 0x8, addend: 0x0, symName: __ZNSt3__16vectorI14llm_bigram_bpeNS_9allocatorIS1_EEE21__push_back_slow_pathIRKS1_EEPS1_OT_, symObjAddr: 0xF0A8, symBinAddr: 0xC7C70, symSize: 0x1FC }
  - { offset: 0x55AFC0, size: 0x8, addend: 0x0, symName: __ZNKSt3__16vectorI14llm_bigram_bpeNS_9allocatorIS1_EEE20__throw_length_errorB8ne180100Ev, symObjAddr: 0xF308, symBinAddr: 0xC7ED0, symSize: 0x14 }
  - { offset: 0x55AFEA, size: 0x8, addend: 0x0, symName: __ZNSt3__19__sift_upB8ne180100INS_17_ClassicAlgPolicyERN14llm_bigram_bpe10comparatorENS_11__wrap_iterIPS2_EEEEvT1_S8_OT0_NS_15iterator_traitsIS8_E15difference_typeE, symObjAddr: 0xF31C, symBinAddr: 0xC7EE4, symSize: 0x194 }
  - { offset: 0x55AFF5, size: 0x8, addend: 0x0, symName: __ZNSt3__114__split_bufferI14llm_bigram_bpeRNS_9allocatorIS1_EEED1Ev, symObjAddr: 0xF2A4, symBinAddr: 0xC7E6C, symSize: 0x64 }
  - { offset: 0x55B712, size: 0x8, addend: 0x0, symName: __ZNSt3__16vectorINS_12basic_stringIcNS_11char_traitsIcEENS_9allocatorIcEEEENS4_IS6_EEE24__emplace_back_slow_pathIJEEEPS6_DpOT_, symObjAddr: 0xFA04, symBinAddr: 0xC85A4, symSize: 0x158 }
  - { offset: 0x55BD02, size: 0x8, addend: 0x0, symName: __ZN25llm_tokenizer_ugm_session9normalizeERKNSt3__112basic_stringIcNS0_11char_traitsIcEENS0_9allocatorIcEEEEPS6_, symObjAddr: 0xFB5C, symBinAddr: 0xC86FC, symSize: 0x3B0 }
  - { offset: 0x55BD12, size: 0x8, addend: 0x0, symName: __ZNSt3__128__exception_guard_exceptionsINS_6vectorINS_12basic_stringIcNS_11char_traitsIcEENS_9allocatorIcEEEENS5_IS7_EEE16__destroy_vectorEED1B8ne180100Ev, symObjAddr: 0xF95C, symBinAddr: 0xC8510, symSize: 0x94 }
  - { offset: 0x55C2A9, size: 0x8, addend: 0x0, symName: __ZN25llm_tokenizer_ugm_session16normalize_prefixERKNSt3__112basic_stringIcNS0_11char_traitsIcEENS0_9allocatorIcEEEEm, symObjAddr: 0xFF0C, symBinAddr: 0xC8AAC, symSize: 0x2FC }
  - { offset: 0x55CD07, size: 0x8, addend: 0x0, symName: __ZNKSt3__16vectorIN11llama_vocab10token_dataENS_9allocatorIS2_EEE20__throw_length_errorB8ne180100Ev, symObjAddr: 0x104D0, symBinAddr: 0xC8F48, symSize: 0x14 }
  - { offset: 0x55CD31, size: 0x8, addend: 0x0, symName: __ZNSt3__112__hash_tableINS_17__hash_value_typeINS_4pairINS_12basic_stringIcNS_11char_traitsIcEENS_9allocatorIcEEEES8_EEiEENS_22__unordered_map_hasherIS9_SA_N11llama_vocab4impl9pair_hashENS_8equal_toIS9_EELb1EEENS_21__unordered_map_equalIS9_SA_SG_SE_Lb1EEENS6_ISA_EEE25__emplace_unique_key_argsIS9_JS9_RiEEENS2_INS_15__hash_iteratorIPNS_11__hash_nodeISA_PvEEEEbEERKT_DpOT0_, symObjAddr: 0x104E4, symBinAddr: 0xC8F5C, symSize: 0x3CC }
  - { offset: 0x55D8D8, size: 0x8, addend: 0x0, symName: __ZNKSt3__18equal_toINS_4pairINS_12basic_stringIcNS_11char_traitsIcEENS_9allocatorIcEEEES7_EEEclB8ne180100ERKS8_SB_, symObjAddr: 0x10D64, symBinAddr: 0xC9390, symSize: 0x148 }
  - { offset: 0x55DB62, size: 0x8, addend: 0x0, symName: __ZNSt3__112__hash_tableINS_17__hash_value_typeINS_4pairINS_12basic_stringIcNS_11char_traitsIcEENS_9allocatorIcEEEES8_EEiEENS_22__unordered_map_hasherIS9_SA_N11llama_vocab4impl9pair_hashENS_8equal_toIS9_EELb1EEENS_21__unordered_map_equalIS9_SA_SG_SE_Lb1EEENS6_ISA_EEE11__do_rehashILb1EEEvm, symObjAddr: 0x10EAC, symBinAddr: 0xC94D8, symSize: 0x1AC }
  - { offset: 0x55DFC0, size: 0x8, addend: 0x0, symName: __ZNSt3__16vectorIcNS_9allocatorIcEEE18__assign_with_sizeB8ne180100IPKcS6_EEvT_T0_l, symObjAddr: 0x11058, symBinAddr: 0xC9684, symSize: 0x148 }
  - { offset: 0x55DFD5, size: 0x8, addend: 0x0, symName: __ZNSt3__110unique_ptrINS_11__hash_nodeINS_17__hash_value_typeINS_4pairINS_12basic_stringIcNS_11char_traitsIcEENS_9allocatorIcEEEES9_EEiEEPvEENS_22__hash_node_destructorINS7_ISD_EEEEED1B8ne180100Ev, symObjAddr: 0x108B0, symBinAddr: 0xC9328, symSize: 0x68 }
  - { offset: 0x55EFAC, size: 0x8, addend: 0x0, symName: __ZNSt3__112__hash_tableINS_17__hash_value_typeINS_12basic_stringIcNS_11char_traitsIcEENS_9allocatorIcEEEEiEENS_22__unordered_map_hasherIS7_S8_NS_4hashIS7_EENS_8equal_toIS7_EELb1EEENS_21__unordered_map_equalIS7_S8_SD_SB_Lb1EEENS5_IS8_EEE11__do_rehashILb1EEEvm, symObjAddr: 0x11670, symBinAddr: 0xC9C88, symSize: 0x1AC }
  - { offset: 0x55F41F, size: 0x8, addend: 0x0, symName: __ZNSt3__110unique_ptrINS_11__hash_nodeINS_17__hash_value_typeINS_12basic_stringIcNS_11char_traitsIcEENS_9allocatorIcEEEEiEEPvEENS_22__hash_node_destructorINS6_ISB_EEEEED1B8ne180100Ev, symObjAddr: 0x11624, symBinAddr: 0xC9C3C, symSize: 0x4C }
  - { offset: 0x55FB3A, size: 0x8, addend: 0x0, symName: __ZN17llm_tokenizer_spmD1Ev, symObjAddr: 0x13398, symBinAddr: 0xCB970, symSize: 0x4 }
  - { offset: 0x55FB65, size: 0x8, addend: 0x0, symName: __ZN17llm_tokenizer_spmD0Ev, symObjAddr: 0x1339C, symBinAddr: 0xCB974, symSize: 0x4 }
  - { offset: 0x55FC59, size: 0x8, addend: 0x0, symName: __ZNSt3__16vectorINS_12basic_stringIcNS_11char_traitsIcEENS_9allocatorIcEEEENS4_IS6_EEE18__assign_with_sizeB8ne180100IPKS6_SB_EEvT_T0_l, symObjAddr: 0x14240, symBinAddr: 0xCC818, symSize: 0x304 }
  - { offset: 0x560B83, size: 0x8, addend: 0x0, symName: __ZN17llm_tokenizer_bpeC2ERK11llama_vocab.cold.1, symObjAddr: 0x152E4, symBinAddr: 0x1C94B8, symSize: 0x20 }
  - { offset: 0x560CA6, size: 0x8, addend: 0x0, symName: __ZN17llm_tokenizer_bpeD1Ev, symObjAddr: 0x14140, symBinAddr: 0xCC718, symSize: 0x80 }
  - { offset: 0x560F77, size: 0x8, addend: 0x0, symName: __ZN17llm_tokenizer_bpeD0Ev, symObjAddr: 0x141C0, symBinAddr: 0xCC798, symSize: 0x80 }
  - { offset: 0x56130D, size: 0x8, addend: 0x0, symName: __ZN17llm_tokenizer_wpmD1Ev, symObjAddr: 0x14544, symBinAddr: 0xCCB1C, symSize: 0x4 }
  - { offset: 0x561339, size: 0x8, addend: 0x0, symName: __ZN17llm_tokenizer_wpmD0Ev, symObjAddr: 0x14548, symBinAddr: 0xCCB20, symSize: 0x4 }
  - { offset: 0x5615DB, size: 0x8, addend: 0x0, symName: __ZN10naive_trie6insertEPKcmi, symObjAddr: 0x14820, symBinAddr: 0xCCDF8, symSize: 0x1E0 }
  - { offset: 0x562203, size: 0x8, addend: 0x0, symName: __ZNSt3__16__treeINS_12__value_typeIc10naive_trieEENS_19__map_value_compareIcS3_NS_4lessIcEELb1EEENS_9allocatorIS3_EEE7destroyEPNS_11__tree_nodeIS3_PvEE, symObjAddr: 0x14AC8, symBinAddr: 0xCD0A0, symSize: 0x4C }
  - { offset: 0x562A68, size: 0x8, addend: 0x0, symName: __ZN17llm_tokenizer_ugmD1Ev, symObjAddr: 0x14A00, symBinAddr: 0xCCFD8, symSize: 0x64 }
  - { offset: 0x562D88, size: 0x8, addend: 0x0, symName: __ZN17llm_tokenizer_ugmD0Ev, symObjAddr: 0x14A64, symBinAddr: 0xCD03C, symSize: 0x64 }
  - { offset: 0x563198, size: 0x8, addend: 0x0, symName: __ZN18llm_tokenizer_rwkvD1Ev, symObjAddr: 0x14C88, symBinAddr: 0xCD260, symSize: 0x38 }
  - { offset: 0x5632CB, size: 0x8, addend: 0x0, symName: __ZN18llm_tokenizer_rwkvD0Ev, symObjAddr: 0x14CC0, symBinAddr: 0xCD298, symSize: 0x38 }
  - { offset: 0x5656B8, size: 0x8, addend: 0x0, symName: _llama_split_path, symObjAddr: 0x1628, symBinAddr: 0xCED64, symSize: 0x48 }
  - { offset: 0x565770, size: 0x8, addend: 0x0, symName: _llama_print_system_info, symObjAddr: 0x1980, symBinAddr: 0xCF0BC, symSize: 0x1A0 }
  - { offset: 0x565798, size: 0x8, addend: 0x0, symName: __MergedGlobals, symObjAddr: 0xCB590, symBinAddr: 0x293978, symSize: 0x0 }
  - { offset: 0x57A745, size: 0x8, addend: 0x0, symName: _llama_sampler_chain_default_params, symObjAddr: 0x0, symBinAddr: 0xCD85C, symSize: 0x8 }
  - { offset: 0x57A76D, size: 0x8, addend: 0x0, symName: _llama_max_devices, symObjAddr: 0x8, symBinAddr: 0xCD864, symSize: 0x8 }
  - { offset: 0x57A787, size: 0x8, addend: 0x0, symName: _llama_supports_mmap, symObjAddr: 0x10, symBinAddr: 0xCD86C, symSize: 0x10 }
  - { offset: 0x57A7A1, size: 0x8, addend: 0x0, symName: _llama_supports_mlock, symObjAddr: 0x20, symBinAddr: 0xCD87C, symSize: 0x10 }
  - { offset: 0x57A7C8, size: 0x8, addend: 0x0, symName: _llama_supports_gpu_offload, symObjAddr: 0x30, symBinAddr: 0xCD88C, symSize: 0x50 }
  - { offset: 0x57A848, size: 0x8, addend: 0x0, symName: _llama_supports_rpc, symObjAddr: 0x80, symBinAddr: 0xCD8DC, symSize: 0x24 }
  - { offset: 0x57A86B, size: 0x8, addend: 0x0, symName: _llama_backend_init, symObjAddr: 0xA4, symBinAddr: 0xCD900, symSize: 0x30 }
  - { offset: 0x57A906, size: 0x8, addend: 0x0, symName: _llama_numa_init, symObjAddr: 0xD4, symBinAddr: 0xCD930, symSize: 0x80 }
  - { offset: 0x57A99F, size: 0x8, addend: 0x0, symName: _llama_backend_free, symObjAddr: 0x154, symBinAddr: 0xCD9B0, symSize: 0x4 }
  - { offset: 0x57A9F5, size: 0x8, addend: 0x0, symName: _llama_backend_free, symObjAddr: 0x154, symBinAddr: 0xCD9B0, symSize: 0x4 }
  - { offset: 0x57AA0F, size: 0x8, addend: 0x0, symName: _llama_backend_free, symObjAddr: 0x154, symBinAddr: 0xCD9B0, symSize: 0x4 }
  - { offset: 0x57AA23, size: 0x8, addend: 0x0, symName: _llama_time_us, symObjAddr: 0x158, symBinAddr: 0xCD9B4, symSize: 0x4 }
  - { offset: 0x57AA41, size: 0x8, addend: 0x0, symName: _llama_time_us, symObjAddr: 0x158, symBinAddr: 0xCD9B4, symSize: 0x4 }
  - { offset: 0x57AA59, size: 0x8, addend: 0x0, symName: _llama_load_model_from_file, symObjAddr: 0x15C, symBinAddr: 0xCD9B8, symSize: 0x38 }
  - { offset: 0x57AAAD, size: 0x8, addend: 0x0, symName: _llama_model_load_from_file, symObjAddr: 0x194, symBinAddr: 0xCD9F0, symSize: 0x17C }
  - { offset: 0x57B889, size: 0x8, addend: 0x0, symName: __ZL31llama_model_load_from_file_implRKNSt3__112basic_stringIcNS_11char_traitsIcEENS_9allocatorIcEEEERNS_6vectorIS5_NS3_IS5_EEEE18llama_model_params, symObjAddr: 0x310, symBinAddr: 0xCDB6C, symSize: 0xC74 }
